; ModuleID = 'target/release/deps/aster_time-b49753f4b2ce353a.ll'
source_filename = "aster_time.1361504a2dc5712d-cgu.0"
target datalayout = "e-m:e-p270:32:32-p271:32:32-p272:64:64-i64:64-i128:128-f80:128-n8:16:32:64-S128"
target triple = "x86_64-unknown-linux-gnu"

%"core::sync::atomic::AtomicUsize" = type { i64 }
%"once_cell::sync::Lazy<std::sync::poison::mutex::Mutex<alloc::vec::Vec<alloc::boxed::Box<dyn core::ops::function::Fn() + core::marker::Send + core::marker::Sync>>>>" = type { %"once_cell::sync::OnceCell<std::sync::poison::mutex::Mutex<alloc::vec::Vec<alloc::boxed::Box<dyn core::ops::function::Fn() + core::marker::Send + core::marker::Sync>>>>", ptr }
%"once_cell::sync::OnceCell<std::sync::poison::mutex::Mutex<alloc::vec::Vec<alloc::boxed::Box<dyn core::ops::function::Fn() + core::marker::Send + core::marker::Sync>>>>" = type { %"once_cell::imp::OnceCell<std::sync::poison::mutex::Mutex<alloc::vec::Vec<alloc::boxed::Box<dyn core::ops::function::Fn() + core::marker::Send + core::marker::Sync>>>>" }
%"once_cell::imp::OnceCell<std::sync::poison::mutex::Mutex<alloc::vec::Vec<alloc::boxed::Box<dyn core::ops::function::Fn() + core::marker::Send + core::marker::Sync>>>>" = type { %"core::sync::atomic::AtomicPtr<once_cell::imp::Waiter>", %"core::cell::UnsafeCell<core::option::Option<std::sync::poison::mutex::Mutex<alloc::vec::Vec<alloc::boxed::Box<dyn core::ops::function::Fn() + core::marker::Send + core::marker::Sync>>>>>" }
%"core::sync::atomic::AtomicPtr<once_cell::imp::Waiter>" = type { ptr }
%"core::cell::UnsafeCell<core::option::Option<std::sync::poison::mutex::Mutex<alloc::vec::Vec<alloc::boxed::Box<dyn core::ops::function::Fn() + core::marker::Send + core::marker::Sync>>>>>" = type { %"core::option::Option<std::sync::poison::mutex::Mutex<alloc::vec::Vec<alloc::boxed::Box<dyn core::ops::function::Fn() + core::marker::Send + core::marker::Sync>>>>" }
%"core::option::Option<std::sync::poison::mutex::Mutex<alloc::vec::Vec<alloc::boxed::Box<dyn core::ops::function::Fn() + core::marker::Send + core::marker::Sync>>>>" = type { i64, [4 x i64] }
%"inventory::Registry" = type { %"core::sync::atomic::AtomicPtr<inventory::Node>" }
%"core::sync::atomic::AtomicPtr<inventory::Node>" = type { ptr }
%"alloc::boxed::Box<dyn core::ops::function::Fn() + core::marker::Send + core::marker::Sync>" = type { %"core::ptr::unique::Unique<dyn core::ops::function::Fn() + core::marker::Send + core::marker::Sync>", %"alloc::alloc::Global" }
%"core::ptr::unique::Unique<dyn core::ops::function::Fn() + core::marker::Send + core::marker::Sync>" = type { %"core::ptr::non_null::NonNull<dyn core::ops::function::Fn() + core::marker::Send + core::marker::Sync>", %"core::marker::PhantomData<dyn core::ops::function::Fn() + core::marker::Send + core::marker::Sync>" }
%"core::ptr::non_null::NonNull<dyn core::ops::function::Fn() + core::marker::Send + core::marker::Sync>" = type { { ptr, ptr } }
%"core::marker::PhantomData<dyn core::ops::function::Fn() + core::marker::Send + core::marker::Sync>" = type {}
%"alloc::alloc::Global" = type {}
%"core::fmt::rt::Argument<'_>" = type { %"core::fmt::rt::ArgumentType<'_>" }
%"core::fmt::rt::ArgumentType<'_>" = type { ptr, [1 x i64] }

@_ZN10aster_time1_6__CTOR17h59f2ff3f8359d1bcE = constant ptr @_ZN10aster_time1_6__ctor17he6065d3c6fcc1863E, section ".init_array", align 8
@_ZN3std9panicking11panic_count18GLOBAL_PANIC_COUNT17h773706b8a844bfeaE = external global %"core::sync::atomic::AtomicUsize"
@alloc_8af9e032ee38e600fa074af6c4c471c5 = private unnamed_addr constant [121 x i8] c"/home/user/.rustup/toolchains/stable-x86_64-unknown-linux-gnu/lib/rustlib/src/rust/library/std/src/sync/poison/rwlock.rs\00", align 1
@alloc_9fec87cf92ceec07b8fed8607a9fc15a = private unnamed_addr constant <{ ptr, [16 x i8] }> <{ ptr @alloc_8af9e032ee38e600fa074af6c4c471c5, [16 x i8] c"x\00\00\00\00\00\00\00\B9\02\00\00\1C\00\00\00" }>, align 8
@anon.8907c793926939c1a3db336f022d0871.0 = private unnamed_addr constant <{ [8 x i8], [8 x i8] }> <{ [8 x i8] zeroinitializer, [8 x i8] undef }>, align 8
@alloc_560a59ed819b9d9a5841f6e731c4c8e5 = private unnamed_addr constant [210 x i8] c"unsafe precondition(s) violated: NonNull::new_unchecked requires that the pointer is non-null\0A\0AThis indicates a bug in the program. This Undefined Behavior check is optional, and cannot be relied on for safety.", align 1
@alloc_9cd20c3e415f4d39f0ceb012cb758628 = private unnamed_addr constant [40 x i8] c"there is no such thing as a release load", align 1
@alloc_b55f69a00b865c3d8c5f6dad0122f5bd = private unnamed_addr constant <{ ptr, [8 x i8] }> <{ ptr @alloc_9cd20c3e415f4d39f0ceb012cb758628, [8 x i8] c"(\00\00\00\00\00\00\00" }>, align 8
@alloc_2664cfd54d27b78eb70a73190eceb72a = private unnamed_addr constant [115 x i8] c"/home/user/.rustup/toolchains/stable-x86_64-unknown-linux-gnu/lib/rustlib/src/rust/library/core/src/sync/atomic.rs\00", align 1
@alloc_051df5c34fb432954f01ba2e7c186720 = private unnamed_addr constant <{ ptr, [16 x i8] }> <{ ptr @alloc_2664cfd54d27b78eb70a73190eceb72a, [16 x i8] c"r\00\00\00\00\00\00\00v\0F\00\00\18\00\00\00" }>, align 8
@alloc_96ab912d0054b46da785b206a96c9a45 = private unnamed_addr constant [49 x i8] c"there is no such thing as an acquire-release load", align 1
@alloc_0175cc81e1f5c8f5b757d44420d81e68 = private unnamed_addr constant <{ ptr, [8 x i8] }> <{ ptr @alloc_96ab912d0054b46da785b206a96c9a45, [8 x i8] c"1\00\00\00\00\00\00\00" }>, align 8
@alloc_1ee8d1231eb862c691f94edb251ddd5e = private unnamed_addr constant <{ ptr, [16 x i8] }> <{ ptr @alloc_2664cfd54d27b78eb70a73190eceb72a, [16 x i8] c"r\00\00\00\00\00\00\00w\0F\00\00\17\00\00\00" }>, align 8
@alloc_bf39103a6db665396aab4632362d9353 = private unnamed_addr constant [42 x i8] c"there is no such thing as an acquire store", align 1
@alloc_d30e09dd75f4c40be0845475870856e6 = private unnamed_addr constant <{ ptr, [8 x i8] }> <{ ptr @alloc_bf39103a6db665396aab4632362d9353, [8 x i8] c"*\00\00\00\00\00\00\00" }>, align 8
@alloc_aa49003fd1a847a460eb9b581ac263f6 = private unnamed_addr constant <{ ptr, [16 x i8] }> <{ ptr @alloc_2664cfd54d27b78eb70a73190eceb72a, [16 x i8] c"r\00\00\00\00\00\00\00g\0F\00\00\18\00\00\00" }>, align 8
@alloc_00c0bce0fa6327f8ec8e69d6d765d508 = private unnamed_addr constant [50 x i8] c"there is no such thing as an acquire-release store", align 1
@alloc_9b1e61e0572571d4b583b134cc9efd32 = private unnamed_addr constant <{ ptr, [8 x i8] }> <{ ptr @alloc_00c0bce0fa6327f8ec8e69d6d765d508, [8 x i8] c"2\00\00\00\00\00\00\00" }>, align 8
@alloc_a683a46c669a4520b8eaf0cb50f8a1e4 = private unnamed_addr constant <{ ptr, [16 x i8] }> <{ ptr @alloc_2664cfd54d27b78eb70a73190eceb72a, [16 x i8] c"r\00\00\00\00\00\00\00h\0F\00\00\17\00\00\00" }>, align 8
@alloc_5a43f8d94dd4505c1dba43832ce73af8 = private unnamed_addr constant [52 x i8] c"there is no such thing as a release failure ordering", align 1
@alloc_b47c3c138db72df57440b698ce0de72b = private unnamed_addr constant <{ ptr, [8 x i8] }> <{ ptr @alloc_5a43f8d94dd4505c1dba43832ce73af8, [8 x i8] c"4\00\00\00\00\00\00\00" }>, align 8
@alloc_0a5709e9425a08b17803d539bffb2f09 = private unnamed_addr constant <{ ptr, [16 x i8] }> <{ ptr @alloc_2664cfd54d27b78eb70a73190eceb72a, [16 x i8] c"r\00\00\00\00\00\00\00\EC\0F\00\00\1D\00\00\00" }>, align 8
@alloc_7adef5546d83b439c7829602020737c6 = private unnamed_addr constant [61 x i8] c"there is no such thing as an acquire-release failure ordering", align 1
@alloc_4b7098fb0dbb3761358123ff7e9428b1 = private unnamed_addr constant <{ ptr, [8 x i8] }> <{ ptr @alloc_7adef5546d83b439c7829602020737c6, [8 x i8] c"=\00\00\00\00\00\00\00" }>, align 8
@alloc_f17744615fd77d64d56ef23c881bf12c = private unnamed_addr constant <{ ptr, [16 x i8] }> <{ ptr @alloc_2664cfd54d27b78eb70a73190eceb72a, [16 x i8] c"r\00\00\00\00\00\00\00\EB\0F\00\00\1C\00\00\00" }>, align 8
@alloc_4477689a373e3970b8033c6e73761af1 = private unnamed_addr constant <{ ptr, [16 x i8] }> <{ ptr @alloc_2664cfd54d27b78eb70a73190eceb72a, [16 x i8] c"r\00\00\00\00\00\00\00-\10\00\00\1D\00\00\00" }>, align 8
@alloc_5db1bb9fdd4eec1ac2eb7129fc240d46 = private unnamed_addr constant <{ ptr, [16 x i8] }> <{ ptr @alloc_2664cfd54d27b78eb70a73190eceb72a, [16 x i8] c"r\00\00\00\00\00\00\00,\10\00\00\1C\00\00\00" }>, align 8
@alloc_374c9df73b8540d3e9b0cfbfed1be08c = private unnamed_addr constant [25 x i8] c"overflow in Duration::new", align 1
@alloc_b1f31703b982ca51516367ee367c483d = private unnamed_addr constant [108 x i8] c"/home/user/.rustup/toolchains/stable-x86_64-unknown-linux-gnu/lib/rustlib/src/rust/library/core/src/time.rs\00", align 1
@alloc_ecc6c78d1b3e20e6cc12cd8f8d334271 = private unnamed_addr constant <{ ptr, [16 x i8] }> <{ ptr @alloc_b1f31703b982ca51516367ee367c483d, [16 x i8] c"k\00\00\00\00\00\00\00\C9\00\00\00\12\00\00\00" }>, align 8
@alloc_1be5ea12ba708d9a11b6e93a7d387a75 = private unnamed_addr constant [281 x i8] c"unsafe precondition(s) violated: Layout::from_size_align_unchecked requires that align is a power of 2 and the rounded-up allocation size does not exceed isize::MAX\0A\0AThis indicates a bug in the program. This Undefined Behavior check is optional, and cannot be relied on for safety.", align 1
@vtable.0 = private unnamed_addr constant <{ ptr, [16 x i8], ptr }> <{ ptr @"_ZN4core3ptr156drop_in_place$LT$std..sync..poison..PoisonError$LT$std..sync..poison..rwlock..RwLockWriteGuard$LT$$LP$aster_time..clocksource..Instant$C$u64$RP$$GT$$GT$$GT$17ha8a226ca09850fd3E", [16 x i8] c"\10\00\00\00\00\00\00\00\08\00\00\00\00\00\00\00", ptr @"_ZN76_$LT$std..sync..poison..PoisonError$LT$T$GT$$u20$as$u20$core..fmt..Debug$GT$3fmt17hf4872c818bbab9a3E" }>, align 8
@alloc_00ae4b301f7fab8ac9617c03fcbd7274 = private unnamed_addr constant [43 x i8] c"called `Result::unwrap()` on an `Err` value", align 1
@vtable.1 = private unnamed_addr constant <{ ptr, [16 x i8], ptr }> <{ ptr @"_ZN4core3ptr125drop_in_place$LT$std..sync..poison..PoisonError$LT$std..sync..poison..mutex..MutexGuard$LT$aster_time..SystemTime$GT$$GT$$GT$17h443ca5c0010acb8aE", [16 x i8] c"\10\00\00\00\00\00\00\00\08\00\00\00\00\00\00\00", ptr @"_ZN76_$LT$std..sync..poison..PoisonError$LT$T$GT$$u20$as$u20$core..fmt..Debug$GT$3fmt17h74d504338d05d43cE" }>, align 8
@vtable.2 = private unnamed_addr constant <{ ptr, [16 x i8], ptr }> <{ ptr @"_ZN4core3ptr155drop_in_place$LT$std..sync..poison..PoisonError$LT$std..sync..poison..rwlock..RwLockReadGuard$LT$$LP$aster_time..clocksource..Instant$C$u64$RP$$GT$$GT$$GT$17h600a060e33de95b5E", [16 x i8] c"\10\00\00\00\00\00\00\00\08\00\00\00\00\00\00\00", ptr @"_ZN76_$LT$std..sync..poison..PoisonError$LT$T$GT$$u20$as$u20$core..fmt..Debug$GT$3fmt17h7ba3b7b4d1949d56E" }>, align 8
@vtable.3 = private unnamed_addr constant <{ ptr, [16 x i8], ptr }> <{ ptr @"_ZN4core3ptr278drop_in_place$LT$std..sync..poison..PoisonError$LT$std..sync..poison..mutex..MutexGuard$LT$alloc..vec..Vec$LT$alloc..boxed..Box$LT$dyn$u20$core..ops..function..Fn$LT$$LP$$RP$$GT$$u2b$Output$u20$$u3d$$u20$$LP$$RP$$u2b$core..marker..Sync$u2b$core..marker..Send$GT$$GT$$GT$$GT$$GT$17he94139f03af93455E", [16 x i8] c"\10\00\00\00\00\00\00\00\08\00\00\00\00\00\00\00", ptr @"_ZN76_$LT$std..sync..poison..PoisonError$LT$T$GT$$u20$as$u20$core..fmt..Debug$GT$3fmt17h2727af8197261fbfE" }>, align 8
@_ZN4ostd5timer9CALLBACKS17ha350094ff4381b6dE = external global %"once_cell::sync::Lazy<std::sync::poison::mutex::Mutex<alloc::vec::Vec<alloc::boxed::Box<dyn core::ops::function::Fn() + core::marker::Send + core::marker::Sync>>>>"
@alloc_199bc9ee817158e8fab926b04f1978f3 = private unnamed_addr constant [50 x i8] c"/home/user/time_userland/crates/ostd/src/timer.rs\00", align 1
@alloc_11a0713770a2d29c3322723f9918c1f0 = private unnamed_addr constant <{ ptr, [16 x i8] }> <{ ptr @alloc_199bc9ee817158e8fab926b04f1978f3, [16 x i8] c"1\00\00\00\00\00\00\00\0C\00\00\00\14\00\00\00" }>, align 8
@vtable.4 = private unnamed_addr constant <{ [24 x i8], ptr, ptr, ptr }> <{ [24 x i8] c"\00\00\00\00\00\00\00\00\08\00\00\00\00\00\00\00\08\00\00\00\00\00\00\00", ptr @"_ZN4core3ops8function6FnOnce40call_once$u7b$$u7b$vtable.shim$u7d$$u7d$17h863b67d244b59dcfE", ptr @"_ZN10aster_time3tsc10init_timer28_$u7b$$u7b$closure$u7d$$u7d$17h5e914eb7f3b8df5fE", ptr @"_ZN10aster_time3tsc10init_timer28_$u7b$$u7b$closure$u7d$$u7d$17h5e914eb7f3b8df5fE" }>, align 8
@alloc_4a1cadd654e634b215da028f41e23f34 = private unnamed_addr constant <{ ptr, [16 x i8] }> <{ ptr @alloc_199bc9ee817158e8fab926b04f1978f3, [16 x i8] c"1\00\00\00\00\00\00\00\0C\00\00\00\1D\00\00\00" }>, align 8
@alloc_7c7c2d68976b3bb9d33f1e321a654c92 = private unnamed_addr constant [110 x i8] c"/home/user/.rustup/toolchains/stable-x86_64-unknown-linux-gnu/lib/rustlib/src/rust/library/alloc/src/alloc.rs\00", align 1
@alloc_e24d28343bb3254d030f2bfc7cb25d1f = private unnamed_addr constant <{ ptr, [16 x i8] }> <{ ptr @alloc_7c7c2d68976b3bb9d33f1e321a654c92, [16 x i8] c"m\00\00\00\00\00\00\00^\01\00\00\1B\00\00\00" }>, align 8
@alloc_0ba24a483f082dfb046603a61f9a5494 = private unnamed_addr constant [116 x i8] c"/home/user/.rustup/toolchains/stable-x86_64-unknown-linux-gnu/lib/rustlib/src/rust/library/core/src/ptr/non_null.rs\00", align 1
@alloc_e1dd287cb89f19bd04ff4af4eb11ef94 = private unnamed_addr constant <{ ptr, [16 x i8] }> <{ ptr @alloc_0ba24a483f082dfb046603a61f9a5494, [16 x i8] c"s\00\00\00\00\00\00\00l\05\00\00\12\00\00\00" }>, align 8
@alloc_72400afa39575c6f246fe5e2246c04f8 = private unnamed_addr constant <{ ptr, [16 x i8] }> <{ ptr @alloc_0ba24a483f082dfb046603a61f9a5494, [16 x i8] c"s\00\00\00\00\00\00\00\09\01\00\00\1B\00\00\00" }>, align 8
@"_ZN67_$LT$component..ComponentRegistry$u20$as$u20$inventory..Collect$GT$8registry8REGISTRY17h6a2cfcc2902fdc29E" = external global %"inventory::Registry"
@alloc_8b82773ec41f37e7256e9a334e9cb235 = private unnamed_addr constant [116 x i8] c"/home/user/.rustup/toolchains/stable-x86_64-unknown-linux-gnu/lib/rustlib/src/rust/library/core/src/alloc/layout.rs\00", align 1
@alloc_67966d1a505ae7d165e6d4531e7e8206 = private unnamed_addr constant <{ ptr, [16 x i8] }> <{ ptr @alloc_8b82773ec41f37e7256e9a334e9cb235, [16 x i8] c"s\00\00\00\00\00\00\00\E0\00\00\00\12\00\00\00" }>, align 8
@alloc_8e2410b80645266732854088d21653bc = private unnamed_addr constant [11 x i8] c"PoisonError", align 1
@vtable.5 = private unnamed_addr constant <{ [24 x i8], ptr, ptr }> <{ [24 x i8] c"\00\00\00\00\00\00\00\00\18\00\00\00\00\00\00\00\08\00\00\00\00\00\00\00", ptr @"_ZN4core3ops8function6FnOnce40call_once$u7b$$u7b$vtable.shim$u7d$$u7d$17hd07235f6d2941a02E", ptr @"_ZN9once_cell3imp17OnceCell$LT$T$GT$10initialize28_$u7b$$u7b$closure$u7d$$u7d$17h0ecd92458addee89E" }>, align 8
@vtable.6 = private unnamed_addr constant <{ [24 x i8], ptr, ptr }> <{ [24 x i8] c"\00\00\00\00\00\00\00\00\18\00\00\00\00\00\00\00\08\00\00\00\00\00\00\00", ptr @"_ZN4core3ops8function6FnOnce40call_once$u7b$$u7b$vtable.shim$u7d$$u7d$17hbc05b1e5504e682eE", ptr @"_ZN9once_cell3imp17OnceCell$LT$T$GT$10initialize28_$u7b$$u7b$closure$u7d$$u7d$17h11cf0451ae43d00dE" }>, align 8
@vtable.7 = private unnamed_addr constant <{ [24 x i8], ptr, ptr }> <{ [24 x i8] c"\00\00\00\00\00\00\00\00\18\00\00\00\00\00\00\00\08\00\00\00\00\00\00\00", ptr @"_ZN4core3ops8function6FnOnce40call_once$u7b$$u7b$vtable.shim$u7d$$u7d$17h4a580298cf35ede6E", ptr @"_ZN9once_cell3imp17OnceCell$LT$T$GT$10initialize28_$u7b$$u7b$closure$u7d$$u7d$17haef9a4bef144bd32E" }>, align 8
@vtable.8 = private unnamed_addr constant <{ [24 x i8], ptr, ptr }> <{ [24 x i8] c"\00\00\00\00\00\00\00\00\18\00\00\00\00\00\00\00\08\00\00\00\00\00\00\00", ptr @"_ZN4core3ops8function6FnOnce40call_once$u7b$$u7b$vtable.shim$u7d$$u7d$17hfb7af4e5590a6e59E", ptr @"_ZN9once_cell3imp17OnceCell$LT$T$GT$10initialize28_$u7b$$u7b$closure$u7d$$u7d$17h1699a288935087c8E" }>, align 8
@vtable.9 = private unnamed_addr constant <{ [24 x i8], ptr, ptr }> <{ [24 x i8] c"\00\00\00\00\00\00\00\00\18\00\00\00\00\00\00\00\08\00\00\00\00\00\00\00", ptr @"_ZN4core3ops8function6FnOnce40call_once$u7b$$u7b$vtable.shim$u7d$$u7d$17h8f7d597d44f86007E", ptr @"_ZN9once_cell3imp17OnceCell$LT$T$GT$10initialize28_$u7b$$u7b$closure$u7d$$u7d$17h2977d3b99eb009beE" }>, align 8
@alloc_e7155f9cf10893ab2e58393a6c5d3d17 = private unnamed_addr constant [42 x i8] c"Lazy instance has previously been poisoned", align 1
@alloc_5d385c76902a4a815bf5f8b3a2572c34 = private unnamed_addr constant <{ ptr, [8 x i8] }> <{ ptr @alloc_e7155f9cf10893ab2e58393a6c5d3d17, [8 x i8] c"*\00\00\00\00\00\00\00" }>, align 8
@alloc_df55478e5e10415fd065f2d5b1dc4bdc = private unnamed_addr constant [92 x i8] c"/home/user/.cargo/registry/src/index.crates.io-1949cf8c6b5b557f/once_cell-1.21.3/src/lib.rs\00", align 1
@alloc_906231a53f9a5f539d599e53a35a08e1 = private unnamed_addr constant <{ ptr, [16 x i8] }> <{ ptr @alloc_df55478e5e10415fd065f2d5b1dc4bdc, [16 x i8] c"[\00\00\00\00\00\00\00\1F\05\00\00\19\00\00\00" }>, align 8
@alloc_193cd2aeb9bb6160fa06bd1ac129e8c2 = private unnamed_addr constant [37 x i8] c"crates/aster-time/src/clocksource.rs\00", align 1
@alloc_435805a238a343573c8e8894c37c7ae5 = private unnamed_addr constant <{ ptr, [16 x i8] }> <{ ptr @alloc_193cd2aeb9bb6160fa06bd1ac129e8c2, [16 x i8] c"$\00\00\00\00\00\00\00\13\00\00\00;\00\00\00" }>, align 8
@alloc_43f8231eab93494e151782ff805936fb = private unnamed_addr constant <{ ptr, [16 x i8] }> <{ ptr @alloc_193cd2aeb9bb6160fa06bd1ac129e8c2, [16 x i8] c"$\00\00\00\00\00\00\00\18\00\00\00-\00\00\00" }>, align 8
@alloc_8a079e8406604b4c981b2968c725e82d = private unnamed_addr constant <{ ptr, [16 x i8] }> <{ ptr @alloc_193cd2aeb9bb6160fa06bd1ac129e8c2, [16 x i8] c"$\00\00\00\00\00\00\00\1B\00\00\00\18\00\00\00" }>, align 8
@alloc_df0c7ff666d136146bd1429aaab9440a = private unnamed_addr constant <{ ptr, [16 x i8] }> <{ ptr @alloc_193cd2aeb9bb6160fa06bd1ac129e8c2, [16 x i8] c"$\00\00\00\00\00\00\00!\00\00\00\16\00\00\00" }>, align 8
@alloc_c931211193cb31d20e2b6919b056c8bc = private unnamed_addr constant <{ ptr, [16 x i8] }> <{ ptr @alloc_193cd2aeb9bb6160fa06bd1ac129e8c2, [16 x i8] c"$\00\00\00\00\00\00\00$\00\00\00T\00\00\00" }>, align 8
@alloc_0087ce2de2c7fd51123f89ae7e7108ed = private unnamed_addr constant <{ ptr, [16 x i8] }> <{ ptr @alloc_193cd2aeb9bb6160fa06bd1ac129e8c2, [16 x i8] c"$\00\00\00\00\00\00\00&\00\00\00J\00\00\00" }>, align 8
@alloc_0f4dc652bab8607a21ad9d9f40de6299 = private unnamed_addr constant <{ ptr, [16 x i8] }> <{ ptr @alloc_193cd2aeb9bb6160fa06bd1ac129e8c2, [16 x i8] c"$\00\00\00\00\00\00\00?\00\00\00\14\00\00\00" }>, align 8
@alloc_cd7ff6191b7706bd28c2256422a41b0e = private unnamed_addr constant <{ ptr, [16 x i8] }> <{ ptr @alloc_193cd2aeb9bb6160fa06bd1ac129e8c2, [16 x i8] c"$\00\00\00\00\00\00\00@\00\00\00\15\00\00\00" }>, align 8
@alloc_aa807f81f7c8cfb6d9314b32a3ad7ecd = private unnamed_addr constant <{ ptr, [16 x i8] }> <{ ptr @alloc_193cd2aeb9bb6160fa06bd1ac129e8c2, [16 x i8] c"$\00\00\00\00\00\00\00A\00\00\00$\00\00\00" }>, align 8
@alloc_eeba4e550e611c6357b9a4d9d2581461 = private unnamed_addr constant <{ ptr, [16 x i8] }> <{ ptr @alloc_193cd2aeb9bb6160fa06bd1ac129e8c2, [16 x i8] c"$\00\00\00\00\00\00\00A\00\00\00/\00\00\00" }>, align 8
@vtable.a = private unnamed_addr constant <{ [24 x i8], ptr }> <{ [24 x i8] c"\00\00\00\00\00\00\00\00\00\00\00\00\00\00\00\00\01\00\00\00\00\00\00\00", ptr @"_ZN69_$LT$aster_time..rtc..DummyRtc$u20$as$u20$aster_time..rtc..Driver$GT$8read_rtc17h0c0aafdf6da70ba0E" }>, align 8
@_ZN10aster_time3tsc5CLOCK17h9129a94384ed89bfE = internal global [16 x i8] zeroinitializer, align 8
@_ZN10aster_time3tsc18TSC_UPDATE_COUNTER17h192c871b01a7746eE = internal global [8 x i8] c"\01\00\00\00\00\00\00\00", align 8
@vtable.b = private unnamed_addr constant <{ [24 x i8], ptr, ptr, ptr }> <{ [24 x i8] c"\00\00\00\00\00\00\00\00\00\00\00\00\00\00\00\00\01\00\00\00\00\00\00\00", ptr @"_ZN4core3ops8function6FnOnce40call_once$u7b$$u7b$vtable.shim$u7d$$u7d$17hbe37db54a435222aE", ptr @_ZN4core3ops8function5FnMut8call_mut17h5a7e3da8d47841f5E, ptr @_ZN4core3ops8function2Fn4call17h28e83b42f6ba259fE }>, align 8
@alloc_ab91f0dedc48f93a0d77472d32bfb71b = private unnamed_addr constant [29 x i8] c"crates/aster-time/src/tsc.rs\00", align 1
@alloc_a3bf6fb2a5195630a07060acc1bf275b = private unnamed_addr constant <{ ptr, [16 x i8] }> <{ ptr @alloc_ab91f0dedc48f93a0d77472d32bfb71b, [16 x i8] c"\1C\00\00\00\00\00\00\00\16\00\00\00\1B\00\00\00" }>, align 8
@alloc_fc589505a221099aa818787501024332 = private unnamed_addr constant <{ ptr, [16 x i8] }> <{ ptr @alloc_ab91f0dedc48f93a0d77472d32bfb71b, [16 x i8] c"\1C\00\00\00\00\00\00\00\1F\00\00\00\0F\00\00\00" }>, align 8
@alloc_8694680cf9fb3ebb6856e1b1536b95c8 = private unnamed_addr constant <{ ptr, [16 x i8] }> <{ ptr @alloc_ab91f0dedc48f93a0d77472d32bfb71b, [16 x i8] c"\1C\00\00\00\00\00\00\00#\00\00\00\1B\00\00\00" }>, align 8
@alloc_5c65bd9191398ebe5d41648c25f6ac33 = private unnamed_addr constant <{ ptr, [16 x i8] }> <{ ptr @alloc_ab91f0dedc48f93a0d77472d32bfb71b, [16 x i8] c"\1C\00\00\00\00\00\00\00,\00\00\00$\00\00\00" }>, align 8
@alloc_06b4ae65846a71595ff085362b4e13cb = private unnamed_addr constant <{ ptr, [16 x i8] }> <{ ptr @alloc_ab91f0dedc48f93a0d77472d32bfb71b, [16 x i8] c"\1C\00\00\00\00\00\00\00-\00\00\00\16\00\00\00" }>, align 8
@alloc_457073da691941af96fa96fdb29d3ec5 = private unnamed_addr constant <{ ptr, [16 x i8] }> <{ ptr @alloc_ab91f0dedc48f93a0d77472d32bfb71b, [16 x i8] c"\1C\00\00\00\00\00\00\000\00\00\00\08\00\00\00" }>, align 8
@_ZN10aster_time28VDSO_DATA_HIGH_RES_UPDATE_FN17h5b2624e08e82a989E = global <{ [8 x i8], [8 x i8], [8 x i8] }> <{ [8 x i8] zeroinitializer, [8 x i8] undef, [8 x i8] zeroinitializer }>, align 8
@_ZN10aster_time10RTC_DRIVER17h0c214a2b8cac7a3cE = internal global <{ [8 x i8], [8 x i8], [8 x i8] }> <{ [8 x i8] zeroinitializer, [8 x i8] undef, [8 x i8] zeroinitializer }>, align 8
@_ZN10aster_time9READ_TIME17hcf0d42ffffa70c64E = internal global <{ [8 x i8], [24 x i8], [8 x i8], ptr }> <{ [8 x i8] zeroinitializer, [24 x i8] undef, [8 x i8] zeroinitializer, ptr @_ZN4core3ops8function6FnOnce9call_once17hb9dc3a47a2c00736E }>, align 8
@_ZN10aster_time10START_TIME17h842ba588f5df7370E = internal global <{ [16 x i8], [16 x i8] }> <{ [16 x i8] zeroinitializer, [16 x i8] undef }>, align 8
@alloc_b946d8707b4402a3247024a054c9b2ab = private unnamed_addr constant [29 x i8] c"crates/aster-time/src/lib.rs\00", align 1
@alloc_cf5fdbeca23b59ee4e9a14e66c93af90 = private unnamed_addr constant <{ ptr, [16 x i8] }> <{ ptr @alloc_b946d8707b4402a3247024a054c9b2ab, [16 x i8] c"\1C\00\00\00\00\00\00\004\00\00\00\14\00\00\00" }>, align 8
@alloc_b116e72f6d4eb3d4960fce286c115ff4 = private unnamed_addr constant <{ ptr, [16 x i8] }> <{ ptr @alloc_b946d8707b4402a3247024a054c9b2ab, [16 x i8] c"\1C\00\00\00\00\00\00\008\00\00\00#\00\00\00" }>, align 8
@alloc_261e84808f15c20c9f65ebd6cdcf356f = private unnamed_addr constant <{ ptr, [16 x i8] }> <{ ptr @alloc_b946d8707b4402a3247024a054c9b2ab, [16 x i8] c"\1C\00\00\00\00\00\00\009\00\00\00\1C\00\00\00" }>, align 8
@alloc_e62c9f7471366b43a08fdc43224cde27 = private unnamed_addr constant <{ ptr, [16 x i8] }> <{ ptr @alloc_b946d8707b4402a3247024a054c9b2ab, [16 x i8] c"\1C\00\00\00\00\00\00\00=\00\00\00\22\00\00\00" }>, align 8
@alloc_026ea9caf29c2872f7b9370e473d28f2 = private unnamed_addr constant [39 x i8] c"[dfsan] read_start_time result label = ", align 1
@alloc_49a1e817e911805af64bbc7efb390101 = private unnamed_addr constant [1 x i8] c"\0A", align 1
@alloc_ee68b5376cc949858bdb2953a6947c30 = private unnamed_addr constant <{ ptr, [8 x i8], ptr, [8 x i8] }> <{ ptr @alloc_026ea9caf29c2872f7b9370e473d28f2, [8 x i8] c"'\00\00\00\00\00\00\00", ptr @alloc_49a1e817e911805af64bbc7efb390101, [8 x i8] c"\01\00\00\00\00\00\00\00" }>, align 8
@alloc_b0477c55ac811b6fbd681649d1aff318 = private unnamed_addr constant <{ ptr, [16 x i8] }> <{ ptr @alloc_b946d8707b4402a3247024a054c9b2ab, [16 x i8] c"\1C\00\00\00\00\00\00\00I\00\00\001\00\00\00" }>, align 8
@alloc_3dffa16f75eef235e5b80045690f4860 = private unnamed_addr constant <{ ptr, [16 x i8] }> <{ ptr @alloc_b946d8707b4402a3247024a054c9b2ab, [16 x i8] c"\1C\00\00\00\00\00\00\00M\00\00\00\14\00\00\00" }>, align 8
@alloc_858d30de17d278a83298fc56832d9a54 = private unnamed_addr constant <{ ptr, [16 x i8] }> <{ ptr @alloc_b946d8707b4402a3247024a054c9b2ab, [16 x i8] c"\1C\00\00\00\00\00\00\00\16\00\00\00\0D\00\00\00" }>, align 8
@anon.8907c793926939c1a3db336f022d0871.1 = private unnamed_addr constant <{ [24 x i8], ptr, ptr, ptr }> <{ [24 x i8] c"\00\00\00\00\00\00\00\00\00\00\00\00\00\00\00\00\01\00\00\00\00\00\00\00", ptr @"_ZN4core3ops8function6FnOnce40call_once$u7b$$u7b$vtable.shim$u7d$$u7d$17hd6a2679e85a103f7E", ptr @_ZN4core3ops8function5FnMut8call_mut17hb6b567a75fa3108fE, ptr @_ZN4core3ops8function2Fn4call17h736985aa31143530E }>, align 8
@alloc_2b08b109ac7d25e6511e7082f023d285 = private unnamed_addr constant [28 x i8] c"crates/aster-time/src/lib.rs", align 1
@alloc_58d58e96c07ebd577f94679a65c36699 = private unnamed_addr constant <{ ptr, ptr, ptr, [8 x i8] }> <{ ptr inttoptr (i64 1 to ptr), ptr @anon.8907c793926939c1a3db336f022d0871.1, ptr @alloc_2b08b109ac7d25e6511e7082f023d285, [8 x i8] c"\1C\00\00\00\00\00\00\00" }>, align 8
@anon.8907c793926939c1a3db336f022d0871.2 = private unnamed_addr constant <{ [24 x i8], ptr }> <{ [24 x i8] c"\00\00\00\00\00\00\00\00 \00\00\00\00\00\00\00\08\00\00\00\00\00\00\00", ptr @"_ZN43_$LT$T$u20$as$u20$inventory..ErasedNode$GT$6submit17hc973b6a456e32ad4E" }>, align 8
@_ZN10aster_time1_11__INVENTORY17h49c64fca4a34b11bE = internal global <{ ptr, ptr, [8 x i8] }> <{ ptr @alloc_58d58e96c07ebd577f94679a65c36699, ptr @anon.8907c793926939c1a3db336f022d0871.2, [8 x i8] zeroinitializer }>, align 8
@llvm.used = appending global [1 x ptr] [ptr @_ZN10aster_time1_6__CTOR17h59f2ff3f8359d1bcE], section "llvm.metadata"
@"_ZN153_$LT$core..result..Result$LT$T$C$F$GT$$u20$as$u20$core..ops..try_trait..FromResidual$LT$core..result..Result$LT$core..convert..Infallible$C$E$GT$$GT$$GT$13from_residual17h9c305c172a1fea90E.str" = private constant [195 x i8] c"_ZN153_$LT$core..result..Result$LT$T$C$F$GT$$u20$as$u20$core..ops..try_trait..FromResidual$LT$core..result..Result$LT$core..convert..Infallible$C$E$GT$$GT$$GT$13from_residual17h9c305c172a1fea90E\00"
@_ZN3std3sys4sync6rwlock5futex6RwLock4read17h4637ff57848efbb6E.str = private constant [62 x i8] c"_ZN3std3sys4sync6rwlock5futex6RwLock4read17h4637ff57848efbb6E\00"
@_ZN3std4sync6poison10map_result17h2e56805eb16aed47E.str = private constant [52 x i8] c"_ZN3std4sync6poison10map_result17h2e56805eb16aed47E\00"
@_ZN3std4sync6poison10map_result17h3041f3c23929b9afE.str = private constant [52 x i8] c"_ZN3std4sync6poison10map_result17h3041f3c23929b9afE\00"
@_ZN3std4sync6poison10map_result17h42bcca65e8fc2f9fE.str = private constant [52 x i8] c"_ZN3std4sync6poison10map_result17h42bcca65e8fc2f9fE\00"
@_ZN3std4sync6poison10map_result17hdfc069f0ced61faaE.str = private constant [52 x i8] c"_ZN3std4sync6poison10map_result17hdfc069f0ced61faaE\00"
@_ZN3std4sync6poison4Flag4done17hfee0218769e7ea2bE.str = private constant [50 x i8] c"_ZN3std4sync6poison4Flag4done17hfee0218769e7ea2bE\00"
@_ZN3std4sync6poison4Flag5guard17ha40114775bf8d8a9E.str = private constant [51 x i8] c"_ZN3std4sync6poison4Flag5guard17ha40114775bf8d8a9E\00"
@"_ZN3std4sync6poison5mutex14Mutex$LT$T$GT$3new17hed049ba32d0de8e7E.str" = private constant [66 x i8] c"_ZN3std4sync6poison5mutex14Mutex$LT$T$GT$3new17hed049ba32d0de8e7E\00"
@"_ZN3std4sync6poison5mutex14Mutex$LT$T$GT$4lock17h1fd9ea97d365d6aeE.str" = private constant [67 x i8] c"_ZN3std4sync6poison5mutex14Mutex$LT$T$GT$4lock17h1fd9ea97d365d6aeE\00"
@"_ZN3std4sync6poison5mutex14Mutex$LT$T$GT$4lock17h3f3b2a3201cadbc5E.str" = private constant [67 x i8] c"_ZN3std4sync6poison5mutex14Mutex$LT$T$GT$4lock17h3f3b2a3201cadbc5E\00"
@"_ZN3std4sync6poison5mutex19MutexGuard$LT$T$GT$3new28_$u7b$$u7b$closure$u7d$$u7d$17h1b0366b49dcdc3eaE.str" = private constant [101 x i8] c"_ZN3std4sync6poison5mutex19MutexGuard$LT$T$GT$3new28_$u7b$$u7b$closure$u7d$$u7d$17h1b0366b49dcdc3eaE\00"
@"_ZN3std4sync6poison5mutex19MutexGuard$LT$T$GT$3new28_$u7b$$u7b$closure$u7d$$u7d$17hb14636ae5e4789ecE.str" = private constant [101 x i8] c"_ZN3std4sync6poison5mutex19MutexGuard$LT$T$GT$3new28_$u7b$$u7b$closure$u7d$$u7d$17hb14636ae5e4789ecE\00"
@"_ZN3std4sync6poison6rwlock15RwLock$LT$T$GT$3new17h9c0f00f10853202bE.str" = private constant [68 x i8] c"_ZN3std4sync6poison6rwlock15RwLock$LT$T$GT$3new17h9c0f00f10853202bE\00"
@"_ZN3std4sync6poison6rwlock15RwLock$LT$T$GT$4read17hacf890e92ff74b9bE.str" = private constant [69 x i8] c"_ZN3std4sync6poison6rwlock15RwLock$LT$T$GT$4read17hacf890e92ff74b9bE\00"
@"_ZN3std4sync6poison6rwlock15RwLock$LT$T$GT$5write17h892aa683d4931543E.str" = private constant [70 x i8] c"_ZN3std4sync6poison6rwlock15RwLock$LT$T$GT$5write17h892aa683d4931543E\00"
@"_ZN3std4sync6poison6rwlock24RwLockReadGuard$LT$T$GT$3new17hdc4afbfa7e112118E.str" = private constant [77 x i8] c"_ZN3std4sync6poison6rwlock24RwLockReadGuard$LT$T$GT$3new17hdc4afbfa7e112118E\00"
@"_ZN3std4sync6poison6rwlock24RwLockReadGuard$LT$T$GT$3new28_$u7b$$u7b$closure$u7d$$u7d$17h40e8e5495417ea92E.str" = private constant [107 x i8] c"_ZN3std4sync6poison6rwlock24RwLockReadGuard$LT$T$GT$3new28_$u7b$$u7b$closure$u7d$$u7d$17h40e8e5495417ea92E\00"
@"_ZN3std4sync6poison6rwlock25RwLockWriteGuard$LT$T$GT$3new28_$u7b$$u7b$closure$u7d$$u7d$17he59cd5555e62833aE.str" = private constant [108 x i8] c"_ZN3std4sync6poison6rwlock25RwLockWriteGuard$LT$T$GT$3new28_$u7b$$u7b$closure$u7d$$u7d$17he59cd5555e62833aE\00"
@"_ZN43_$LT$T$u20$as$u20$inventory..ErasedNode$GT$6submit17hc973b6a456e32ad4E.str" = private constant [76 x i8] c"_ZN43_$LT$T$u20$as$u20$inventory..ErasedNode$GT$6submit17hc973b6a456e32ad4E\00"
@"_ZN44_$LT$T$u20$as$u20$alloc..borrow..ToOwned$GT$8to_owned17h57a83f4c90b9add9E.str" = private constant [79 x i8] c"_ZN44_$LT$T$u20$as$u20$alloc..borrow..ToOwned$GT$8to_owned17h57a83f4c90b9add9E\00"
@"_ZN48_$LT$$RF$A$u20$as$u20$core..alloc..Allocator$GT$10deallocate17h42060844d6956627E.str" = private constant [86 x i8] c"_ZN48_$LT$$RF$A$u20$as$u20$core..alloc..Allocator$GT$10deallocate17h42060844d6956627E\00"
@_ZN4core10intrinsics9cold_path17h0464e1329d233765E.str = private constant [51 x i8] c"_ZN4core10intrinsics9cold_path17h0464e1329d233765E\00"
@_ZN4core3cmp3Ord3max17h4b62dcad4371fe7dE.str = private constant [41 x i8] c"_ZN4core3cmp3Ord3max17h4b62dcad4371fe7dE\00"
@_ZN4core3cmp3max17h6bfb774328b471faE.str = private constant [37 x i8] c"_ZN4core3cmp3max17h6bfb774328b471faE\00"
@"_ZN4core3fmt2rt38_$LT$impl$u20$core..fmt..Arguments$GT$6new_v117hce1705bf7ef10a39E.str" = private constant [83 x i8] c"_ZN4core3fmt2rt38_$LT$impl$u20$core..fmt..Arguments$GT$6new_v117hce1705bf7ef10a39E\00"
@_ZN4core3fmt2rt8Argument11new_display17h99bb27d3de477121E.str = private constant [58 x i8] c"_ZN4core3fmt2rt8Argument11new_display17h99bb27d3de477121E\00"
@_ZN4core3ops8function2Fn4call17h28e83b42f6ba259fE.str = private constant [50 x i8] c"_ZN4core3ops8function2Fn4call17h28e83b42f6ba259fE\00"
@_ZN4core3ops8function2Fn4call17h736985aa31143530E.str = private constant [50 x i8] c"_ZN4core3ops8function2Fn4call17h736985aa31143530E\00"
@_ZN4core3ops8function5FnMut8call_mut17h5a7e3da8d47841f5E.str = private constant [57 x i8] c"_ZN4core3ops8function5FnMut8call_mut17h5a7e3da8d47841f5E\00"
@_ZN4core3ops8function5FnMut8call_mut17hb6b567a75fa3108fE.str = private constant [57 x i8] c"_ZN4core3ops8function5FnMut8call_mut17hb6b567a75fa3108fE\00"
@"_ZN4core3ops8function6FnOnce40call_once$u7b$$u7b$vtable.shim$u7d$$u7d$17h4a580298cf35ede6E.str" = private constant [91 x i8] c"_ZN4core3ops8function6FnOnce40call_once$u7b$$u7b$vtable.shim$u7d$$u7d$17h4a580298cf35ede6E\00"
@"_ZN4core3ops8function6FnOnce40call_once$u7b$$u7b$vtable.shim$u7d$$u7d$17h863b67d244b59dcfE.str" = private constant [91 x i8] c"_ZN4core3ops8function6FnOnce40call_once$u7b$$u7b$vtable.shim$u7d$$u7d$17h863b67d244b59dcfE\00"
@"_ZN4core3ops8function6FnOnce40call_once$u7b$$u7b$vtable.shim$u7d$$u7d$17h8f7d597d44f86007E.str" = private constant [91 x i8] c"_ZN4core3ops8function6FnOnce40call_once$u7b$$u7b$vtable.shim$u7d$$u7d$17h8f7d597d44f86007E\00"
@"_ZN4core3ops8function6FnOnce40call_once$u7b$$u7b$vtable.shim$u7d$$u7d$17hbc05b1e5504e682eE.str" = private constant [91 x i8] c"_ZN4core3ops8function6FnOnce40call_once$u7b$$u7b$vtable.shim$u7d$$u7d$17hbc05b1e5504e682eE\00"
@"_ZN4core3ops8function6FnOnce40call_once$u7b$$u7b$vtable.shim$u7d$$u7d$17hbe37db54a435222aE.str" = private constant [91 x i8] c"_ZN4core3ops8function6FnOnce40call_once$u7b$$u7b$vtable.shim$u7d$$u7d$17hbe37db54a435222aE\00"
@"_ZN4core3ops8function6FnOnce40call_once$u7b$$u7b$vtable.shim$u7d$$u7d$17hd07235f6d2941a02E.str" = private constant [91 x i8] c"_ZN4core3ops8function6FnOnce40call_once$u7b$$u7b$vtable.shim$u7d$$u7d$17hd07235f6d2941a02E\00"
@"_ZN4core3ops8function6FnOnce40call_once$u7b$$u7b$vtable.shim$u7d$$u7d$17hd6a2679e85a103f7E.str" = private constant [91 x i8] c"_ZN4core3ops8function6FnOnce40call_once$u7b$$u7b$vtable.shim$u7d$$u7d$17hd6a2679e85a103f7E\00"
@"_ZN4core3ops8function6FnOnce40call_once$u7b$$u7b$vtable.shim$u7d$$u7d$17hfb7af4e5590a6e59E.str" = private constant [91 x i8] c"_ZN4core3ops8function6FnOnce40call_once$u7b$$u7b$vtable.shim$u7d$$u7d$17hfb7af4e5590a6e59E\00"
@_ZN4core3ops8function6FnOnce9call_once17h0177c0564c8f8b79E.str = private constant [59 x i8] c"_ZN4core3ops8function6FnOnce9call_once17h0177c0564c8f8b79E\00"
@_ZN4core3ops8function6FnOnce9call_once17h273edc36b40e1429E.str = private constant [59 x i8] c"_ZN4core3ops8function6FnOnce9call_once17h273edc36b40e1429E\00"
@_ZN4core3ops8function6FnOnce9call_once17h3542da31ad3c2ccfE.str = private constant [59 x i8] c"_ZN4core3ops8function6FnOnce9call_once17h3542da31ad3c2ccfE\00"
@_ZN4core3ops8function6FnOnce9call_once17h4412d4096261f4d1E.str = private constant [59 x i8] c"_ZN4core3ops8function6FnOnce9call_once17h4412d4096261f4d1E\00"
@_ZN4core3ops8function6FnOnce9call_once17h5db841c9a5a52937E.str = private constant [59 x i8] c"_ZN4core3ops8function6FnOnce9call_once17h5db841c9a5a52937E\00"
@_ZN4core3ops8function6FnOnce9call_once17h6f55a92772cd446fE.str = private constant [59 x i8] c"_ZN4core3ops8function6FnOnce9call_once17h6f55a92772cd446fE\00"
@_ZN4core3ops8function6FnOnce9call_once17h772a4b0000cec9d6E.str = private constant [59 x i8] c"_ZN4core3ops8function6FnOnce9call_once17h772a4b0000cec9d6E\00"
@_ZN4core3ops8function6FnOnce9call_once17h82f845d0f8636531E.str = private constant [59 x i8] c"_ZN4core3ops8function6FnOnce9call_once17h82f845d0f8636531E\00"
@_ZN4core3ops8function6FnOnce9call_once17hb9dc3a47a2c00736E.str = private constant [59 x i8] c"_ZN4core3ops8function6FnOnce9call_once17hb9dc3a47a2c00736E\00"
@_ZN4core3ops8function6FnOnce9call_once17he2f98169eb6da2d9E.str = private constant [59 x i8] c"_ZN4core3ops8function6FnOnce9call_once17he2f98169eb6da2d9E\00"
@_ZN4core3ops8function6FnOnce9call_once17hf46a6687b29fe872E.str = private constant [59 x i8] c"_ZN4core3ops8function6FnOnce9call_once17hf46a6687b29fe872E\00"
@"_ZN4core3ptr109drop_in_place$LT$alloc..sync..Weak$LT$aster_time..clocksource..ClockSource$C$$RF$alloc..alloc..Global$GT$$GT$17hb42e9c4174166ad0E.str" = private constant [145 x i8] c"_ZN4core3ptr109drop_in_place$LT$alloc..sync..Weak$LT$aster_time..clocksource..ClockSource$C$$RF$alloc..alloc..Global$GT$$GT$17hb42e9c4174166ad0E\00"
@"_ZN4core3ptr109drop_in_place$LT$core..option..Option$LT$alloc..sync..Arc$LT$aster_time..clocksource..ClockSource$GT$$GT$$GT$17ha88843ef026fc947E.str" = private constant [145 x i8] c"_ZN4core3ptr109drop_in_place$LT$core..option..Option$LT$alloc..sync..Arc$LT$aster_time..clocksource..ClockSource$GT$$GT$$GT$17ha88843ef026fc947E\00"
@"_ZN4core3ptr113drop_in_place$LT$once_cell..imp..OnceCell$LT$alloc..sync..Arc$LT$aster_time..clocksource..ClockSource$GT$$GT$$GT$17h330d7d959219513cE.str" = private constant [149 x i8] c"_ZN4core3ptr113drop_in_place$LT$once_cell..imp..OnceCell$LT$alloc..sync..Arc$LT$aster_time..clocksource..ClockSource$GT$$GT$$GT$17h330d7d959219513cE\00"
@"_ZN4core3ptr114drop_in_place$LT$once_cell..sync..OnceCell$LT$alloc..sync..Arc$LT$aster_time..clocksource..ClockSource$GT$$GT$$GT$17h8183dc57a1a043bbE.str" = private constant [150 x i8] c"_ZN4core3ptr114drop_in_place$LT$once_cell..sync..OnceCell$LT$alloc..sync..Arc$LT$aster_time..clocksource..ClockSource$GT$$GT$$GT$17h8183dc57a1a043bbE\00"
@"_ZN4core3ptr117drop_in_place$LT$std..sync..poison..rwlock..RwLockReadGuard$LT$$LP$aster_time..clocksource..Instant$C$u64$RP$$GT$$GT$17hf5290549b930dd75E.str" = private constant [153 x i8] c"_ZN4core3ptr117drop_in_place$LT$std..sync..poison..rwlock..RwLockReadGuard$LT$$LP$aster_time..clocksource..Instant$C$u64$RP$$GT$$GT$17hf5290549b930dd75E\00"
@"_ZN4core3ptr118drop_in_place$LT$std..sync..poison..rwlock..RwLockWriteGuard$LT$$LP$aster_time..clocksource..Instant$C$u64$RP$$GT$$GT$17h64556d87d109189eE.str" = private constant [154 x i8] c"_ZN4core3ptr118drop_in_place$LT$std..sync..poison..rwlock..RwLockWriteGuard$LT$$LP$aster_time..clocksource..Instant$C$u64$RP$$GT$$GT$17h64556d87d109189eE\00"
@"_ZN4core3ptr120drop_in_place$LT$core..result..Result$LT$$LP$$RP$$C$alloc..sync..Arc$LT$aster_time..clocksource..ClockSource$GT$$GT$$GT$17hd437d95d0d0d06f0E.str" = private constant [156 x i8] c"_ZN4core3ptr120drop_in_place$LT$core..result..Result$LT$$LP$$RP$$C$alloc..sync..Arc$LT$aster_time..clocksource..ClockSource$GT$$GT$$GT$17hd437d95d0d0d06f0E\00"
@"_ZN4core3ptr122drop_in_place$LT$alloc..sync..Arc$LT$dyn$u20$aster_time..rtc..Driver$u2b$core..marker..Sync$u2b$core..marker..Send$GT$$GT$17h406ae3aeb70dce9aE.str" = private constant [158 x i8] c"_ZN4core3ptr122drop_in_place$LT$alloc..sync..Arc$LT$dyn$u20$aster_time..rtc..Driver$u2b$core..marker..Sync$u2b$core..marker..Send$GT$$GT$17h406ae3aeb70dce9aE\00"
@"_ZN4core3ptr125drop_in_place$LT$std..sync..poison..PoisonError$LT$std..sync..poison..mutex..MutexGuard$LT$aster_time..SystemTime$GT$$GT$$GT$17h443ca5c0010acb8aE.str" = private constant [161 x i8] c"_ZN4core3ptr125drop_in_place$LT$std..sync..poison..PoisonError$LT$std..sync..poison..mutex..MutexGuard$LT$aster_time..SystemTime$GT$$GT$$GT$17h443ca5c0010acb8aE\00"
@"_ZN4core3ptr139drop_in_place$LT$core..cell..UnsafeCell$LT$core..option..Option$LT$alloc..sync..Arc$LT$aster_time..clocksource..ClockSource$GT$$GT$$GT$$GT$17hcc969b07b7dafe71E.str" = private constant [175 x i8] c"_ZN4core3ptr139drop_in_place$LT$core..cell..UnsafeCell$LT$core..option..Option$LT$alloc..sync..Arc$LT$aster_time..clocksource..ClockSource$GT$$GT$$GT$$GT$17hcc969b07b7dafe71E\00"
@"_ZN4core3ptr143drop_in_place$LT$dyn$u20$core..ops..function..Fn$LT$$LP$$RP$$GT$$u2b$Output$u20$$u3d$$u20$u64$u2b$core..marker..Sync$u2b$core..marker..Send$GT$17haca21a73954520b2E.str" = private constant [179 x i8] c"_ZN4core3ptr143drop_in_place$LT$dyn$u20$core..ops..function..Fn$LT$$LP$$RP$$GT$$u2b$Output$u20$$u3d$$u20$u64$u2b$core..marker..Sync$u2b$core..marker..Send$GT$17haca21a73954520b2E\00"
@"_ZN4core3ptr148drop_in_place$LT$dyn$u20$core..ops..function..Fn$LT$$LP$$RP$$GT$$u2b$Output$u20$$u3d$$u20$$LP$$RP$$u2b$core..marker..Sync$u2b$core..marker..Send$GT$17h2b5c1f5753e57e53E.str" = private constant [184 x i8] c"_ZN4core3ptr148drop_in_place$LT$dyn$u20$core..ops..function..Fn$LT$$LP$$RP$$GT$$u2b$Output$u20$$u3d$$u20$$LP$$RP$$u2b$core..marker..Sync$u2b$core..marker..Send$GT$17h2b5c1f5753e57e53E\00"
@"_ZN4core3ptr150drop_in_place$LT$alloc..sync..Weak$LT$dyn$u20$aster_time..rtc..Driver$u2b$core..marker..Sync$u2b$core..marker..Send$C$$RF$alloc..alloc..Global$GT$$GT$17h45a71b9519543c65E.str" = private constant [186 x i8] c"_ZN4core3ptr150drop_in_place$LT$alloc..sync..Weak$LT$dyn$u20$aster_time..rtc..Driver$u2b$core..marker..Sync$u2b$core..marker..Send$C$$RF$alloc..alloc..Global$GT$$GT$17h45a71b9519543c65E\00"
@"_ZN4core3ptr150drop_in_place$LT$core..option..Option$LT$alloc..sync..Arc$LT$dyn$u20$aster_time..rtc..Driver$u2b$core..marker..Sync$u2b$core..marker..Send$GT$$GT$$GT$17h7a38b2fcb2d39fbcE.str" = private constant [186 x i8] c"_ZN4core3ptr150drop_in_place$LT$core..option..Option$LT$alloc..sync..Arc$LT$dyn$u20$aster_time..rtc..Driver$u2b$core..marker..Sync$u2b$core..marker..Send$GT$$GT$$GT$17h7a38b2fcb2d39fbcE\00"
@"_ZN4core3ptr154drop_in_place$LT$once_cell..imp..OnceCell$LT$alloc..sync..Arc$LT$dyn$u20$aster_time..rtc..Driver$u2b$core..marker..Sync$u2b$core..marker..Send$GT$$GT$$GT$17he5a320495ddcd043E.str" = private constant [190 x i8] c"_ZN4core3ptr154drop_in_place$LT$once_cell..imp..OnceCell$LT$alloc..sync..Arc$LT$dyn$u20$aster_time..rtc..Driver$u2b$core..marker..Sync$u2b$core..marker..Send$GT$$GT$$GT$17he5a320495ddcd043E\00"
@"_ZN4core3ptr155drop_in_place$LT$once_cell..sync..OnceCell$LT$alloc..sync..Arc$LT$dyn$u20$aster_time..rtc..Driver$u2b$core..marker..Sync$u2b$core..marker..Send$GT$$GT$$GT$17h66bcd94681ef3518E.str" = private constant [191 x i8] c"_ZN4core3ptr155drop_in_place$LT$once_cell..sync..OnceCell$LT$alloc..sync..Arc$LT$dyn$u20$aster_time..rtc..Driver$u2b$core..marker..Sync$u2b$core..marker..Send$GT$$GT$$GT$17h66bcd94681ef3518E\00"
@"_ZN4core3ptr155drop_in_place$LT$std..sync..poison..PoisonError$LT$std..sync..poison..rwlock..RwLockReadGuard$LT$$LP$aster_time..clocksource..Instant$C$u64$RP$$GT$$GT$$GT$17h600a060e33de95b5E.str" = private constant [191 x i8] c"_ZN4core3ptr155drop_in_place$LT$std..sync..poison..PoisonError$LT$std..sync..poison..rwlock..RwLockReadGuard$LT$$LP$aster_time..clocksource..Instant$C$u64$RP$$GT$$GT$$GT$17h600a060e33de95b5E\00"
@"_ZN4core3ptr156drop_in_place$LT$std..sync..poison..PoisonError$LT$std..sync..poison..rwlock..RwLockWriteGuard$LT$$LP$aster_time..clocksource..Instant$C$u64$RP$$GT$$GT$$GT$17ha8a226ca09850fd3E.str" = private constant [192 x i8] c"_ZN4core3ptr156drop_in_place$LT$std..sync..poison..PoisonError$LT$std..sync..poison..rwlock..RwLockWriteGuard$LT$$LP$aster_time..clocksource..Instant$C$u64$RP$$GT$$GT$$GT$17ha8a226ca09850fd3E\00"
@"_ZN4core3ptr161drop_in_place$LT$core..result..Result$LT$$LP$$RP$$C$alloc..sync..Arc$LT$dyn$u20$aster_time..rtc..Driver$u2b$core..marker..Sync$u2b$core..marker..Send$GT$$GT$$GT$17h1119a2272331ad89E.str" = private constant [197 x i8] c"_ZN4core3ptr161drop_in_place$LT$core..result..Result$LT$$LP$$RP$$C$alloc..sync..Arc$LT$dyn$u20$aster_time..rtc..Driver$u2b$core..marker..Sync$u2b$core..marker..Send$GT$$GT$$GT$17h1119a2272331ad89E\00"
@"_ZN4core3ptr167drop_in_place$LT$alloc..sync..Arc$LT$dyn$u20$core..ops..function..Fn$LT$$LP$$RP$$GT$$u2b$Output$u20$$u3d$$u20$u64$u2b$core..marker..Sync$u2b$core..marker..Send$GT$$GT$17h3c314fcaaf62bb70E.str" = private constant [203 x i8] c"_ZN4core3ptr167drop_in_place$LT$alloc..sync..Arc$LT$dyn$u20$core..ops..function..Fn$LT$$LP$$RP$$GT$$u2b$Output$u20$$u3d$$u20$u64$u2b$core..marker..Sync$u2b$core..marker..Send$GT$$GT$17h3c314fcaaf62bb70E\00"
@"_ZN4core3ptr173drop_in_place$LT$alloc..boxed..Box$LT$dyn$u20$core..ops..function..Fn$LT$$LP$$RP$$GT$$u2b$Output$u20$$u3d$$u20$$LP$$RP$$u2b$core..marker..Sync$u2b$core..marker..Send$GT$$GT$17h6925c0b5ec1f58bcE.str" = private constant [209 x i8] c"_ZN4core3ptr173drop_in_place$LT$alloc..boxed..Box$LT$dyn$u20$core..ops..function..Fn$LT$$LP$$RP$$GT$$u2b$Output$u20$$u3d$$u20$$LP$$RP$$u2b$core..marker..Sync$u2b$core..marker..Send$GT$$GT$17h6925c0b5ec1f58bcE\00"
@"_ZN4core3ptr180drop_in_place$LT$core..cell..UnsafeCell$LT$core..option..Option$LT$alloc..sync..Arc$LT$dyn$u20$aster_time..rtc..Driver$u2b$core..marker..Sync$u2b$core..marker..Send$GT$$GT$$GT$$GT$17h86fb989091654561E.str" = private constant [216 x i8] c"_ZN4core3ptr180drop_in_place$LT$core..cell..UnsafeCell$LT$core..option..Option$LT$alloc..sync..Arc$LT$dyn$u20$aster_time..rtc..Driver$u2b$core..marker..Sync$u2b$core..marker..Send$GT$$GT$$GT$$GT$17h86fb989091654561E\00"
@"_ZN4core3ptr183drop_in_place$LT$$u5b$alloc..boxed..Box$LT$dyn$u20$core..ops..function..Fn$LT$$LP$$RP$$GT$$u2b$Output$u20$$u3d$$u20$$LP$$RP$$u2b$core..marker..Sync$u2b$core..marker..Send$GT$$u5d$$GT$17h6dc6feb13d6fc875E.str" = private constant [219 x i8] c"_ZN4core3ptr183drop_in_place$LT$$u5b$alloc..boxed..Box$LT$dyn$u20$core..ops..function..Fn$LT$$LP$$RP$$GT$$u2b$Output$u20$$u3d$$u20$$LP$$RP$$u2b$core..marker..Sync$u2b$core..marker..Send$GT$$u5d$$GT$17h6dc6feb13d6fc875E\00"
@"_ZN4core3ptr186drop_in_place$LT$dyn$u20$core..ops..function..Fn$LT$$LP$aster_time..clocksource..Instant$C$u64$RP$$GT$$u2b$Output$u20$$u3d$$u20$$LP$$RP$$u2b$core..marker..Sync$u2b$core..marker..Send$GT$17h49a83eadd7f67f81E.str" = private constant [222 x i8] c"_ZN4core3ptr186drop_in_place$LT$dyn$u20$core..ops..function..Fn$LT$$LP$aster_time..clocksource..Instant$C$u64$RP$$GT$$u2b$Output$u20$$u3d$$u20$$LP$$RP$$u2b$core..marker..Sync$u2b$core..marker..Send$GT$17h49a83eadd7f67f81E\00"
@"_ZN4core3ptr195drop_in_place$LT$alloc..sync..Weak$LT$dyn$u20$core..ops..function..Fn$LT$$LP$$RP$$GT$$u2b$Output$u20$$u3d$$u20$u64$u2b$core..marker..Sync$u2b$core..marker..Send$C$$RF$alloc..alloc..Global$GT$$GT$17hc1f8354caaecd952E.str" = private constant [231 x i8] c"_ZN4core3ptr195drop_in_place$LT$alloc..sync..Weak$LT$dyn$u20$core..ops..function..Fn$LT$$LP$$RP$$GT$$u2b$Output$u20$$u3d$$u20$u64$u2b$core..marker..Sync$u2b$core..marker..Send$C$$RF$alloc..alloc..Global$GT$$GT$17hc1f8354caaecd952E\00"
@"_ZN4core3ptr196drop_in_place$LT$alloc..vec..Vec$LT$alloc..boxed..Box$LT$dyn$u20$core..ops..function..Fn$LT$$LP$$RP$$GT$$u2b$Output$u20$$u3d$$u20$$LP$$RP$$u2b$core..marker..Sync$u2b$core..marker..Send$GT$$GT$$GT$17h12e954cce4cc2d5aE.str" = private constant [232 x i8] c"_ZN4core3ptr196drop_in_place$LT$alloc..vec..Vec$LT$alloc..boxed..Box$LT$dyn$u20$core..ops..function..Fn$LT$$LP$$RP$$GT$$u2b$Output$u20$$u3d$$u20$$LP$$RP$$u2b$core..marker..Sync$u2b$core..marker..Send$GT$$GT$$GT$17h12e954cce4cc2d5aE\00"
@"_ZN4core3ptr203drop_in_place$LT$alloc..raw_vec..RawVec$LT$alloc..boxed..Box$LT$dyn$u20$core..ops..function..Fn$LT$$LP$$RP$$GT$$u2b$Output$u20$$u3d$$u20$$LP$$RP$$u2b$core..marker..Sync$u2b$core..marker..Send$GT$$GT$$GT$17h5460509f8920413dE.str" = private constant [239 x i8] c"_ZN4core3ptr203drop_in_place$LT$alloc..raw_vec..RawVec$LT$alloc..boxed..Box$LT$dyn$u20$core..ops..function..Fn$LT$$LP$$RP$$GT$$u2b$Output$u20$$u3d$$u20$$LP$$RP$$u2b$core..marker..Sync$u2b$core..marker..Send$GT$$GT$$GT$17h5460509f8920413dE\00"
@"_ZN4core3ptr210drop_in_place$LT$alloc..sync..Arc$LT$dyn$u20$core..ops..function..Fn$LT$$LP$aster_time..clocksource..Instant$C$u64$RP$$GT$$u2b$Output$u20$$u3d$$u20$$LP$$RP$$u2b$core..marker..Sync$u2b$core..marker..Send$GT$$GT$17h1badb9c884dce31cE.str" = private constant [246 x i8] c"_ZN4core3ptr210drop_in_place$LT$alloc..sync..Arc$LT$dyn$u20$core..ops..function..Fn$LT$$LP$aster_time..clocksource..Instant$C$u64$RP$$GT$$u2b$Output$u20$$u3d$$u20$$LP$$RP$$u2b$core..marker..Sync$u2b$core..marker..Send$GT$$GT$17h1badb9c884dce31cE\00"
@"_ZN4core3ptr226drop_in_place$LT$core..cell..UnsafeCell$LT$alloc..vec..Vec$LT$alloc..boxed..Box$LT$dyn$u20$core..ops..function..Fn$LT$$LP$$RP$$GT$$u2b$Output$u20$$u3d$$u20$$LP$$RP$$u2b$core..marker..Sync$u2b$core..marker..Send$GT$$GT$$GT$$GT$17h7c7bdd61757ec8eeE.str" = private constant [262 x i8] c"_ZN4core3ptr226drop_in_place$LT$core..cell..UnsafeCell$LT$alloc..vec..Vec$LT$alloc..boxed..Box$LT$dyn$u20$core..ops..function..Fn$LT$$LP$$RP$$GT$$u2b$Output$u20$$u3d$$u20$$LP$$RP$$u2b$core..marker..Sync$u2b$core..marker..Send$GT$$GT$$GT$$GT$17h7c7bdd61757ec8eeE\00"
@"_ZN4core3ptr235drop_in_place$LT$std..sync..poison..mutex..Mutex$LT$alloc..vec..Vec$LT$alloc..boxed..Box$LT$dyn$u20$core..ops..function..Fn$LT$$LP$$RP$$GT$$u2b$Output$u20$$u3d$$u20$$LP$$RP$$u2b$core..marker..Sync$u2b$core..marker..Send$GT$$GT$$GT$$GT$17h896eb36f57e7d9d6E.str" = private constant [271 x i8] c"_ZN4core3ptr235drop_in_place$LT$std..sync..poison..mutex..Mutex$LT$alloc..vec..Vec$LT$alloc..boxed..Box$LT$dyn$u20$core..ops..function..Fn$LT$$LP$$RP$$GT$$u2b$Output$u20$$u3d$$u20$$LP$$RP$$u2b$core..marker..Sync$u2b$core..marker..Send$GT$$GT$$GT$$GT$17h896eb36f57e7d9d6E\00"
@"_ZN4core3ptr238drop_in_place$LT$alloc..sync..Weak$LT$dyn$u20$core..ops..function..Fn$LT$$LP$aster_time..clocksource..Instant$C$u64$RP$$GT$$u2b$Output$u20$$u3d$$u20$$LP$$RP$$u2b$core..marker..Sync$u2b$core..marker..Send$C$$RF$alloc..alloc..Global$GT$$GT$17h7672900556b493ceE.str" = private constant [274 x i8] c"_ZN4core3ptr238drop_in_place$LT$alloc..sync..Weak$LT$dyn$u20$core..ops..function..Fn$LT$$LP$aster_time..clocksource..Instant$C$u64$RP$$GT$$u2b$Output$u20$$u3d$$u20$$LP$$RP$$u2b$core..marker..Sync$u2b$core..marker..Send$C$$RF$alloc..alloc..Global$GT$$GT$17h7672900556b493ceE\00"
@"_ZN4core3ptr238drop_in_place$LT$core..option..Option$LT$alloc..sync..Arc$LT$dyn$u20$core..ops..function..Fn$LT$$LP$aster_time..clocksource..Instant$C$u64$RP$$GT$$u2b$Output$u20$$u3d$$u20$$LP$$RP$$u2b$core..marker..Sync$u2b$core..marker..Send$GT$$GT$$GT$17h6ae5157314cbe500E.str" = private constant [274 x i8] c"_ZN4core3ptr238drop_in_place$LT$core..option..Option$LT$alloc..sync..Arc$LT$dyn$u20$core..ops..function..Fn$LT$$LP$aster_time..clocksource..Instant$C$u64$RP$$GT$$u2b$Output$u20$$u3d$$u20$$LP$$RP$$u2b$core..marker..Sync$u2b$core..marker..Send$GT$$GT$$GT$17h6ae5157314cbe500E\00"
@"_ZN4core3ptr240drop_in_place$LT$std..sync..poison..mutex..MutexGuard$LT$alloc..vec..Vec$LT$alloc..boxed..Box$LT$dyn$u20$core..ops..function..Fn$LT$$LP$$RP$$GT$$u2b$Output$u20$$u3d$$u20$$LP$$RP$$u2b$core..marker..Sync$u2b$core..marker..Send$GT$$GT$$GT$$GT$17h3786e0ae408e850bE.str" = private constant [276 x i8] c"_ZN4core3ptr240drop_in_place$LT$std..sync..poison..mutex..MutexGuard$LT$alloc..vec..Vec$LT$alloc..boxed..Box$LT$dyn$u20$core..ops..function..Fn$LT$$LP$$RP$$GT$$u2b$Output$u20$$u3d$$u20$$LP$$RP$$u2b$core..marker..Sync$u2b$core..marker..Send$GT$$GT$$GT$$GT$17h3786e0ae408e850bE\00"
@"_ZN4core3ptr242drop_in_place$LT$once_cell..imp..OnceCell$LT$alloc..sync..Arc$LT$dyn$u20$core..ops..function..Fn$LT$$LP$aster_time..clocksource..Instant$C$u64$RP$$GT$$u2b$Output$u20$$u3d$$u20$$LP$$RP$$u2b$core..marker..Sync$u2b$core..marker..Send$GT$$GT$$GT$17h477d6e9474e7574eE.str" = private constant [278 x i8] c"_ZN4core3ptr242drop_in_place$LT$once_cell..imp..OnceCell$LT$alloc..sync..Arc$LT$dyn$u20$core..ops..function..Fn$LT$$LP$aster_time..clocksource..Instant$C$u64$RP$$GT$$u2b$Output$u20$$u3d$$u20$$LP$$RP$$u2b$core..marker..Sync$u2b$core..marker..Send$GT$$GT$$GT$17h477d6e9474e7574eE\00"
@"_ZN4core3ptr243drop_in_place$LT$once_cell..sync..OnceCell$LT$alloc..sync..Arc$LT$dyn$u20$core..ops..function..Fn$LT$$LP$aster_time..clocksource..Instant$C$u64$RP$$GT$$u2b$Output$u20$$u3d$$u20$$LP$$RP$$u2b$core..marker..Sync$u2b$core..marker..Send$GT$$GT$$GT$17h0ca53a74147ca2d5E.str" = private constant [279 x i8] c"_ZN4core3ptr243drop_in_place$LT$once_cell..sync..OnceCell$LT$alloc..sync..Arc$LT$dyn$u20$core..ops..function..Fn$LT$$LP$aster_time..clocksource..Instant$C$u64$RP$$GT$$u2b$Output$u20$$u3d$$u20$$LP$$RP$$u2b$core..marker..Sync$u2b$core..marker..Send$GT$$GT$$GT$17h0ca53a74147ca2d5E\00"
@"_ZN4core3ptr263drop_in_place$LT$core..option..Option$LT$std..sync..poison..mutex..Mutex$LT$alloc..vec..Vec$LT$alloc..boxed..Box$LT$dyn$u20$core..ops..function..Fn$LT$$LP$$RP$$GT$$u2b$Output$u20$$u3d$$u20$$LP$$RP$$u2b$core..marker..Sync$u2b$core..marker..Send$GT$$GT$$GT$$GT$$GT$17had6ae7ba0928268dE.str" = private constant [299 x i8] c"_ZN4core3ptr263drop_in_place$LT$core..option..Option$LT$std..sync..poison..mutex..Mutex$LT$alloc..vec..Vec$LT$alloc..boxed..Box$LT$dyn$u20$core..ops..function..Fn$LT$$LP$$RP$$GT$$u2b$Output$u20$$u3d$$u20$$LP$$RP$$u2b$core..marker..Sync$u2b$core..marker..Send$GT$$GT$$GT$$GT$$GT$17had6ae7ba0928268dE\00"
@"_ZN4core3ptr268drop_in_place$LT$core..cell..UnsafeCell$LT$core..option..Option$LT$alloc..sync..Arc$LT$dyn$u20$core..ops..function..Fn$LT$$LP$aster_time..clocksource..Instant$C$u64$RP$$GT$$u2b$Output$u20$$u3d$$u20$$LP$$RP$$u2b$core..marker..Sync$u2b$core..marker..Send$GT$$GT$$GT$$GT$17h520f0225c7c9ab17E.str" = private constant [304 x i8] c"_ZN4core3ptr268drop_in_place$LT$core..cell..UnsafeCell$LT$core..option..Option$LT$alloc..sync..Arc$LT$dyn$u20$core..ops..function..Fn$LT$$LP$aster_time..clocksource..Instant$C$u64$RP$$GT$$u2b$Output$u20$$u3d$$u20$$LP$$RP$$u2b$core..marker..Sync$u2b$core..marker..Send$GT$$GT$$GT$$GT$17h520f0225c7c9ab17E\00"
@"_ZN4core3ptr278drop_in_place$LT$std..sync..poison..PoisonError$LT$std..sync..poison..mutex..MutexGuard$LT$alloc..vec..Vec$LT$alloc..boxed..Box$LT$dyn$u20$core..ops..function..Fn$LT$$LP$$RP$$GT$$u2b$Output$u20$$u3d$$u20$$LP$$RP$$u2b$core..marker..Sync$u2b$core..marker..Send$GT$$GT$$GT$$GT$$GT$17he94139f03af93455E.str" = private constant [314 x i8] c"_ZN4core3ptr278drop_in_place$LT$std..sync..poison..PoisonError$LT$std..sync..poison..mutex..MutexGuard$LT$alloc..vec..Vec$LT$alloc..boxed..Box$LT$dyn$u20$core..ops..function..Fn$LT$$LP$$RP$$GT$$u2b$Output$u20$$u3d$$u20$$LP$$RP$$u2b$core..marker..Sync$u2b$core..marker..Send$GT$$GT$$GT$$GT$$GT$17he94139f03af93455E\00"
@"_ZN4core3ptr57drop_in_place$LT$aster_time..clocksource..ClockSource$GT$17ha750b08edb8d3056E.str" = private constant [92 x i8] c"_ZN4core3ptr57drop_in_place$LT$aster_time..clocksource..ClockSource$GT$17ha750b08edb8d3056E\00"
@"_ZN4core3ptr81drop_in_place$LT$alloc..sync..Arc$LT$aster_time..clocksource..ClockSource$GT$$GT$17he5d3a60ef7deee52E.str" = private constant [116 x i8] c"_ZN4core3ptr81drop_in_place$LT$alloc..sync..Arc$LT$aster_time..clocksource..ClockSource$GT$$GT$17he5d3a60ef7deee52E\00"
@"_ZN4core3ptr86drop_in_place$LT$alloc..sync..ArcInner$LT$aster_time..clocksource..ClockSource$GT$$GT$17hd7ecb5e811adedb6E.str" = private constant [121 x i8] c"_ZN4core3ptr86drop_in_place$LT$alloc..sync..ArcInner$LT$aster_time..clocksource..ClockSource$GT$$GT$17hd7ecb5e811adedb6E\00"
@"_ZN4core3ptr87drop_in_place$LT$std..sync..poison..mutex..MutexGuard$LT$aster_time..SystemTime$GT$$GT$17h4c37ef9fda9c10edE.str" = private constant [122 x i8] c"_ZN4core3ptr87drop_in_place$LT$std..sync..poison..mutex..MutexGuard$LT$aster_time..SystemTime$GT$$GT$17h4c37ef9fda9c10edE\00"
@"_ZN4core3ptr8non_null16NonNull$LT$T$GT$13new_unchecked18precondition_check17h1908d8c30a2aab75E.str" = private constant [95 x i8] c"_ZN4core3ptr8non_null16NonNull$LT$T$GT$13new_unchecked18precondition_check17h1908d8c30a2aab75E\00"
@"_ZN4core3ptr98drop_in_place$LT$dyn$u20$aster_time..rtc..Driver$u2b$core..marker..Sync$u2b$core..marker..Send$GT$17h1d9569381df1e557E.str" = private constant [133 x i8] c"_ZN4core3ptr98drop_in_place$LT$dyn$u20$aster_time..rtc..Driver$u2b$core..marker..Sync$u2b$core..marker..Send$GT$17h1d9569381df1e557E\00"
@_ZN4core4sync6atomic11atomic_load17h1308712063b9c2a8E.str = private constant [54 x i8] c"_ZN4core4sync6atomic11atomic_load17h1308712063b9c2a8E\00"
@_ZN4core4sync6atomic11atomic_load17h3216bb0246ff1b34E.str = private constant [54 x i8] c"_ZN4core4sync6atomic11atomic_load17h3216bb0246ff1b34E\00"
@_ZN4core4sync6atomic11atomic_load17hbf52c7da49f67ed9E.str = private constant [54 x i8] c"_ZN4core4sync6atomic11atomic_load17hbf52c7da49f67ed9E\00"
@_ZN4core4sync6atomic11atomic_load17he8828ea078801ea3E.str = private constant [54 x i8] c"_ZN4core4sync6atomic11atomic_load17he8828ea078801ea3E\00"
@_ZN4core4sync6atomic12atomic_store17h846185b9baa0691cE.str = private constant [55 x i8] c"_ZN4core4sync6atomic12atomic_store17h846185b9baa0691cE\00"
@_ZN4core4sync6atomic23atomic_compare_exchange17h9fe39060f238dc35E.str = private constant [66 x i8] c"_ZN4core4sync6atomic23atomic_compare_exchange17h9fe39060f238dc35E\00"
@_ZN4core4sync6atomic28atomic_compare_exchange_weak17h4c07a82ba058abb3E.str = private constant [71 x i8] c"_ZN4core4sync6atomic28atomic_compare_exchange_weak17h4c07a82ba058abb3E\00"
@_ZN4core4sync6atomic9AtomicU649fetch_add17h8ac1fc7a481d62e2E.str = private constant [61 x i8] c"_ZN4core4sync6atomic9AtomicU649fetch_add17h8ac1fc7a481d62e2E\00"
@_ZN4core4time8Duration10from_nanos17h85cf66175b72ee01E.str = private constant [55 x i8] c"_ZN4core4time8Duration10from_nanos17h85cf66175b72ee01E\00"
@_ZN4core4time8Duration12subsec_nanos17h80ae9f2104e9684dE.str = private constant [57 x i8] c"_ZN4core4time8Duration12subsec_nanos17h80ae9f2104e9684dE\00"
@_ZN4core4time8Duration3new17h1088d0620b7e2801E.str = private constant [47 x i8] c"_ZN4core4time8Duration3new17h1088d0620b7e2801E\00"
@_ZN4core4time8Duration7as_secs17heae564d0364a4ac5E.str = private constant [51 x i8] c"_ZN4core4time8Duration7as_secs17heae564d0364a4ac5E\00"
@_ZN4core5alloc6layout6Layout25from_size_align_unchecked18precondition_check17h7e03dcbef42f732eE.str = private constant [96 x i8] c"_ZN4core5alloc6layout6Layout25from_size_align_unchecked18precondition_check17h7e03dcbef42f732eE\00"
@"_ZN4core6option15Option$LT$T$GT$5ok_or17hb3eb49e29da2c65eE.str" = private constant [59 x i8] c"_ZN4core6option15Option$LT$T$GT$5ok_or17hb3eb49e29da2c65eE\00"
@"_ZN4core6result19Result$LT$T$C$E$GT$2ok17h1e9f1f5bc0477936E.str" = private constant [60 x i8] c"_ZN4core6result19Result$LT$T$C$E$GT$2ok17h1e9f1f5bc0477936E\00"
@"_ZN4core6result19Result$LT$T$C$E$GT$2ok17hb084185ea8474257E.str" = private constant [60 x i8] c"_ZN4core6result19Result$LT$T$C$E$GT$2ok17hb084185ea8474257E\00"
@_ZN4ostd4arch8tsc_freq17h3c5308d12d215eddE.str = private constant [43 x i8] c"_ZN4ostd4arch8tsc_freq17h3c5308d12d215eddE\00"
@_ZN4ostd5timer17register_callback17h92dfe422c28b8327E.str = private constant [54 x i8] c"_ZN4ostd5timer17register_callback17h92dfe422c28b8327E\00"
@"_ZN50_$LT$T$u20$as$u20$core..convert..Into$LT$U$GT$$GT$4into17hda548150511a3ad6E.str" = private constant [81 x i8] c"_ZN50_$LT$T$u20$as$u20$core..convert..Into$LT$U$GT$$GT$4into17hda548150511a3ad6E\00"
@"_ZN59_$LT$alloc..alloc..Global$u20$as$u20$core..clone..Clone$GT$5clone17h25da221c5d2606bfE.str" = private constant [91 x i8] c"_ZN59_$LT$alloc..alloc..Global$u20$as$u20$core..clone..Clone$GT$5clone17h25da221c5d2606bfE\00"
@"_ZN5alloc3vec16Vec$LT$T$C$A$GT$8push_mut17h5aa3a83bfea666f2E.str" = private constant [61 x i8] c"_ZN5alloc3vec16Vec$LT$T$C$A$GT$8push_mut17h5aa3a83bfea666f2E\00"
@"_ZN5alloc4sync12Arc$LT$T$GT$3new17h007b91c2c4ba41e7E.str" = private constant [53 x i8] c"_ZN5alloc4sync12Arc$LT$T$GT$3new17h007b91c2c4ba41e7E\00"
@"_ZN5alloc4sync12Arc$LT$T$GT$3new17h523a2bdb50e52766E.str" = private constant [53 x i8] c"_ZN5alloc4sync12Arc$LT$T$GT$3new17h523a2bdb50e52766E\00"
@"_ZN5alloc4sync12Arc$LT$T$GT$3new17h5857b4d8eec8a7bbE.str" = private constant [53 x i8] c"_ZN5alloc4sync12Arc$LT$T$GT$3new17h5857b4d8eec8a7bbE\00"
@"_ZN5alloc4sync16Arc$LT$T$C$A$GT$9drop_slow17h4486d9b3b802710aE.str" = private constant [63 x i8] c"_ZN5alloc4sync16Arc$LT$T$C$A$GT$9drop_slow17h4486d9b3b802710aE\00"
@"_ZN5alloc4sync16Arc$LT$T$C$A$GT$9drop_slow17h6c98c74ce709d7a5E.str" = private constant [63 x i8] c"_ZN5alloc4sync16Arc$LT$T$C$A$GT$9drop_slow17h6c98c74ce709d7a5E\00"
@"_ZN5alloc4sync16Arc$LT$T$C$A$GT$9drop_slow17h7d4d0fd8f138debaE.str" = private constant [63 x i8] c"_ZN5alloc4sync16Arc$LT$T$C$A$GT$9drop_slow17h7d4d0fd8f138debaE\00"
@"_ZN5alloc4sync16Arc$LT$T$C$A$GT$9drop_slow17h832cfec15c56ca72E.str" = private constant [63 x i8] c"_ZN5alloc4sync16Arc$LT$T$C$A$GT$9drop_slow17h832cfec15c56ca72E\00"
@_ZN5alloc5alloc15exchange_malloc17ha0abca8c0b4245f7E.str = private constant [53 x i8] c"_ZN5alloc5alloc15exchange_malloc17ha0abca8c0b4245f7E\00"
@_ZN5alloc5alloc6Global10alloc_impl17hceade766dacaded6E.str = private constant [55 x i8] c"_ZN5alloc5alloc6Global10alloc_impl17hceade766dacaded6E\00"
@"_ZN5alloc7raw_vec19RawVec$LT$T$C$A$GT$8grow_one17h3c106c615f36fb6eE.str" = private constant [68 x i8] c"_ZN5alloc7raw_vec19RawVec$LT$T$C$A$GT$8grow_one17h3c106c615f36fb6eE\00"
@"_ZN63_$LT$alloc..alloc..Global$u20$as$u20$core..alloc..Allocator$GT$10deallocate17h060cb63953f482c4E.str" = private constant [101 x i8] c"_ZN63_$LT$alloc..alloc..Global$u20$as$u20$core..alloc..Allocator$GT$10deallocate17h060cb63953f482c4E\00"
@"_ZN67_$LT$component..ComponentRegistry$u20$as$u20$inventory..Collect$GT$8registry17h2f8b3429c1d8b15fE.str" = private constant [102 x i8] c"_ZN67_$LT$component..ComponentRegistry$u20$as$u20$inventory..Collect$GT$8registry17h2f8b3429c1d8b15fE\00"
@"_ZN68_$LT$alloc..sync..Arc$LT$T$C$A$GT$$u20$as$u20$core..clone..Clone$GT$5clone17h852003e77677c08eE.str" = private constant [100 x i8] c"_ZN68_$LT$alloc..sync..Arc$LT$T$C$A$GT$$u20$as$u20$core..clone..Clone$GT$5clone17h852003e77677c08eE\00"
@"_ZN70_$LT$alloc..vec..Vec$LT$T$C$A$GT$$u20$as$u20$core..ops..drop..Drop$GT$4drop17he01c9728bd3e8c40E.str" = private constant [101 x i8] c"_ZN70_$LT$alloc..vec..Vec$LT$T$C$A$GT$$u20$as$u20$core..ops..drop..Drop$GT$4drop17he01c9728bd3e8c40E\00"
@"_ZN71_$LT$alloc..sync..Arc$LT$T$C$A$GT$$u20$as$u20$core..ops..drop..Drop$GT$4drop17h1393a4d03876e953E.str" = private constant [102 x i8] c"_ZN71_$LT$alloc..sync..Arc$LT$T$C$A$GT$$u20$as$u20$core..ops..drop..Drop$GT$4drop17h1393a4d03876e953E\00"
@"_ZN71_$LT$alloc..sync..Arc$LT$T$C$A$GT$$u20$as$u20$core..ops..drop..Drop$GT$4drop17h695f3e7a076ec1f6E.str" = private constant [102 x i8] c"_ZN71_$LT$alloc..sync..Arc$LT$T$C$A$GT$$u20$as$u20$core..ops..drop..Drop$GT$4drop17h695f3e7a076ec1f6E\00"
@"_ZN71_$LT$alloc..sync..Arc$LT$T$C$A$GT$$u20$as$u20$core..ops..drop..Drop$GT$4drop17h892cbd92b18d7cb8E.str" = private constant [102 x i8] c"_ZN71_$LT$alloc..sync..Arc$LT$T$C$A$GT$$u20$as$u20$core..ops..drop..Drop$GT$4drop17h892cbd92b18d7cb8E\00"
@"_ZN71_$LT$alloc..sync..Arc$LT$T$C$A$GT$$u20$as$u20$core..ops..drop..Drop$GT$4drop17hf3de727eb26419f1E.str" = private constant [102 x i8] c"_ZN71_$LT$alloc..sync..Arc$LT$T$C$A$GT$$u20$as$u20$core..ops..drop..Drop$GT$4drop17hf3de727eb26419f1E\00"
@"_ZN72_$LT$alloc..boxed..Box$LT$T$C$A$GT$$u20$as$u20$core..ops..drop..Drop$GT$4drop17h9b27be5a452bb17eE.str" = private constant [103 x i8] c"_ZN72_$LT$alloc..boxed..Box$LT$T$C$A$GT$$u20$as$u20$core..ops..drop..Drop$GT$4drop17h9b27be5a452bb17eE\00"
@"_ZN72_$LT$alloc..sync..Weak$LT$T$C$A$GT$$u20$as$u20$core..ops..drop..Drop$GT$4drop17h149935c2f3862f65E.str" = private constant [103 x i8] c"_ZN72_$LT$alloc..sync..Weak$LT$T$C$A$GT$$u20$as$u20$core..ops..drop..Drop$GT$4drop17h149935c2f3862f65E\00"
@"_ZN72_$LT$alloc..sync..Weak$LT$T$C$A$GT$$u20$as$u20$core..ops..drop..Drop$GT$4drop17h6089d27cd0f33867E.str" = private constant [103 x i8] c"_ZN72_$LT$alloc..sync..Weak$LT$T$C$A$GT$$u20$as$u20$core..ops..drop..Drop$GT$4drop17h6089d27cd0f33867E\00"
@"_ZN72_$LT$alloc..sync..Weak$LT$T$C$A$GT$$u20$as$u20$core..ops..drop..Drop$GT$4drop17hc92285d11a5aa218E.str" = private constant [103 x i8] c"_ZN72_$LT$alloc..sync..Weak$LT$T$C$A$GT$$u20$as$u20$core..ops..drop..Drop$GT$4drop17hc92285d11a5aa218E\00"
@"_ZN72_$LT$alloc..sync..Weak$LT$T$C$A$GT$$u20$as$u20$core..ops..drop..Drop$GT$4drop17hf68775bb6003a36dE.str" = private constant [103 x i8] c"_ZN72_$LT$alloc..sync..Weak$LT$T$C$A$GT$$u20$as$u20$core..ops..drop..Drop$GT$4drop17hf68775bb6003a36dE\00"
@"_ZN73_$LT$alloc..sync..Arc$LT$T$C$A$GT$$u20$as$u20$core..ops..deref..Deref$GT$5deref17h09c4fe1c411c344dE.str" = private constant [105 x i8] c"_ZN73_$LT$alloc..sync..Arc$LT$T$C$A$GT$$u20$as$u20$core..ops..deref..Deref$GT$5deref17h09c4fe1c411c344dE\00"
@"_ZN73_$LT$alloc..sync..Arc$LT$T$C$A$GT$$u20$as$u20$core..ops..deref..Deref$GT$5deref17h548b388c8b776f52E.str" = private constant [105 x i8] c"_ZN73_$LT$alloc..sync..Arc$LT$T$C$A$GT$$u20$as$u20$core..ops..deref..Deref$GT$5deref17h548b388c8b776f52E\00"
@"_ZN73_$LT$alloc..sync..Arc$LT$T$C$A$GT$$u20$as$u20$core..ops..deref..Deref$GT$5deref17hd9be75a8ad4126aeE.str" = private constant [105 x i8] c"_ZN73_$LT$alloc..sync..Arc$LT$T$C$A$GT$$u20$as$u20$core..ops..deref..Deref$GT$5deref17hd9be75a8ad4126aeE\00"
@"_ZN73_$LT$alloc..sync..Arc$LT$T$C$A$GT$$u20$as$u20$core..ops..deref..Deref$GT$5deref17hf07f92eaf6b69acaE.str" = private constant [105 x i8] c"_ZN73_$LT$alloc..sync..Arc$LT$T$C$A$GT$$u20$as$u20$core..ops..deref..Deref$GT$5deref17hf07f92eaf6b69acaE\00"
@"_ZN76_$LT$std..sync..poison..PoisonError$LT$T$GT$$u20$as$u20$core..fmt..Debug$GT$3fmt17h2727af8197261fbfE.str" = private constant [106 x i8] c"_ZN76_$LT$std..sync..poison..PoisonError$LT$T$GT$$u20$as$u20$core..fmt..Debug$GT$3fmt17h2727af8197261fbfE\00"
@"_ZN76_$LT$std..sync..poison..PoisonError$LT$T$GT$$u20$as$u20$core..fmt..Debug$GT$3fmt17h74d504338d05d43cE.str" = private constant [106 x i8] c"_ZN76_$LT$std..sync..poison..PoisonError$LT$T$GT$$u20$as$u20$core..fmt..Debug$GT$3fmt17h74d504338d05d43cE\00"
@"_ZN76_$LT$std..sync..poison..PoisonError$LT$T$GT$$u20$as$u20$core..fmt..Debug$GT$3fmt17h7ba3b7b4d1949d56E.str" = private constant [106 x i8] c"_ZN76_$LT$std..sync..poison..PoisonError$LT$T$GT$$u20$as$u20$core..fmt..Debug$GT$3fmt17h7ba3b7b4d1949d56E\00"
@"_ZN76_$LT$std..sync..poison..PoisonError$LT$T$GT$$u20$as$u20$core..fmt..Debug$GT$3fmt17hf4872c818bbab9a3E.str" = private constant [106 x i8] c"_ZN76_$LT$std..sync..poison..PoisonError$LT$T$GT$$u20$as$u20$core..fmt..Debug$GT$3fmt17hf4872c818bbab9a3E\00"
@"_ZN77_$LT$alloc..raw_vec..RawVec$LT$T$C$A$GT$$u20$as$u20$core..ops..drop..Drop$GT$4drop17h3b94d4ea417df33eE.str" = private constant [108 x i8] c"_ZN77_$LT$alloc..raw_vec..RawVec$LT$T$C$A$GT$$u20$as$u20$core..ops..drop..Drop$GT$4drop17h3b94d4ea417df33eE\00"
@"_ZN77_$LT$aster_util..coeff..Coeff$u20$as$u20$core..ops..arith..Mul$LT$u64$GT$$GT$3mul17hc4bd4ab1d67210b9E.str" = private constant [107 x i8] c"_ZN77_$LT$aster_util..coeff..Coeff$u20$as$u20$core..ops..arith..Mul$LT$u64$GT$$GT$3mul17hc4bd4ab1d67210b9E\00"
@"_ZN78_$LT$once_cell..sync..Lazy$LT$T$C$F$GT$$u20$as$u20$core..ops..deref..Deref$GT$5deref17h14ddee1610f7a59bE.str" = private constant [110 x i8] c"_ZN78_$LT$once_cell..sync..Lazy$LT$T$C$F$GT$$u20$as$u20$core..ops..deref..Deref$GT$5deref17h14ddee1610f7a59bE\00"
@"_ZN79_$LT$core..result..Result$LT$T$C$E$GT$$u20$as$u20$core..ops..try_trait..Try$GT$6branch17hbfc5f221af5fa606E.str" = private constant [112 x i8] c"_ZN79_$LT$core..result..Result$LT$T$C$E$GT$$u20$as$u20$core..ops..try_trait..Try$GT$6branch17hbfc5f221af5fa606E\00"
@"_ZN87_$LT$std..sync..poison..mutex..MutexGuard$LT$T$GT$$u20$as$u20$core..ops..drop..Drop$GT$4drop17h353b3d3511ba1550E.str" = private constant [118 x i8] c"_ZN87_$LT$std..sync..poison..mutex..MutexGuard$LT$T$GT$$u20$as$u20$core..ops..drop..Drop$GT$4drop17h353b3d3511ba1550E\00"
@"_ZN87_$LT$std..sync..poison..mutex..MutexGuard$LT$T$GT$$u20$as$u20$core..ops..drop..Drop$GT$4drop17h37e0be677f6ec4e7E.str" = private constant [118 x i8] c"_ZN87_$LT$std..sync..poison..mutex..MutexGuard$LT$T$GT$$u20$as$u20$core..ops..drop..Drop$GT$4drop17h37e0be677f6ec4e7E\00"
@"_ZN89_$LT$std..sync..poison..mutex..MutexGuard$LT$T$GT$$u20$as$u20$core..ops..deref..Deref$GT$5deref17h5210b2830b21a360E.str" = private constant [121 x i8] c"_ZN89_$LT$std..sync..poison..mutex..MutexGuard$LT$T$GT$$u20$as$u20$core..ops..deref..Deref$GT$5deref17h5210b2830b21a360E\00"
@"_ZN92_$LT$std..sync..poison..mutex..MutexGuard$LT$T$GT$$u20$as$u20$core..ops..deref..DerefMut$GT$9deref_mut17hbe2fdf5be3a87bd6E.str" = private constant [128 x i8] c"_ZN92_$LT$std..sync..poison..mutex..MutexGuard$LT$T$GT$$u20$as$u20$core..ops..deref..DerefMut$GT$9deref_mut17hbe2fdf5be3a87bd6E\00"
@"_ZN93_$LT$std..sync..poison..rwlock..RwLockReadGuard$LT$T$GT$$u20$as$u20$core..ops..drop..Drop$GT$4drop17hfb1b2826c2108a56E.str" = private constant [124 x i8] c"_ZN93_$LT$std..sync..poison..rwlock..RwLockReadGuard$LT$T$GT$$u20$as$u20$core..ops..drop..Drop$GT$4drop17hfb1b2826c2108a56E\00"
@"_ZN94_$LT$std..sync..poison..rwlock..RwLockWriteGuard$LT$T$GT$$u20$as$u20$core..ops..drop..Drop$GT$4drop17he2bc804f352b4fb2E.str" = private constant [125 x i8] c"_ZN94_$LT$std..sync..poison..rwlock..RwLockWriteGuard$LT$T$GT$$u20$as$u20$core..ops..drop..Drop$GT$4drop17he2bc804f352b4fb2E\00"
@"_ZN95_$LT$std..sync..poison..rwlock..RwLockReadGuard$LT$T$GT$$u20$as$u20$core..ops..deref..Deref$GT$5deref17ha0d72a1fc7b008efE.str" = private constant [127 x i8] c"_ZN95_$LT$std..sync..poison..rwlock..RwLockReadGuard$LT$T$GT$$u20$as$u20$core..ops..deref..Deref$GT$5deref17ha0d72a1fc7b008efE\00"
@"_ZN99_$LT$std..sync..poison..rwlock..RwLockWriteGuard$LT$T$GT$$u20$as$u20$core..ops..deref..DerefMut$GT$9deref_mut17hdad8f6db10fd3409E.str" = private constant [135 x i8] c"_ZN99_$LT$std..sync..poison..rwlock..RwLockWriteGuard$LT$T$GT$$u20$as$u20$core..ops..deref..DerefMut$GT$9deref_mut17hdad8f6db10fd3409E\00"
@"_ZN9once_cell3imp17OnceCell$LT$T$GT$10initialize17h2e8667e8f8639986E.str" = private constant [69 x i8] c"_ZN9once_cell3imp17OnceCell$LT$T$GT$10initialize17h2e8667e8f8639986E\00"
@"_ZN9once_cell3imp17OnceCell$LT$T$GT$10initialize17h46fd1cd48fcd6434E.str" = private constant [69 x i8] c"_ZN9once_cell3imp17OnceCell$LT$T$GT$10initialize17h46fd1cd48fcd6434E\00"
@"_ZN9once_cell3imp17OnceCell$LT$T$GT$10initialize17h96adf4c14aaea671E.str" = private constant [69 x i8] c"_ZN9once_cell3imp17OnceCell$LT$T$GT$10initialize17h96adf4c14aaea671E\00"
@"_ZN9once_cell3imp17OnceCell$LT$T$GT$10initialize17ha04c97b5806c15ffE.str" = private constant [69 x i8] c"_ZN9once_cell3imp17OnceCell$LT$T$GT$10initialize17ha04c97b5806c15ffE\00"
@"_ZN9once_cell3imp17OnceCell$LT$T$GT$10initialize17hd0f894ffd1507113E.str" = private constant [69 x i8] c"_ZN9once_cell3imp17OnceCell$LT$T$GT$10initialize17hd0f894ffd1507113E\00"
@"_ZN9once_cell3imp17OnceCell$LT$T$GT$10initialize28_$u7b$$u7b$closure$u7d$$u7d$17h0ecd92458addee89E.str" = private constant [99 x i8] c"_ZN9once_cell3imp17OnceCell$LT$T$GT$10initialize28_$u7b$$u7b$closure$u7d$$u7d$17h0ecd92458addee89E\00"
@"_ZN9once_cell3imp17OnceCell$LT$T$GT$10initialize28_$u7b$$u7b$closure$u7d$$u7d$17h11cf0451ae43d00dE.str" = private constant [99 x i8] c"_ZN9once_cell3imp17OnceCell$LT$T$GT$10initialize28_$u7b$$u7b$closure$u7d$$u7d$17h11cf0451ae43d00dE\00"
@"_ZN9once_cell3imp17OnceCell$LT$T$GT$10initialize28_$u7b$$u7b$closure$u7d$$u7d$17h1699a288935087c8E.str" = private constant [99 x i8] c"_ZN9once_cell3imp17OnceCell$LT$T$GT$10initialize28_$u7b$$u7b$closure$u7d$$u7d$17h1699a288935087c8E\00"
@"_ZN9once_cell3imp17OnceCell$LT$T$GT$10initialize28_$u7b$$u7b$closure$u7d$$u7d$17h2977d3b99eb009beE.str" = private constant [99 x i8] c"_ZN9once_cell3imp17OnceCell$LT$T$GT$10initialize28_$u7b$$u7b$closure$u7d$$u7d$17h2977d3b99eb009beE\00"
@"_ZN9once_cell3imp17OnceCell$LT$T$GT$10initialize28_$u7b$$u7b$closure$u7d$$u7d$17haef9a4bef144bd32E.str" = private constant [99 x i8] c"_ZN9once_cell3imp17OnceCell$LT$T$GT$10initialize28_$u7b$$u7b$closure$u7d$$u7d$17haef9a4bef144bd32E\00"
@"_ZN9once_cell4sync17Lazy$LT$T$C$F$GT$5force28_$u7b$$u7b$closure$u7d$$u7d$17h51971514374c5993E.str" = private constant [94 x i8] c"_ZN9once_cell4sync17Lazy$LT$T$C$F$GT$5force28_$u7b$$u7b$closure$u7d$$u7d$17h51971514374c5993E\00"
@"_ZN9once_cell4sync17Lazy$LT$T$C$F$GT$5force28_$u7b$$u7b$closure$u7d$$u7d$17h78aa530c1571d8c0E.str" = private constant [94 x i8] c"_ZN9once_cell4sync17Lazy$LT$T$C$F$GT$5force28_$u7b$$u7b$closure$u7d$$u7d$17h78aa530c1571d8c0E\00"
@"_ZN9once_cell4sync17OnceCell$LT$T$GT$10try_insert17h054d35737b88407aE.str" = private constant [70 x i8] c"_ZN9once_cell4sync17OnceCell$LT$T$GT$10try_insert17h054d35737b88407aE\00"
@"_ZN9once_cell4sync17OnceCell$LT$T$GT$10try_insert17h6cb19dde9aa4eaf1E.str" = private constant [70 x i8] c"_ZN9once_cell4sync17OnceCell$LT$T$GT$10try_insert17h6cb19dde9aa4eaf1E\00"
@"_ZN9once_cell4sync17OnceCell$LT$T$GT$10try_insert17h831949cd6b447bf2E.str" = private constant [70 x i8] c"_ZN9once_cell4sync17OnceCell$LT$T$GT$10try_insert17h831949cd6b447bf2E\00"
@"_ZN9once_cell4sync17OnceCell$LT$T$GT$10try_insert28_$u7b$$u7b$closure$u7d$$u7d$17h0000372758a8ee2fE.str" = private constant [100 x i8] c"_ZN9once_cell4sync17OnceCell$LT$T$GT$10try_insert28_$u7b$$u7b$closure$u7d$$u7d$17h0000372758a8ee2fE\00"
@"_ZN9once_cell4sync17OnceCell$LT$T$GT$10try_insert28_$u7b$$u7b$closure$u7d$$u7d$17h8c03d208558b5fa0E.str" = private constant [100 x i8] c"_ZN9once_cell4sync17OnceCell$LT$T$GT$10try_insert28_$u7b$$u7b$closure$u7d$$u7d$17h8c03d208558b5fa0E\00"
@"_ZN9once_cell4sync17OnceCell$LT$T$GT$10try_insert28_$u7b$$u7b$closure$u7d$$u7d$17hbba8201cfa84b575E.str" = private constant [100 x i8] c"_ZN9once_cell4sync17OnceCell$LT$T$GT$10try_insert28_$u7b$$u7b$closure$u7d$$u7d$17hbba8201cfa84b575E\00"
@"_ZN9once_cell4sync17OnceCell$LT$T$GT$11get_or_init28_$u7b$$u7b$closure$u7d$$u7d$17h5c11b7ebdfcc4c6eE.str" = private constant [101 x i8] c"_ZN9once_cell4sync17OnceCell$LT$T$GT$11get_or_init28_$u7b$$u7b$closure$u7d$$u7d$17h5c11b7ebdfcc4c6eE\00"
@"_ZN9once_cell4sync17OnceCell$LT$T$GT$11get_or_init28_$u7b$$u7b$closure$u7d$$u7d$17h6195dd767ebfb1e1E.str" = private constant [101 x i8] c"_ZN9once_cell4sync17OnceCell$LT$T$GT$11get_or_init28_$u7b$$u7b$closure$u7d$$u7d$17h6195dd767ebfb1e1E\00"
@"_ZN9once_cell4sync17OnceCell$LT$T$GT$11get_or_init28_$u7b$$u7b$closure$u7d$$u7d$17h84363f2c93f65ef2E.str" = private constant [101 x i8] c"_ZN9once_cell4sync17OnceCell$LT$T$GT$11get_or_init28_$u7b$$u7b$closure$u7d$$u7d$17h84363f2c93f65ef2E\00"
@"_ZN9once_cell4sync17OnceCell$LT$T$GT$11get_or_init28_$u7b$$u7b$closure$u7d$$u7d$17hca0b28fdcc3ba28cE.str" = private constant [101 x i8] c"_ZN9once_cell4sync17OnceCell$LT$T$GT$11get_or_init28_$u7b$$u7b$closure$u7d$$u7d$17hca0b28fdcc3ba28cE\00"
@"_ZN9once_cell4sync17OnceCell$LT$T$GT$11get_or_init28_$u7b$$u7b$closure$u7d$$u7d$17hdf344ef28eb24490E.str" = private constant [101 x i8] c"_ZN9once_cell4sync17OnceCell$LT$T$GT$11get_or_init28_$u7b$$u7b$closure$u7d$$u7d$17hdf344ef28eb24490E\00"
@"_ZN9once_cell4sync17OnceCell$LT$T$GT$15get_or_try_init17h08b200641b6d0039E.str" = private constant [75 x i8] c"_ZN9once_cell4sync17OnceCell$LT$T$GT$15get_or_try_init17h08b200641b6d0039E\00"
@"_ZN9once_cell4sync17OnceCell$LT$T$GT$15get_or_try_init17h1f43328a627e9ee2E.str" = private constant [75 x i8] c"_ZN9once_cell4sync17OnceCell$LT$T$GT$15get_or_try_init17h1f43328a627e9ee2E\00"
@"_ZN9once_cell4sync17OnceCell$LT$T$GT$15get_or_try_init17hc963bc9949962e96E.str" = private constant [75 x i8] c"_ZN9once_cell4sync17OnceCell$LT$T$GT$15get_or_try_init17hc963bc9949962e96E\00"
@"_ZN9once_cell4sync17OnceCell$LT$T$GT$15get_or_try_init17hc9fdeed5cb440fc4E.str" = private constant [75 x i8] c"_ZN9once_cell4sync17OnceCell$LT$T$GT$15get_or_try_init17hc9fdeed5cb440fc4E\00"
@"_ZN9once_cell4sync17OnceCell$LT$T$GT$15get_or_try_init17hd58e7c19d61ca15fE.str" = private constant [75 x i8] c"_ZN9once_cell4sync17OnceCell$LT$T$GT$15get_or_try_init17hd58e7c19d61ca15fE\00"
@"_ZN9once_cell4sync17OnceCell$LT$T$GT$3get17h242c70cb930a984aE.str" = private constant [62 x i8] c"_ZN9once_cell4sync17OnceCell$LT$T$GT$3get17h242c70cb930a984aE\00"
@"_ZN9once_cell4sync17OnceCell$LT$T$GT$3get17h265d3feb6d860d67E.str" = private constant [62 x i8] c"_ZN9once_cell4sync17OnceCell$LT$T$GT$3get17h265d3feb6d860d67E\00"
@"_ZN9once_cell4sync17OnceCell$LT$T$GT$3get17h5d837ef85b8f4911E.str" = private constant [62 x i8] c"_ZN9once_cell4sync17OnceCell$LT$T$GT$3get17h5d837ef85b8f4911E\00"
@"_ZN9once_cell4sync17OnceCell$LT$T$GT$3get17h7cd3a45afac17c2aE.str" = private constant [62 x i8] c"_ZN9once_cell4sync17OnceCell$LT$T$GT$3get17h7cd3a45afac17c2aE\00"
@"_ZN9once_cell4sync17OnceCell$LT$T$GT$3get17h89a49c01b2c21349E.str" = private constant [62 x i8] c"_ZN9once_cell4sync17OnceCell$LT$T$GT$3get17h89a49c01b2c21349E\00"
@"_ZN9once_cell4sync17OnceCell$LT$T$GT$3get17hb83212c02f4beebeE.str" = private constant [62 x i8] c"_ZN9once_cell4sync17OnceCell$LT$T$GT$3get17hb83212c02f4beebeE\00"
@"_ZN9once_cell4sync17OnceCell$LT$T$GT$3set17h357c48502ffa5640E.str" = private constant [62 x i8] c"_ZN9once_cell4sync17OnceCell$LT$T$GT$3set17h357c48502ffa5640E\00"
@"_ZN9once_cell4sync17OnceCell$LT$T$GT$3set17hcf4f5bcb31133718E.str" = private constant [62 x i8] c"_ZN9once_cell4sync17OnceCell$LT$T$GT$3set17hcf4f5bcb31133718E\00"
@"_ZN9once_cell4sync17OnceCell$LT$T$GT$3set17hd4800728a81337fcE.str" = private constant [62 x i8] c"_ZN9once_cell4sync17OnceCell$LT$T$GT$3set17hd4800728a81337fcE\00"
@_ZN10aster_time11clocksource11ClockSource3new17h1b058e515be646f6E.str = private constant [66 x i8] c"_ZN10aster_time11clocksource11ClockSource3new17h1b058e515be646f6E\00"
@_ZN10aster_time11clocksource11ClockSource17calculate_instant17hd44fd4befaad3e42E.str = private constant [81 x i8] c"_ZN10aster_time11clocksource11ClockSource17calculate_instant17hd44fd4befaad3e42E\00"
@_ZN10aster_time11clocksource11ClockSource21cycles_to_nanos_lossy17ha5e2c27f6f9b873dE.str = private constant [85 x i8] c"_ZN10aster_time11clocksource11ClockSource21cycles_to_nanos_lossy17ha5e2c27f6f9b873dE\00"
@_ZN10aster_time11clocksource11ClockSource18update_last_record17h46064896b7eb587aE.str = private constant [82 x i8] c"_ZN10aster_time11clocksource11ClockSource18update_last_record17h46064896b7eb587aE\00"
@_ZN10aster_time11clocksource11ClockSource11read_cycles17h4491c418ca7343e6E.str = private constant [75 x i8] c"_ZN10aster_time11clocksource11ClockSource11read_cycles17h4491c418ca7343e6E\00"
@_ZN10aster_time11clocksource11ClockSource11last_record17h422e287c1279e52aE.str = private constant [75 x i8] c"_ZN10aster_time11clocksource11ClockSource11last_record17h422e287c1279e52aE\00"
@_ZN10aster_time11clocksource11ClockSource14max_delay_secs17h4b56939ef4781300E.str = private constant [78 x i8] c"_ZN10aster_time11clocksource11ClockSource14max_delay_secs17h4b56939ef4781300E\00"
@_ZN10aster_time11clocksource11ClockSource5coeff17h6b296c99bd51db2aE.str = private constant [68 x i8] c"_ZN10aster_time11clocksource11ClockSource5coeff17h6b296c99bd51db2aE\00"
@_ZN10aster_time11clocksource11ClockSource4freq17hd048159262865f28E.str = private constant [67 x i8] c"_ZN10aster_time11clocksource11ClockSource4freq17hd048159262865f28E\00"
@_ZN10aster_time11clocksource11ClockSource9calibrate17h003a7403895ccd1bE.str = private constant [72 x i8] c"_ZN10aster_time11clocksource11ClockSource9calibrate17h003a7403895ccd1bE\00"
@_ZN10aster_time11clocksource11ClockSource6update17hd5d27912ebe5d406E.str = private constant [69 x i8] c"_ZN10aster_time11clocksource11ClockSource6update17hd5d27912ebe5d406E\00"
@_ZN10aster_time11clocksource11ClockSource12read_instant17h85253f909045e697E.str = private constant [76 x i8] c"_ZN10aster_time11clocksource11ClockSource12read_instant17h85253f909045e697E\00"
@_ZN10aster_time11clocksource7Instant4zero17h2e7f30580391c415E.str = private constant [62 x i8] c"_ZN10aster_time11clocksource7Instant4zero17h2e7f30580391c415E\00"
@_ZN10aster_time11clocksource7Instant3new17hcb7b25aad0816682E.str = private constant [61 x i8] c"_ZN10aster_time11clocksource7Instant3new17hcb7b25aad0816682E\00"
@_ZN10aster_time11clocksource7Instant4secs17h1bd4e0a022de4549E.str = private constant [62 x i8] c"_ZN10aster_time11clocksource7Instant4secs17h1bd4e0a022de4549E\00"
@_ZN10aster_time11clocksource7Instant5nanos17h359b0fadd846797fE.str = private constant [63 x i8] c"_ZN10aster_time11clocksource7Instant5nanos17h359b0fadd846797fE\00"
@"_ZN100_$LT$aster_time..clocksource..Instant$u20$as$u20$core..convert..From$LT$core..time..Duration$GT$$GT$4from17h9a9a3db50af789a8E.str" = private constant [132 x i8] c"_ZN100_$LT$aster_time..clocksource..Instant$u20$as$u20$core..convert..From$LT$core..time..Duration$GT$$GT$4from17h9a9a3db50af789a8E\00"
@"_ZN102_$LT$aster_time..clocksource..Instant$u20$as$u20$core..ops..arith..Add$LT$core..time..Duration$GT$$GT$3add17h0e8c1c9d4186bb46E.str" = private constant [133 x i8] c"_ZN102_$LT$aster_time..clocksource..Instant$u20$as$u20$core..ops..arith..Add$LT$core..time..Duration$GT$$GT$3add17h0e8c1c9d4186bb46E\00"
@_ZN10aster_time11clocksource15ClockSourceBase3new17h29a64a71503db109E.str = private constant [70 x i8] c"_ZN10aster_time11clocksource15ClockSourceBase3new17h29a64a71503db109E\00"
@_ZN10aster_time3rtc15init_rtc_driver17hc431e8fb1e683654E.str = private constant [57 x i8] c"_ZN10aster_time3rtc15init_rtc_driver17hc431e8fb1e683654E\00"
@"_ZN69_$LT$aster_time..rtc..DummyRtc$u20$as$u20$aster_time..rtc..Driver$GT$7try_new17h96a5469e466141bbE.str" = private constant [103 x i8] c"_ZN69_$LT$aster_time..rtc..DummyRtc$u20$as$u20$aster_time..rtc..Driver$GT$7try_new17h96a5469e466141bbE\00"
@"_ZN69_$LT$aster_time..rtc..DummyRtc$u20$as$u20$aster_time..rtc..Driver$GT$8read_rtc17h0c0aafdf6da70ba0E.str" = private constant [104 x i8] c"_ZN69_$LT$aster_time..rtc..DummyRtc$u20$as$u20$aster_time..rtc..Driver$GT$8read_rtc17h0c0aafdf6da70ba0E\00"
@_ZN10aster_time3tsc4init17h3d55679f58fd1ddfE.str = private constant [45 x i8] c"_ZN10aster_time3tsc4init17h3d55679f58fd1ddfE\00"
@_ZN10aster_time3tsc9calibrate17h8c807f517b5d1fb9E.str = private constant [50 x i8] c"_ZN10aster_time3tsc9calibrate17h8c807f517b5d1fb9E\00"
@_ZN10aster_time3tsc12read_instant17hc249ee983fc94bbfE.str = private constant [54 x i8] c"_ZN10aster_time3tsc12read_instant17hc249ee983fc94bbfE\00"
@_ZN10aster_time3tsc18update_clocksource17haa5b066093267fd2E.str = private constant [60 x i8] c"_ZN10aster_time3tsc18update_clocksource17haa5b066093267fd2E\00"
@_ZN10aster_time3tsc10init_timer17hd32f14498ebd766bE.str = private constant [52 x i8] c"_ZN10aster_time3tsc10init_timer17hd32f14498ebd766bE\00"
@"_ZN10aster_time3tsc10init_timer28_$u7b$$u7b$closure$u7d$$u7d$17h5e914eb7f3b8df5fE.str" = private constant [82 x i8] c"_ZN10aster_time3tsc10init_timer28_$u7b$$u7b$closure$u7d$$u7d$17h5e914eb7f3b8df5fE\00"
@_ZN10aster_time10SystemTime4zero17hdfb96913b073e52aE.str = private constant [53 x i8] c"_ZN10aster_time10SystemTime4zero17hdfb96913b073e52aE\00"
@"_ZN10aster_time9READ_TIME28_$u7b$$u7b$closure$u7d$$u7d$17ha0a6a09f83748251E.str" = private constant [76 x i8] c"_ZN10aster_time9READ_TIME28_$u7b$$u7b$closure$u7d$$u7d$17ha0a6a09f83748251E\00"
@_ZN10aster_time13get_real_time17h297371d403e44e4bE.str = private constant [51 x i8] c"_ZN10aster_time13get_real_time17h297371d403e44e4bE\00"
@_ZN10aster_time4read17hfed6e69c8170a643E.str = private constant [41 x i8] c"_ZN10aster_time4read17hfed6e69c8170a643E\00"
@_ZN10aster_time11update_time17h37a3fb03d25baa3fE.str = private constant [49 x i8] c"_ZN10aster_time11update_time17h37a3fb03d25baa3fE\00"
@_ZN10aster_time15read_start_time17h00f761588aef9174E.str = private constant [53 x i8] c"_ZN10aster_time15read_start_time17h00f761588aef9174E\00"
@_ZN10aster_time19read_monotonic_time17hc0fbfa5472d6cd7aE.str = private constant [57 x i8] c"_ZN10aster_time19read_monotonic_time17hc0fbfa5472d6cd7aE\00"
@_ZN10aster_time19default_clocksource17he8896f3ff0aa2506E.str = private constant [57 x i8] c"_ZN10aster_time19default_clocksource17he8896f3ff0aa2506E\00"
@_ZN10aster_time9time_init17h9036040106292c63E.str = private constant [46 x i8] c"_ZN10aster_time9time_init17h9036040106292c63E\00"
@_ZN10aster_time1_6__ctor17he6065d3c6fcc1863E.str = private constant [45 x i8] c"_ZN10aster_time1_6__ctor17he6065d3c6fcc1863E\00"
@"_ZN61_$LT$aster_time..SystemTime$u20$as$u20$core..clone..Clone$GT$5clone17h3f8401e5fbd5aba3E.str" = private constant [93 x i8] c"_ZN61_$LT$aster_time..SystemTime$u20$as$u20$core..clone..Clone$GT$5clone17h3f8401e5fbd5aba3E\00"

; Function Attrs: inlinehint nonlazybind uwtable
define zeroext i1 @"_ZN153_$LT$core..result..Result$LT$T$C$F$GT$$u20$as$u20$core..ops..try_trait..FromResidual$LT$core..result..Result$LT$core..convert..Infallible$C$E$GT$$GT$$GT$13from_residual17h9c305c172a1fea90E"(ptr align 8 %0) unnamed_addr #0 {
start:
  call void @my_func_entry(ptr @"_ZN153_$LT$core..result..Result$LT$T$C$F$GT$$u20$as$u20$core..ops..try_trait..FromResidual$LT$core..result..Result$LT$core..convert..Infallible$C$E$GT$$GT$$GT$13from_residual17h9c305c172a1fea90E.str")
  call void @my_func_exit(ptr @"_ZN153_$LT$core..result..Result$LT$T$C$F$GT$$u20$as$u20$core..ops..try_trait..FromResidual$LT$core..result..Result$LT$core..convert..Infallible$C$E$GT$$GT$$GT$13from_residual17h9c305c172a1fea90E.str")
  ret i1 true
}

; Function Attrs: inlinehint nonlazybind uwtable
define internal void @_ZN3std3sys4sync6rwlock5futex6RwLock4read17h4637ff57848efbb6E(ptr align 4 %self) unnamed_addr #0 {
start:
  call void @my_func_entry(ptr @_ZN3std3sys4sync6rwlock5futex6RwLock4read17h4637ff57848efbb6E.str)
  %_7 = alloca [8 x i8], align 4
  %state = call i32 @_ZN4core4sync6atomic11atomic_load17hbf52c7da49f67ed9E(ptr %self, i8 0)
  %_15 = and i32 %state, 1073741823
  %_14 = icmp ult i32 %_15, 1073741822
  br i1 %_14, label %bb8, label %bb11

bb11:                                             ; preds = %start
  br label %bb12

bb8:                                              ; preds = %start
  %_17 = and i32 %state, 1073741824
  %0 = icmp eq i32 %_17, 0
  br i1 %0, label %bb10, label %bb9

bb12:                                             ; preds = %bb9, %bb11
  br label %bb2

bb10:                                             ; preds = %bb8
  %_18 = and i32 %state, -2147483648
  %_16 = icmp ne i32 %_18, 0
  %_4 = xor i1 %_16, true
  br i1 %_4, label %bb1, label %bb2

bb9:                                              ; preds = %bb8
  br label %bb12

bb2:                                              ; preds = %bb10, %bb12
  br label %bb4

bb1:                                              ; preds = %bb10
  %new = add i32 %state, 1
  %1 = call { i32, i32 } @_ZN4core4sync6atomic28atomic_compare_exchange_weak17h4c07a82ba058abb3E(ptr %self, i32 %state, i32 %new, i8 2, i8 0)
  %2 = extractvalue { i32, i32 } %1, 0
  %3 = extractvalue { i32, i32 } %1, 1
  store i32 %2, ptr %_7, align 4
  call void @my_store_hook(ptr %_7, i64 4, ptr @_ZN3std3sys4sync6rwlock5futex6RwLock4read17h4637ff57848efbb6E.str)
  %4 = getelementptr inbounds i8, ptr %_7, i64 4
  store i32 %3, ptr %4, align 4
  call void @my_store_hook(ptr %4, i64 4, ptr @_ZN3std3sys4sync6rwlock5futex6RwLock4read17h4637ff57848efbb6E.str)
  %5 = load i32, ptr %_7, align 4
  call void @my_load_hook(ptr %_7, i64 4, ptr @_ZN3std3sys4sync6rwlock5futex6RwLock4read17h4637ff57848efbb6E.str)
  %6 = getelementptr inbounds i8, ptr %_7, i64 4
  %7 = load i32, ptr %6, align 4
  call void @my_load_hook(ptr %6, i64 4, ptr @_ZN3std3sys4sync6rwlock5futex6RwLock4read17h4637ff57848efbb6E.str)
  %_23 = zext i32 %5 to i64
  %_22 = icmp eq i64 %_23, 0
  %_5 = xor i1 %_22, true
  br i1 %_5, label %bb3, label %bb5

bb5:                                              ; preds = %bb1
  br label %bb6

bb3:                                              ; preds = %bb1
  br label %bb4

bb6:                                              ; preds = %bb4, %bb5
  call void @my_func_exit(ptr @_ZN3std3sys4sync6rwlock5futex6RwLock4read17h4637ff57848efbb6E.str)
  ret void

bb4:                                              ; preds = %bb3, %bb2
  call void @_ZN3std3sys4sync6rwlock5futex6RwLock14read_contended17hde510599cf56db3bE(ptr align 4 %self)
  br label %bb6
}

; Function Attrs: nonlazybind uwtable
define void @_ZN3std4sync6poison10map_result17h2e56805eb16aed47E(ptr sret([24 x i8]) align 8 %_0, i1 zeroext %0, ptr align 8 %f) unnamed_addr #1 {
start:
  call void @my_func_entry(ptr @_ZN3std4sync6poison10map_result17h2e56805eb16aed47E.str)
  %result = alloca [1 x i8], align 1
  %1 = zext i1 %0 to i8
  store i8 %1, ptr %result, align 1
  call void @my_store_hook(ptr %result, i64 1, ptr @_ZN3std4sync6poison10map_result17h2e56805eb16aed47E.str)
  %2 = load i8, ptr %result, align 1
  call void @my_load_hook(ptr %result, i64 1, ptr @_ZN3std4sync6poison10map_result17h2e56805eb16aed47E.str)
  %3 = trunc nuw i8 %2 to i1
  %_3 = zext i1 %3 to i64
  %4 = trunc nuw i64 %_3 to i1
  br i1 %4, label %bb2, label %bb3

bb2:                                              ; preds = %start
  %5 = call { ptr, ptr } @"_ZN3std4sync6poison6rwlock24RwLockReadGuard$LT$T$GT$3new28_$u7b$$u7b$closure$u7d$$u7d$17h40e8e5495417ea92E"(ptr align 8 %f)
  %data.0 = extractvalue { ptr, ptr } %5, 0
  %data.1 = extractvalue { ptr, ptr } %5, 1
  %6 = getelementptr inbounds i8, ptr %_0, i64 8
  store ptr %data.0, ptr %6, align 8
  call void @my_store_hook(ptr %6, i64 8, ptr @_ZN3std4sync6poison10map_result17h2e56805eb16aed47E.str)
  %7 = getelementptr inbounds i8, ptr %6, i64 8
  store ptr %data.1, ptr %7, align 8
  call void @my_store_hook(ptr %7, i64 8, ptr @_ZN3std4sync6poison10map_result17h2e56805eb16aed47E.str)
  store i64 1, ptr %_0, align 8
  call void @my_store_hook(ptr %_0, i64 8, ptr @_ZN3std4sync6poison10map_result17h2e56805eb16aed47E.str)
  br label %bb6

bb3:                                              ; preds = %start
  %8 = call { ptr, ptr } @"_ZN3std4sync6poison6rwlock24RwLockReadGuard$LT$T$GT$3new28_$u7b$$u7b$closure$u7d$$u7d$17h40e8e5495417ea92E"(ptr align 8 %f)
  %_5.0 = extractvalue { ptr, ptr } %8, 0
  %_5.1 = extractvalue { ptr, ptr } %8, 1
  %9 = getelementptr inbounds i8, ptr %_0, i64 8
  store ptr %_5.0, ptr %9, align 8
  call void @my_store_hook(ptr %9, i64 8, ptr @_ZN3std4sync6poison10map_result17h2e56805eb16aed47E.str)
  %10 = getelementptr inbounds i8, ptr %9, i64 8
  store ptr %_5.1, ptr %10, align 8
  call void @my_store_hook(ptr %10, i64 8, ptr @_ZN3std4sync6poison10map_result17h2e56805eb16aed47E.str)
  store i64 0, ptr %_0, align 8
  call void @my_store_hook(ptr %_0, i64 8, ptr @_ZN3std4sync6poison10map_result17h2e56805eb16aed47E.str)
  br label %bb6

bb6:                                              ; preds = %bb3, %bb2
  call void @my_func_exit(ptr @_ZN3std4sync6poison10map_result17h2e56805eb16aed47E.str)
  ret void

bb1:                                              ; No predecessors!
  unreachable
}

; Function Attrs: nonlazybind uwtable
define void @_ZN3std4sync6poison10map_result17h3041f3c23929b9afE(ptr sret([24 x i8]) align 8 %_0, i1 zeroext %0, i8 %1, ptr align 8 %f) unnamed_addr #1 {
start:
  call void @my_func_entry(ptr @_ZN3std4sync6poison10map_result17h3041f3c23929b9afE.str)
  %result = alloca [2 x i8], align 1
  %2 = zext i1 %0 to i8
  store i8 %2, ptr %result, align 1
  call void @my_store_hook(ptr %result, i64 1, ptr @_ZN3std4sync6poison10map_result17h3041f3c23929b9afE.str)
  %3 = getelementptr inbounds i8, ptr %result, i64 1
  store i8 %1, ptr %3, align 1
  call void @my_store_hook(ptr %3, i64 1, ptr @_ZN3std4sync6poison10map_result17h3041f3c23929b9afE.str)
  %4 = load i8, ptr %result, align 1
  call void @my_load_hook(ptr %result, i64 1, ptr @_ZN3std4sync6poison10map_result17h3041f3c23929b9afE.str)
  %5 = trunc nuw i8 %4 to i1
  %6 = getelementptr inbounds i8, ptr %result, i64 1
  %7 = load i8, ptr %6, align 1
  call void @my_load_hook(ptr %6, i64 1, ptr @_ZN3std4sync6poison10map_result17h3041f3c23929b9afE.str)
  %_3 = zext i1 %5 to i64
  %8 = trunc nuw i64 %_3 to i1
  br i1 %8, label %bb2, label %bb3

bb2:                                              ; preds = %start
  %9 = getelementptr inbounds i8, ptr %result, i64 1
  %10 = load i8, ptr %9, align 1
  call void @my_load_hook(ptr %9, i64 1, ptr @_ZN3std4sync6poison10map_result17h3041f3c23929b9afE.str)
  %data = trunc nuw i8 %10 to i1
  %11 = call { ptr, i1 } @"_ZN3std4sync6poison5mutex19MutexGuard$LT$T$GT$3new28_$u7b$$u7b$closure$u7d$$u7d$17h1b0366b49dcdc3eaE"(ptr align 8 %f, i1 zeroext %data)
  %data.0 = extractvalue { ptr, i1 } %11, 0
  %data.1 = extractvalue { ptr, i1 } %11, 1
  %12 = getelementptr inbounds i8, ptr %_0, i64 8
  store ptr %data.0, ptr %12, align 8
  call void @my_store_hook(ptr %12, i64 8, ptr @_ZN3std4sync6poison10map_result17h3041f3c23929b9afE.str)
  %13 = getelementptr inbounds i8, ptr %12, i64 8
  %14 = zext i1 %data.1 to i8
  store i8 %14, ptr %13, align 8
  call void @my_store_hook(ptr %13, i64 1, ptr @_ZN3std4sync6poison10map_result17h3041f3c23929b9afE.str)
  store i64 1, ptr %_0, align 8
  call void @my_store_hook(ptr %_0, i64 8, ptr @_ZN3std4sync6poison10map_result17h3041f3c23929b9afE.str)
  br label %bb6

bb3:                                              ; preds = %start
  %15 = getelementptr inbounds i8, ptr %result, i64 1
  %16 = load i8, ptr %15, align 1
  call void @my_load_hook(ptr %15, i64 1, ptr @_ZN3std4sync6poison10map_result17h3041f3c23929b9afE.str)
  %t = trunc nuw i8 %16 to i1
  %17 = call { ptr, i1 } @"_ZN3std4sync6poison5mutex19MutexGuard$LT$T$GT$3new28_$u7b$$u7b$closure$u7d$$u7d$17h1b0366b49dcdc3eaE"(ptr align 8 %f, i1 zeroext %t)
  %_5.0 = extractvalue { ptr, i1 } %17, 0
  %_5.1 = extractvalue { ptr, i1 } %17, 1
  %18 = getelementptr inbounds i8, ptr %_0, i64 8
  store ptr %_5.0, ptr %18, align 8
  call void @my_store_hook(ptr %18, i64 8, ptr @_ZN3std4sync6poison10map_result17h3041f3c23929b9afE.str)
  %19 = getelementptr inbounds i8, ptr %18, i64 8
  %20 = zext i1 %_5.1 to i8
  store i8 %20, ptr %19, align 8
  call void @my_store_hook(ptr %19, i64 1, ptr @_ZN3std4sync6poison10map_result17h3041f3c23929b9afE.str)
  store i64 0, ptr %_0, align 8
  call void @my_store_hook(ptr %_0, i64 8, ptr @_ZN3std4sync6poison10map_result17h3041f3c23929b9afE.str)
  br label %bb6

bb6:                                              ; preds = %bb3, %bb2
  call void @my_func_exit(ptr @_ZN3std4sync6poison10map_result17h3041f3c23929b9afE.str)
  ret void

bb1:                                              ; No predecessors!
  unreachable
}

; Function Attrs: nonlazybind uwtable
define void @_ZN3std4sync6poison10map_result17h42bcca65e8fc2f9fE(ptr sret([24 x i8]) align 8 %_0, i1 zeroext %0, i8 %1, ptr align 8 %f) unnamed_addr #1 {
start:
  call void @my_func_entry(ptr @_ZN3std4sync6poison10map_result17h42bcca65e8fc2f9fE.str)
  %result = alloca [2 x i8], align 1
  %2 = zext i1 %0 to i8
  store i8 %2, ptr %result, align 1
  call void @my_store_hook(ptr %result, i64 1, ptr @_ZN3std4sync6poison10map_result17h42bcca65e8fc2f9fE.str)
  %3 = getelementptr inbounds i8, ptr %result, i64 1
  store i8 %1, ptr %3, align 1
  call void @my_store_hook(ptr %3, i64 1, ptr @_ZN3std4sync6poison10map_result17h42bcca65e8fc2f9fE.str)
  %4 = load i8, ptr %result, align 1
  call void @my_load_hook(ptr %result, i64 1, ptr @_ZN3std4sync6poison10map_result17h42bcca65e8fc2f9fE.str)
  %5 = trunc nuw i8 %4 to i1
  %6 = getelementptr inbounds i8, ptr %result, i64 1
  %7 = load i8, ptr %6, align 1
  call void @my_load_hook(ptr %6, i64 1, ptr @_ZN3std4sync6poison10map_result17h42bcca65e8fc2f9fE.str)
  %_3 = zext i1 %5 to i64
  %8 = trunc nuw i64 %_3 to i1
  br i1 %8, label %bb2, label %bb3

bb2:                                              ; preds = %start
  %9 = getelementptr inbounds i8, ptr %result, i64 1
  %10 = load i8, ptr %9, align 1
  call void @my_load_hook(ptr %9, i64 1, ptr @_ZN3std4sync6poison10map_result17h42bcca65e8fc2f9fE.str)
  %data = trunc nuw i8 %10 to i1
  %11 = call { ptr, i1 } @"_ZN3std4sync6poison5mutex19MutexGuard$LT$T$GT$3new28_$u7b$$u7b$closure$u7d$$u7d$17hb14636ae5e4789ecE"(ptr align 8 %f, i1 zeroext %data)
  %data.0 = extractvalue { ptr, i1 } %11, 0
  %data.1 = extractvalue { ptr, i1 } %11, 1
  %12 = getelementptr inbounds i8, ptr %_0, i64 8
  store ptr %data.0, ptr %12, align 8
  call void @my_store_hook(ptr %12, i64 8, ptr @_ZN3std4sync6poison10map_result17h42bcca65e8fc2f9fE.str)
  %13 = getelementptr inbounds i8, ptr %12, i64 8
  %14 = zext i1 %data.1 to i8
  store i8 %14, ptr %13, align 8
  call void @my_store_hook(ptr %13, i64 1, ptr @_ZN3std4sync6poison10map_result17h42bcca65e8fc2f9fE.str)
  store i64 1, ptr %_0, align 8
  call void @my_store_hook(ptr %_0, i64 8, ptr @_ZN3std4sync6poison10map_result17h42bcca65e8fc2f9fE.str)
  br label %bb6

bb3:                                              ; preds = %start
  %15 = getelementptr inbounds i8, ptr %result, i64 1
  %16 = load i8, ptr %15, align 1
  call void @my_load_hook(ptr %15, i64 1, ptr @_ZN3std4sync6poison10map_result17h42bcca65e8fc2f9fE.str)
  %t = trunc nuw i8 %16 to i1
  %17 = call { ptr, i1 } @"_ZN3std4sync6poison5mutex19MutexGuard$LT$T$GT$3new28_$u7b$$u7b$closure$u7d$$u7d$17hb14636ae5e4789ecE"(ptr align 8 %f, i1 zeroext %t)
  %_5.0 = extractvalue { ptr, i1 } %17, 0
  %_5.1 = extractvalue { ptr, i1 } %17, 1
  %18 = getelementptr inbounds i8, ptr %_0, i64 8
  store ptr %_5.0, ptr %18, align 8
  call void @my_store_hook(ptr %18, i64 8, ptr @_ZN3std4sync6poison10map_result17h42bcca65e8fc2f9fE.str)
  %19 = getelementptr inbounds i8, ptr %18, i64 8
  %20 = zext i1 %_5.1 to i8
  store i8 %20, ptr %19, align 8
  call void @my_store_hook(ptr %19, i64 1, ptr @_ZN3std4sync6poison10map_result17h42bcca65e8fc2f9fE.str)
  store i64 0, ptr %_0, align 8
  call void @my_store_hook(ptr %_0, i64 8, ptr @_ZN3std4sync6poison10map_result17h42bcca65e8fc2f9fE.str)
  br label %bb6

bb6:                                              ; preds = %bb3, %bb2
  call void @my_func_exit(ptr @_ZN3std4sync6poison10map_result17h42bcca65e8fc2f9fE.str)
  ret void

bb1:                                              ; No predecessors!
  unreachable
}

; Function Attrs: nonlazybind uwtable
define void @_ZN3std4sync6poison10map_result17hdfc069f0ced61faaE(ptr sret([24 x i8]) align 8 %_0, i1 zeroext %0, i8 %1, ptr align 8 %f) unnamed_addr #1 {
start:
  call void @my_func_entry(ptr @_ZN3std4sync6poison10map_result17hdfc069f0ced61faaE.str)
  %result = alloca [2 x i8], align 1
  %2 = zext i1 %0 to i8
  store i8 %2, ptr %result, align 1
  call void @my_store_hook(ptr %result, i64 1, ptr @_ZN3std4sync6poison10map_result17hdfc069f0ced61faaE.str)
  %3 = getelementptr inbounds i8, ptr %result, i64 1
  store i8 %1, ptr %3, align 1
  call void @my_store_hook(ptr %3, i64 1, ptr @_ZN3std4sync6poison10map_result17hdfc069f0ced61faaE.str)
  %4 = load i8, ptr %result, align 1
  call void @my_load_hook(ptr %result, i64 1, ptr @_ZN3std4sync6poison10map_result17hdfc069f0ced61faaE.str)
  %5 = trunc nuw i8 %4 to i1
  %6 = getelementptr inbounds i8, ptr %result, i64 1
  %7 = load i8, ptr %6, align 1
  call void @my_load_hook(ptr %6, i64 1, ptr @_ZN3std4sync6poison10map_result17hdfc069f0ced61faaE.str)
  %_3 = zext i1 %5 to i64
  %8 = trunc nuw i64 %_3 to i1
  br i1 %8, label %bb2, label %bb3

bb2:                                              ; preds = %start
  %9 = getelementptr inbounds i8, ptr %result, i64 1
  %10 = load i8, ptr %9, align 1
  call void @my_load_hook(ptr %9, i64 1, ptr @_ZN3std4sync6poison10map_result17hdfc069f0ced61faaE.str)
  %data = trunc nuw i8 %10 to i1
  %11 = call { ptr, i1 } @"_ZN3std4sync6poison6rwlock25RwLockWriteGuard$LT$T$GT$3new28_$u7b$$u7b$closure$u7d$$u7d$17he59cd5555e62833aE"(ptr align 8 %f, i1 zeroext %data)
  %data.0 = extractvalue { ptr, i1 } %11, 0
  %data.1 = extractvalue { ptr, i1 } %11, 1
  %12 = getelementptr inbounds i8, ptr %_0, i64 8
  store ptr %data.0, ptr %12, align 8
  call void @my_store_hook(ptr %12, i64 8, ptr @_ZN3std4sync6poison10map_result17hdfc069f0ced61faaE.str)
  %13 = getelementptr inbounds i8, ptr %12, i64 8
  %14 = zext i1 %data.1 to i8
  store i8 %14, ptr %13, align 8
  call void @my_store_hook(ptr %13, i64 1, ptr @_ZN3std4sync6poison10map_result17hdfc069f0ced61faaE.str)
  store i64 1, ptr %_0, align 8
  call void @my_store_hook(ptr %_0, i64 8, ptr @_ZN3std4sync6poison10map_result17hdfc069f0ced61faaE.str)
  br label %bb6

bb3:                                              ; preds = %start
  %15 = getelementptr inbounds i8, ptr %result, i64 1
  %16 = load i8, ptr %15, align 1
  call void @my_load_hook(ptr %15, i64 1, ptr @_ZN3std4sync6poison10map_result17hdfc069f0ced61faaE.str)
  %t = trunc nuw i8 %16 to i1
  %17 = call { ptr, i1 } @"_ZN3std4sync6poison6rwlock25RwLockWriteGuard$LT$T$GT$3new28_$u7b$$u7b$closure$u7d$$u7d$17he59cd5555e62833aE"(ptr align 8 %f, i1 zeroext %t)
  %_5.0 = extractvalue { ptr, i1 } %17, 0
  %_5.1 = extractvalue { ptr, i1 } %17, 1
  %18 = getelementptr inbounds i8, ptr %_0, i64 8
  store ptr %_5.0, ptr %18, align 8
  call void @my_store_hook(ptr %18, i64 8, ptr @_ZN3std4sync6poison10map_result17hdfc069f0ced61faaE.str)
  %19 = getelementptr inbounds i8, ptr %18, i64 8
  %20 = zext i1 %_5.1 to i8
  store i8 %20, ptr %19, align 8
  call void @my_store_hook(ptr %19, i64 1, ptr @_ZN3std4sync6poison10map_result17hdfc069f0ced61faaE.str)
  store i64 0, ptr %_0, align 8
  call void @my_store_hook(ptr %_0, i64 8, ptr @_ZN3std4sync6poison10map_result17hdfc069f0ced61faaE.str)
  br label %bb6

bb6:                                              ; preds = %bb3, %bb2
  call void @my_func_exit(ptr @_ZN3std4sync6poison10map_result17hdfc069f0ced61faaE.str)
  ret void

bb1:                                              ; No predecessors!
  unreachable
}

; Function Attrs: inlinehint nonlazybind uwtable
define internal void @_ZN3std4sync6poison4Flag4done17hfee0218769e7ea2bE(ptr align 1 %self, ptr align 1 %guard) unnamed_addr #0 {
start:
  call void @my_func_entry(ptr @_ZN3std4sync6poison4Flag4done17hfee0218769e7ea2bE.str)
  %0 = load i8, ptr %guard, align 1
  call void @my_load_hook(ptr %guard, i64 1, ptr @_ZN3std4sync6poison4Flag4done17hfee0218769e7ea2bE.str)
  %_3 = trunc nuw i8 %0 to i1
  br i1 %_3, label %bb3, label %bb1

bb1:                                              ; preds = %start
  %_8 = call i64 @_ZN4core4sync6atomic11atomic_load17h1308712063b9c2a8E(ptr @_ZN3std9panicking11panic_count18GLOBAL_PANIC_COUNT17h773706b8a844bfeaE, i8 0)
  %_7 = and i64 %_8, 9223372036854775807
  %1 = icmp eq i64 %_7, 0
  br i1 %1, label %bb5, label %bb6

bb3:                                              ; preds = %bb2, %bb6, %bb5, %start
  call void @my_func_exit(ptr @_ZN3std4sync6poison4Flag4done17hfee0218769e7ea2bE.str)
  ret void

bb5:                                              ; preds = %bb1
  br label %bb3

bb6:                                              ; preds = %bb1
  %_6 = call zeroext i1 @_ZN3std9panicking11panic_count17is_zero_slow_path17h6f711d16a2b974a7E()
  %_4 = xor i1 %_6, true
  br i1 %_4, label %bb2, label %bb3

bb2:                                              ; preds = %bb6
  call void @_ZN4core4sync6atomic12atomic_store17h846185b9baa0691cE(ptr %self, i8 1, i8 0)
  br label %bb3
}

; Function Attrs: inlinehint nonlazybind uwtable
define internal { i1, i8 } @_ZN3std4sync6poison4Flag5guard17ha40114775bf8d8a9E(ptr align 1 %self) unnamed_addr #0 {
start:
  call void @my_func_entry(ptr @_ZN3std4sync6poison4Flag5guard17ha40114775bf8d8a9E.str)
  %_5 = alloca [1 x i8], align 1
  %_0 = alloca [2 x i8], align 1
  %_7 = call i64 @_ZN4core4sync6atomic11atomic_load17h1308712063b9c2a8E(ptr @_ZN3std9panicking11panic_count18GLOBAL_PANIC_COUNT17h773706b8a844bfeaE, i8 0)
  %_6 = and i64 %_7, 9223372036854775807
  %0 = icmp eq i64 %_6, 0
  br i1 %0, label %bb5, label %bb6

bb5:                                              ; preds = %start
  store i8 1, ptr %_5, align 1
  call void @my_store_hook(ptr %_5, i64 1, ptr @_ZN3std4sync6poison4Flag5guard17ha40114775bf8d8a9E.str)
  br label %bb4

bb6:                                              ; preds = %start
  %1 = call zeroext i1 @_ZN3std9panicking11panic_count17is_zero_slow_path17h6f711d16a2b974a7E()
  %2 = zext i1 %1 to i8
  store i8 %2, ptr %_5, align 1
  call void @my_store_hook(ptr %_5, i64 1, ptr @_ZN3std4sync6poison4Flag5guard17ha40114775bf8d8a9E.str)
  br label %bb4

bb4:                                              ; preds = %bb6, %bb5
  %3 = load i8, ptr %_5, align 1
  call void @my_load_hook(ptr %_5, i64 1, ptr @_ZN3std4sync6poison4Flag5guard17ha40114775bf8d8a9E.str)
  %4 = trunc nuw i8 %3 to i1
  %_3 = xor i1 %4, true
  %_13 = call i8 @_ZN4core4sync6atomic11atomic_load17he8828ea078801ea3E(ptr %self, i8 0)
  %5 = icmp eq i8 %_13, 0
  br i1 %5, label %bb2, label %bb1

bb2:                                              ; preds = %bb4
  %6 = getelementptr inbounds i8, ptr %_0, i64 1
  %7 = zext i1 %_3 to i8
  store i8 %7, ptr %6, align 1
  call void @my_store_hook(ptr %6, i64 1, ptr @_ZN3std4sync6poison4Flag5guard17ha40114775bf8d8a9E.str)
  store i8 0, ptr %_0, align 1
  call void @my_store_hook(ptr %_0, i64 1, ptr @_ZN3std4sync6poison4Flag5guard17ha40114775bf8d8a9E.str)
  br label %bb3

bb1:                                              ; preds = %bb4
  %8 = getelementptr inbounds i8, ptr %_0, i64 1
  %9 = zext i1 %_3 to i8
  store i8 %9, ptr %8, align 1
  call void @my_store_hook(ptr %8, i64 1, ptr @_ZN3std4sync6poison4Flag5guard17ha40114775bf8d8a9E.str)
  store i8 1, ptr %_0, align 1
  call void @my_store_hook(ptr %_0, i64 1, ptr @_ZN3std4sync6poison4Flag5guard17ha40114775bf8d8a9E.str)
  br label %bb3

bb3:                                              ; preds = %bb1, %bb2
  %10 = load i8, ptr %_0, align 1
  call void @my_load_hook(ptr %_0, i64 1, ptr @_ZN3std4sync6poison4Flag5guard17ha40114775bf8d8a9E.str)
  %11 = trunc nuw i8 %10 to i1
  %12 = getelementptr inbounds i8, ptr %_0, i64 1
  %13 = load i8, ptr %12, align 1
  call void @my_load_hook(ptr %12, i64 1, ptr @_ZN3std4sync6poison4Flag5guard17ha40114775bf8d8a9E.str)
  %14 = insertvalue { i1, i8 } poison, i1 %11, 0
  %15 = insertvalue { i1, i8 } %14, i8 %13, 1
  call void @my_func_exit(ptr @_ZN3std4sync6poison4Flag5guard17ha40114775bf8d8a9E.str)
  ret { i1, i8 } %15
}

; Function Attrs: inlinehint nonlazybind uwtable
define void @"_ZN3std4sync6poison5mutex14Mutex$LT$T$GT$3new17hed049ba32d0de8e7E"(ptr sret([24 x i8]) align 8 %_0, ptr align 8 %t) unnamed_addr #0 {
start:
  call void @my_func_entry(ptr @"_ZN3std4sync6poison5mutex14Mutex$LT$T$GT$3new17hed049ba32d0de8e7E.str")
  %_6 = alloca [1 x i8], align 1
  %_5 = alloca [4 x i8], align 4
  %_4 = alloca [16 x i8], align 8
  %_3 = alloca [1 x i8], align 1
  %_2 = alloca [4 x i8], align 4
  store i32 0, ptr %_5, align 4
  call void @my_store_hook(ptr %_5, i64 4, ptr @"_ZN3std4sync6poison5mutex14Mutex$LT$T$GT$3new17hed049ba32d0de8e7E.str")
  call void @llvm.memcpy.p0.p0.i64(ptr align 4 %_2, ptr align 4 %_5, i64 4, i1 false)
  store i8 0, ptr %_6, align 1
  call void @my_store_hook(ptr %_6, i64 1, ptr @"_ZN3std4sync6poison5mutex14Mutex$LT$T$GT$3new17hed049ba32d0de8e7E.str")
  call void @llvm.memcpy.p0.p0.i64(ptr align 1 %_3, ptr align 1 %_6, i64 1, i1 false)
  call void @llvm.memcpy.p0.p0.i64(ptr align 8 %_4, ptr align 8 %t, i64 16, i1 false)
  call void @llvm.memcpy.p0.p0.i64(ptr align 8 %_0, ptr align 4 %_2, i64 4, i1 false)
  %0 = getelementptr inbounds i8, ptr %_0, i64 4
  call void @llvm.memcpy.p0.p0.i64(ptr align 4 %0, ptr align 1 %_3, i64 1, i1 false)
  %1 = getelementptr inbounds i8, ptr %_0, i64 8
  call void @llvm.memcpy.p0.p0.i64(ptr align 8 %1, ptr align 8 %_4, i64 16, i1 false)
  call void @my_func_exit(ptr @"_ZN3std4sync6poison5mutex14Mutex$LT$T$GT$3new17hed049ba32d0de8e7E.str")
  ret void
}

; Function Attrs: nonlazybind uwtable
define void @"_ZN3std4sync6poison5mutex14Mutex$LT$T$GT$4lock17h1fd9ea97d365d6aeE"(ptr sret([24 x i8]) align 8 %_0, ptr align 8 %self) unnamed_addr #1 {
start:
  call void @my_func_entry(ptr @"_ZN3std4sync6poison5mutex14Mutex$LT$T$GT$4lock17h1fd9ea97d365d6aeE.str")
  %_5 = alloca [8 x i8], align 4
  %0 = call { i32, i32 } @_ZN4core4sync6atomic23atomic_compare_exchange17h9fe39060f238dc35E(ptr %self, i32 0, i32 1, i8 2, i8 0)
  %1 = extractvalue { i32, i32 } %0, 0
  %2 = extractvalue { i32, i32 } %0, 1
  store i32 %1, ptr %_5, align 4
  call void @my_store_hook(ptr %_5, i64 4, ptr @"_ZN3std4sync6poison5mutex14Mutex$LT$T$GT$4lock17h1fd9ea97d365d6aeE.str")
  %3 = getelementptr inbounds i8, ptr %_5, i64 4
  store i32 %2, ptr %3, align 4
  call void @my_store_hook(ptr %3, i64 4, ptr @"_ZN3std4sync6poison5mutex14Mutex$LT$T$GT$4lock17h1fd9ea97d365d6aeE.str")
  %4 = load i32, ptr %_5, align 4
  call void @my_load_hook(ptr %_5, i64 4, ptr @"_ZN3std4sync6poison5mutex14Mutex$LT$T$GT$4lock17h1fd9ea97d365d6aeE.str")
  %5 = getelementptr inbounds i8, ptr %_5, i64 4
  %6 = load i32, ptr %5, align 4
  call void @my_load_hook(ptr %5, i64 4, ptr @"_ZN3std4sync6poison5mutex14Mutex$LT$T$GT$4lock17h1fd9ea97d365d6aeE.str")
  %_12 = zext i32 %4 to i64
  %_11 = icmp eq i64 %_12, 0
  %_3 = xor i1 %_11, true
  br i1 %_3, label %bb1, label %bb2

bb2:                                              ; preds = %start
  br label %bb3

bb1:                                              ; preds = %start
  call void @_ZN3std3sys4sync5mutex5futex5Mutex14lock_contended17h4c31cf024f7e2908E(ptr align 4 %self)
  br label %bb3

bb3:                                              ; preds = %bb1, %bb2
  %_14 = getelementptr inbounds i8, ptr %self, i64 4
  %7 = call { i1, i8 } @_ZN3std4sync6poison4Flag5guard17ha40114775bf8d8a9E(ptr align 1 %_14)
  %_13.0 = extractvalue { i1, i8 } %7, 0
  %_13.1 = extractvalue { i1, i8 } %7, 1
  call void @_ZN3std4sync6poison10map_result17h42bcca65e8fc2f9fE(ptr sret([24 x i8]) align 8 %_0, i1 zeroext %_13.0, i8 %_13.1, ptr align 8 %self)
  call void @my_func_exit(ptr @"_ZN3std4sync6poison5mutex14Mutex$LT$T$GT$4lock17h1fd9ea97d365d6aeE.str")
  ret void
}

; Function Attrs: nonlazybind uwtable
define void @"_ZN3std4sync6poison5mutex14Mutex$LT$T$GT$4lock17h3f3b2a3201cadbc5E"(ptr sret([24 x i8]) align 8 %_0, ptr align 8 %self) unnamed_addr #1 {
start:
  call void @my_func_entry(ptr @"_ZN3std4sync6poison5mutex14Mutex$LT$T$GT$4lock17h3f3b2a3201cadbc5E.str")
  %_5 = alloca [8 x i8], align 4
  %0 = call { i32, i32 } @_ZN4core4sync6atomic23atomic_compare_exchange17h9fe39060f238dc35E(ptr %self, i32 0, i32 1, i8 2, i8 0)
  %1 = extractvalue { i32, i32 } %0, 0
  %2 = extractvalue { i32, i32 } %0, 1
  store i32 %1, ptr %_5, align 4
  call void @my_store_hook(ptr %_5, i64 4, ptr @"_ZN3std4sync6poison5mutex14Mutex$LT$T$GT$4lock17h3f3b2a3201cadbc5E.str")
  %3 = getelementptr inbounds i8, ptr %_5, i64 4
  store i32 %2, ptr %3, align 4
  call void @my_store_hook(ptr %3, i64 4, ptr @"_ZN3std4sync6poison5mutex14Mutex$LT$T$GT$4lock17h3f3b2a3201cadbc5E.str")
  %4 = load i32, ptr %_5, align 4
  call void @my_load_hook(ptr %_5, i64 4, ptr @"_ZN3std4sync6poison5mutex14Mutex$LT$T$GT$4lock17h3f3b2a3201cadbc5E.str")
  %5 = getelementptr inbounds i8, ptr %_5, i64 4
  %6 = load i32, ptr %5, align 4
  call void @my_load_hook(ptr %5, i64 4, ptr @"_ZN3std4sync6poison5mutex14Mutex$LT$T$GT$4lock17h3f3b2a3201cadbc5E.str")
  %_12 = zext i32 %4 to i64
  %_11 = icmp eq i64 %_12, 0
  %_3 = xor i1 %_11, true
  br i1 %_3, label %bb1, label %bb2

bb2:                                              ; preds = %start
  br label %bb3

bb1:                                              ; preds = %start
  call void @_ZN3std3sys4sync5mutex5futex5Mutex14lock_contended17h4c31cf024f7e2908E(ptr align 4 %self)
  br label %bb3

bb3:                                              ; preds = %bb1, %bb2
  %_14 = getelementptr inbounds i8, ptr %self, i64 4
  %7 = call { i1, i8 } @_ZN3std4sync6poison4Flag5guard17ha40114775bf8d8a9E(ptr align 1 %_14)
  %_13.0 = extractvalue { i1, i8 } %7, 0
  %_13.1 = extractvalue { i1, i8 } %7, 1
  call void @_ZN3std4sync6poison10map_result17h3041f3c23929b9afE(ptr sret([24 x i8]) align 8 %_0, i1 zeroext %_13.0, i8 %_13.1, ptr align 8 %self)
  call void @my_func_exit(ptr @"_ZN3std4sync6poison5mutex14Mutex$LT$T$GT$4lock17h3f3b2a3201cadbc5E.str")
  ret void
}

; Function Attrs: inlinehint nonlazybind uwtable
define { ptr, i1 } @"_ZN3std4sync6poison5mutex19MutexGuard$LT$T$GT$3new28_$u7b$$u7b$closure$u7d$$u7d$17h1b0366b49dcdc3eaE"(ptr align 8 %_1, i1 zeroext %guard) unnamed_addr #0 {
start:
  call void @my_func_entry(ptr @"_ZN3std4sync6poison5mutex19MutexGuard$LT$T$GT$3new28_$u7b$$u7b$closure$u7d$$u7d$17h1b0366b49dcdc3eaE.str")
  %0 = insertvalue { ptr, i1 } poison, ptr %_1, 0
  %1 = insertvalue { ptr, i1 } %0, i1 %guard, 1
  call void @my_func_exit(ptr @"_ZN3std4sync6poison5mutex19MutexGuard$LT$T$GT$3new28_$u7b$$u7b$closure$u7d$$u7d$17h1b0366b49dcdc3eaE.str")
  ret { ptr, i1 } %1
}

; Function Attrs: inlinehint nonlazybind uwtable
define { ptr, i1 } @"_ZN3std4sync6poison5mutex19MutexGuard$LT$T$GT$3new28_$u7b$$u7b$closure$u7d$$u7d$17hb14636ae5e4789ecE"(ptr align 8 %_1, i1 zeroext %guard) unnamed_addr #0 {
start:
  call void @my_func_entry(ptr @"_ZN3std4sync6poison5mutex19MutexGuard$LT$T$GT$3new28_$u7b$$u7b$closure$u7d$$u7d$17hb14636ae5e4789ecE.str")
  %0 = insertvalue { ptr, i1 } poison, ptr %_1, 0
  %1 = insertvalue { ptr, i1 } %0, i1 %guard, 1
  call void @my_func_exit(ptr @"_ZN3std4sync6poison5mutex19MutexGuard$LT$T$GT$3new28_$u7b$$u7b$closure$u7d$$u7d$17hb14636ae5e4789ecE.str")
  ret { ptr, i1 } %1
}

; Function Attrs: inlinehint nonlazybind uwtable
define void @"_ZN3std4sync6poison6rwlock15RwLock$LT$T$GT$3new17h9c0f00f10853202bE"(ptr sret([40 x i8]) align 8 %_0, ptr align 8 %t) unnamed_addr #0 {
start:
  call void @my_func_entry(ptr @"_ZN3std4sync6poison6rwlock15RwLock$LT$T$GT$3new17h9c0f00f10853202bE.str")
  %_6 = alloca [1 x i8], align 1
  %_5 = alloca [4 x i8], align 4
  %_4 = alloca [24 x i8], align 8
  %_3 = alloca [1 x i8], align 1
  %_2 = alloca [8 x i8], align 4
  store i32 0, ptr %_5, align 4
  call void @my_store_hook(ptr %_5, i64 4, ptr @"_ZN3std4sync6poison6rwlock15RwLock$LT$T$GT$3new17h9c0f00f10853202bE.str")
  call void @llvm.memcpy.p0.p0.i64(ptr align 4 %_2, ptr align 4 %_5, i64 4, i1 false)
  %0 = getelementptr inbounds i8, ptr %_2, i64 4
  call void @llvm.memcpy.p0.p0.i64(ptr align 4 %0, ptr align 4 %_5, i64 4, i1 false)
  store i8 0, ptr %_6, align 1
  call void @my_store_hook(ptr %_6, i64 1, ptr @"_ZN3std4sync6poison6rwlock15RwLock$LT$T$GT$3new17h9c0f00f10853202bE.str")
  call void @llvm.memcpy.p0.p0.i64(ptr align 1 %_3, ptr align 1 %_6, i64 1, i1 false)
  call void @llvm.memcpy.p0.p0.i64(ptr align 8 %_4, ptr align 8 %t, i64 24, i1 false)
  call void @llvm.memcpy.p0.p0.i64(ptr align 8 %_0, ptr align 4 %_2, i64 8, i1 false)
  %1 = getelementptr inbounds i8, ptr %_0, i64 8
  call void @llvm.memcpy.p0.p0.i64(ptr align 8 %1, ptr align 1 %_3, i64 1, i1 false)
  %2 = getelementptr inbounds i8, ptr %_0, i64 16
  call void @llvm.memcpy.p0.p0.i64(ptr align 8 %2, ptr align 8 %_4, i64 24, i1 false)
  call void @my_func_exit(ptr @"_ZN3std4sync6poison6rwlock15RwLock$LT$T$GT$3new17h9c0f00f10853202bE.str")
  ret void
}

; Function Attrs: inlinehint nonlazybind uwtable
define void @"_ZN3std4sync6poison6rwlock15RwLock$LT$T$GT$4read17hacf890e92ff74b9bE"(ptr sret([24 x i8]) align 8 %_0, ptr align 8 %self) unnamed_addr #0 {
start:
  call void @my_func_entry(ptr @"_ZN3std4sync6poison6rwlock15RwLock$LT$T$GT$4read17hacf890e92ff74b9bE.str")
  call void @_ZN3std3sys4sync6rwlock5futex6RwLock4read17h4637ff57848efbb6E(ptr align 4 %self)
  call void @"_ZN3std4sync6poison6rwlock24RwLockReadGuard$LT$T$GT$3new17hdc4afbfa7e112118E"(ptr sret([24 x i8]) align 8 %_0, ptr align 8 %self)
  call void @my_func_exit(ptr @"_ZN3std4sync6poison6rwlock15RwLock$LT$T$GT$4read17hacf890e92ff74b9bE.str")
  ret void
}

; Function Attrs: inlinehint nonlazybind uwtable
define void @"_ZN3std4sync6poison6rwlock15RwLock$LT$T$GT$5write17h892aa683d4931543E"(ptr sret([24 x i8]) align 8 %_0, ptr align 8 %self) unnamed_addr #0 {
start:
  call void @my_func_entry(ptr @"_ZN3std4sync6poison6rwlock15RwLock$LT$T$GT$5write17h892aa683d4931543E.str")
  %_5 = alloca [8 x i8], align 4
  %0 = call { i32, i32 } @_ZN4core4sync6atomic28atomic_compare_exchange_weak17h4c07a82ba058abb3E(ptr %self, i32 0, i32 1073741823, i8 2, i8 0)
  %1 = extractvalue { i32, i32 } %0, 0
  %2 = extractvalue { i32, i32 } %0, 1
  store i32 %1, ptr %_5, align 4
  call void @my_store_hook(ptr %_5, i64 4, ptr @"_ZN3std4sync6poison6rwlock15RwLock$LT$T$GT$5write17h892aa683d4931543E.str")
  %3 = getelementptr inbounds i8, ptr %_5, i64 4
  store i32 %2, ptr %3, align 4
  call void @my_store_hook(ptr %3, i64 4, ptr @"_ZN3std4sync6poison6rwlock15RwLock$LT$T$GT$5write17h892aa683d4931543E.str")
  %4 = load i32, ptr %_5, align 4
  call void @my_load_hook(ptr %_5, i64 4, ptr @"_ZN3std4sync6poison6rwlock15RwLock$LT$T$GT$5write17h892aa683d4931543E.str")
  %5 = getelementptr inbounds i8, ptr %_5, i64 4
  %6 = load i32, ptr %5, align 4
  call void @my_load_hook(ptr %5, i64 4, ptr @"_ZN3std4sync6poison6rwlock15RwLock$LT$T$GT$5write17h892aa683d4931543E.str")
  %_12 = zext i32 %4 to i64
  %_11 = icmp eq i64 %_12, 0
  %_3 = xor i1 %_11, true
  br i1 %_3, label %bb1, label %bb2

bb2:                                              ; preds = %start
  br label %bb3

bb1:                                              ; preds = %start
  call void @_ZN3std3sys4sync6rwlock5futex6RwLock15write_contended17hec0a8d108e4634b5E(ptr align 4 %self)
  br label %bb3

bb3:                                              ; preds = %bb1, %bb2
  %_14 = getelementptr inbounds i8, ptr %self, i64 8
  %7 = call { i1, i8 } @_ZN3std4sync6poison4Flag5guard17ha40114775bf8d8a9E(ptr align 1 %_14)
  %_13.0 = extractvalue { i1, i8 } %7, 0
  %_13.1 = extractvalue { i1, i8 } %7, 1
  call void @_ZN3std4sync6poison10map_result17hdfc069f0ced61faaE(ptr sret([24 x i8]) align 8 %_0, i1 zeroext %_13.0, i8 %_13.1, ptr align 8 %self)
  call void @my_func_exit(ptr @"_ZN3std4sync6poison6rwlock15RwLock$LT$T$GT$5write17h892aa683d4931543E.str")
  ret void
}

; Function Attrs: nonlazybind uwtable
define void @"_ZN3std4sync6poison6rwlock24RwLockReadGuard$LT$T$GT$3new17hdc4afbfa7e112118E"(ptr sret([24 x i8]) align 8 %_0, ptr align 8 %lock) unnamed_addr #1 {
start:
  call void @my_func_entry(ptr @"_ZN3std4sync6poison6rwlock24RwLockReadGuard$LT$T$GT$3new17hdc4afbfa7e112118E.str")
  %_2 = alloca [1 x i8], align 1
  %self = getelementptr inbounds i8, ptr %lock, i64 8
  %self1 = getelementptr inbounds i8, ptr %lock, i64 8
  %self2 = getelementptr inbounds i8, ptr %lock, i64 8
  %_9 = getelementptr inbounds i8, ptr %lock, i64 8
  %_6 = call i8 @_ZN4core4sync6atomic11atomic_load17he8828ea078801ea3E(ptr %_9, i8 0)
  %0 = icmp eq i8 %_6, 0
  br i1 %0, label %bb4, label %bb3

bb4:                                              ; preds = %start
  store i8 0, ptr %_2, align 1
  call void @my_store_hook(ptr %_2, i64 1, ptr @"_ZN3std4sync6poison6rwlock24RwLockReadGuard$LT$T$GT$3new17hdc4afbfa7e112118E.str")
  br label %bb2

bb3:                                              ; preds = %start
  store i8 1, ptr %_2, align 1
  call void @my_store_hook(ptr %_2, i64 1, ptr @"_ZN3std4sync6poison6rwlock24RwLockReadGuard$LT$T$GT$3new17hdc4afbfa7e112118E.str")
  br label %bb2

bb2:                                              ; preds = %bb3, %bb4
  %1 = load i8, ptr %_2, align 1
  call void @my_load_hook(ptr %_2, i64 1, ptr @"_ZN3std4sync6poison6rwlock24RwLockReadGuard$LT$T$GT$3new17hdc4afbfa7e112118E.str")
  %2 = trunc nuw i8 %1 to i1
  call void @_ZN3std4sync6poison10map_result17h2e56805eb16aed47E(ptr sret([24 x i8]) align 8 %_0, i1 zeroext %2, ptr align 8 %lock)
  call void @my_func_exit(ptr @"_ZN3std4sync6poison6rwlock24RwLockReadGuard$LT$T$GT$3new17hdc4afbfa7e112118E.str")
  ret void
}

; Function Attrs: inlinehint nonlazybind uwtable
define { ptr, ptr } @"_ZN3std4sync6poison6rwlock24RwLockReadGuard$LT$T$GT$3new28_$u7b$$u7b$closure$u7d$$u7d$17h40e8e5495417ea92E"(ptr align 8 %_1) unnamed_addr #0 {
start:
  call void @my_func_entry(ptr @"_ZN3std4sync6poison6rwlock24RwLockReadGuard$LT$T$GT$3new28_$u7b$$u7b$closure$u7d$$u7d$17h40e8e5495417ea92E.str")
  %self = getelementptr inbounds i8, ptr %_1, i64 16
  %_8 = getelementptr inbounds i8, ptr %_1, i64 16
  br label %bb1

bb1:                                              ; preds = %start
  call void @"_ZN4core3ptr8non_null16NonNull$LT$T$GT$13new_unchecked18precondition_check17h1908d8c30a2aab75E"(ptr %_8, ptr align 8 @alloc_9fec87cf92ceec07b8fed8607a9fc15a) #18
  br label %bb3

bb3:                                              ; preds = %bb1
  %0 = insertvalue { ptr, ptr } poison, ptr %_8, 0
  %1 = insertvalue { ptr, ptr } %0, ptr %_1, 1
  call void @my_func_exit(ptr @"_ZN3std4sync6poison6rwlock24RwLockReadGuard$LT$T$GT$3new28_$u7b$$u7b$closure$u7d$$u7d$17h40e8e5495417ea92E.str")
  ret { ptr, ptr } %1
}

; Function Attrs: inlinehint nonlazybind uwtable
define { ptr, i1 } @"_ZN3std4sync6poison6rwlock25RwLockWriteGuard$LT$T$GT$3new28_$u7b$$u7b$closure$u7d$$u7d$17he59cd5555e62833aE"(ptr align 8 %_1, i1 zeroext %guard) unnamed_addr #0 {
start:
  call void @my_func_entry(ptr @"_ZN3std4sync6poison6rwlock25RwLockWriteGuard$LT$T$GT$3new28_$u7b$$u7b$closure$u7d$$u7d$17he59cd5555e62833aE.str")
  %0 = insertvalue { ptr, i1 } poison, ptr %_1, 0
  %1 = insertvalue { ptr, i1 } %0, i1 %guard, 1
  call void @my_func_exit(ptr @"_ZN3std4sync6poison6rwlock25RwLockWriteGuard$LT$T$GT$3new28_$u7b$$u7b$closure$u7d$$u7d$17he59cd5555e62833aE.str")
  ret { ptr, i1 } %1
}

; Function Attrs: nonlazybind uwtable
define void @"_ZN43_$LT$T$u20$as$u20$inventory..ErasedNode$GT$6submit17hc973b6a456e32ad4E"(ptr align 8 %self, ptr align 8 %node) unnamed_addr #1 {
start:
  call void @my_func_entry(ptr @"_ZN43_$LT$T$u20$as$u20$inventory..ErasedNode$GT$6submit17hc973b6a456e32ad4E.str")
  %_4 = call align 8 ptr @"_ZN67_$LT$component..ComponentRegistry$u20$as$u20$inventory..Collect$GT$8registry17h2f8b3429c1d8b15fE"()
  call void @_ZN9inventory8Registry6submit17h532dc8c658cb9092E(ptr align 8 %_4, ptr align 8 %node)
  call void @my_func_exit(ptr @"_ZN43_$LT$T$u20$as$u20$inventory..ErasedNode$GT$6submit17hc973b6a456e32ad4E.str")
  ret void
}

; Function Attrs: nonlazybind uwtable
define void @"_ZN44_$LT$T$u20$as$u20$alloc..borrow..ToOwned$GT$8to_owned17h57a83f4c90b9add9E"(ptr sret([16 x i8]) align 8 %_0, ptr align 8 %self) unnamed_addr #1 {
start:
  call void @my_func_entry(ptr @"_ZN44_$LT$T$u20$as$u20$alloc..borrow..ToOwned$GT$8to_owned17h57a83f4c90b9add9E.str")
  call void @"_ZN61_$LT$aster_time..SystemTime$u20$as$u20$core..clone..Clone$GT$5clone17h3f8401e5fbd5aba3E"(ptr sret([16 x i8]) align 8 %_0, ptr align 8 %self)
  call void @my_func_exit(ptr @"_ZN44_$LT$T$u20$as$u20$alloc..borrow..ToOwned$GT$8to_owned17h57a83f4c90b9add9E.str")
  ret void
}

; Function Attrs: inlinehint nonlazybind uwtable
define void @"_ZN48_$LT$$RF$A$u20$as$u20$core..alloc..Allocator$GT$10deallocate17h42060844d6956627E"(ptr align 8 %self, ptr %ptr, i64 %layout.0, i64 %layout.1) unnamed_addr #0 {
start:
  call void @my_func_entry(ptr @"_ZN48_$LT$$RF$A$u20$as$u20$core..alloc..Allocator$GT$10deallocate17h42060844d6956627E.str")
  %_4 = load ptr, ptr %self, align 8
  call void @my_load_hook(ptr %self, i64 8, ptr @"_ZN48_$LT$$RF$A$u20$as$u20$core..alloc..Allocator$GT$10deallocate17h42060844d6956627E.str")
  call void @"_ZN63_$LT$alloc..alloc..Global$u20$as$u20$core..alloc..Allocator$GT$10deallocate17h060cb63953f482c4E"(ptr align 1 %_4, ptr %ptr, i64 %layout.0, i64 %layout.1)
  call void @my_func_exit(ptr @"_ZN48_$LT$$RF$A$u20$as$u20$core..alloc..Allocator$GT$10deallocate17h42060844d6956627E.str")
  ret void
}

; Function Attrs: cold nounwind nonlazybind uwtable
define internal void @_ZN4core10intrinsics9cold_path17h0464e1329d233765E() unnamed_addr #2 {
start:
  call void @my_func_entry(ptr @_ZN4core10intrinsics9cold_path17h0464e1329d233765E.str)
  call void @my_func_exit(ptr @_ZN4core10intrinsics9cold_path17h0464e1329d233765E.str)
  ret void
}

; Function Attrs: inlinehint nonlazybind uwtable
define i64 @_ZN4core3cmp3Ord3max17h4b62dcad4371fe7dE(i64 %0, i64 %1) unnamed_addr #0 personality ptr @rust_eh_personality {
start:
  call void @my_func_entry(ptr @_ZN4core3cmp3Ord3max17h4b62dcad4371fe7dE.str)
  %2 = alloca [16 x i8], align 8
  %_6 = alloca [1 x i8], align 1
  %_0 = alloca [8 x i8], align 8
  %other = alloca [8 x i8], align 8
  %self = alloca [8 x i8], align 8
  store i64 %0, ptr %self, align 8
  call void @my_store_hook(ptr %self, i64 8, ptr @_ZN4core3cmp3Ord3max17h4b62dcad4371fe7dE.str)
  store i64 %1, ptr %other, align 8
  call void @my_store_hook(ptr %other, i64 8, ptr @_ZN4core3cmp3Ord3max17h4b62dcad4371fe7dE.str)
  store i8 1, ptr %_6, align 1
  call void @my_store_hook(ptr %_6, i64 1, ptr @_ZN4core3cmp3Ord3max17h4b62dcad4371fe7dE.str)
  %_3.i = load i64, ptr %other, align 8
  call void @my_load_hook(ptr %other, i64 8, ptr @_ZN4core3cmp3Ord3max17h4b62dcad4371fe7dE.str)
  %_4.i = load i64, ptr %self, align 8
  call void @my_load_hook(ptr %self, i64 8, ptr @_ZN4core3cmp3Ord3max17h4b62dcad4371fe7dE.str)
  %_0.i = icmp ult i64 %_3.i, %_4.i
  br label %bb1

bb5:                                              ; preds = %cleanup
  br label %bb9

cleanup:                                          ; No predecessors!
  %3 = landingpad { ptr, i32 }
          cleanup
  %4 = extractvalue { ptr, i32 } %3, 0
  %5 = extractvalue { ptr, i32 } %3, 1
  store ptr %4, ptr %2, align 8
  call void @my_store_hook(ptr %2, i64 8, ptr @_ZN4core3cmp3Ord3max17h4b62dcad4371fe7dE.str)
  %6 = getelementptr inbounds i8, ptr %2, i64 8
  store i32 %5, ptr %6, align 8
  call void @my_store_hook(ptr %6, i64 4, ptr @_ZN4core3cmp3Ord3max17h4b62dcad4371fe7dE.str)
  br label %bb5

bb1:                                              ; preds = %start
  br i1 %_0.i, label %bb2, label %bb3

bb3:                                              ; preds = %bb1
  %7 = load i64, ptr %other, align 8
  call void @my_load_hook(ptr %other, i64 8, ptr @_ZN4core3cmp3Ord3max17h4b62dcad4371fe7dE.str)
  store i64 %7, ptr %_0, align 8
  call void @my_store_hook(ptr %_0, i64 8, ptr @_ZN4core3cmp3Ord3max17h4b62dcad4371fe7dE.str)
  %8 = load i8, ptr %_6, align 1
  call void @my_load_hook(ptr %_6, i64 1, ptr @_ZN4core3cmp3Ord3max17h4b62dcad4371fe7dE.str)
  %9 = trunc nuw i8 %8 to i1
  br i1 %9, label %bb7, label %bb4

bb2:                                              ; preds = %bb1
  store i8 0, ptr %_6, align 1
  call void @my_store_hook(ptr %_6, i64 1, ptr @_ZN4core3cmp3Ord3max17h4b62dcad4371fe7dE.str)
  %10 = load i64, ptr %self, align 8
  call void @my_load_hook(ptr %self, i64 8, ptr @_ZN4core3cmp3Ord3max17h4b62dcad4371fe7dE.str)
  store i64 %10, ptr %_0, align 8
  call void @my_store_hook(ptr %_0, i64 8, ptr @_ZN4core3cmp3Ord3max17h4b62dcad4371fe7dE.str)
  br label %bb4

bb4:                                              ; preds = %bb7, %bb2, %bb3
  %11 = load i64, ptr %_0, align 8
  call void @my_load_hook(ptr %_0, i64 8, ptr @_ZN4core3cmp3Ord3max17h4b62dcad4371fe7dE.str)
  call void @my_func_exit(ptr @_ZN4core3cmp3Ord3max17h4b62dcad4371fe7dE.str)
  ret i64 %11

bb7:                                              ; preds = %bb3
  br label %bb4

bb9:                                              ; preds = %bb5
  %12 = load i8, ptr %_6, align 1
  call void @my_load_hook(ptr %_6, i64 1, ptr @_ZN4core3cmp3Ord3max17h4b62dcad4371fe7dE.str)
  %13 = trunc nuw i8 %12 to i1
  br i1 %13, label %bb8, label %bb6

bb6:                                              ; preds = %bb8, %bb9
  %14 = load ptr, ptr %2, align 8
  call void @my_load_hook(ptr %2, i64 8, ptr @_ZN4core3cmp3Ord3max17h4b62dcad4371fe7dE.str)
  %15 = getelementptr inbounds i8, ptr %2, i64 8
  %16 = load i32, ptr %15, align 8
  call void @my_load_hook(ptr %15, i64 4, ptr @_ZN4core3cmp3Ord3max17h4b62dcad4371fe7dE.str)
  %17 = insertvalue { ptr, i32 } poison, ptr %14, 0
  %18 = insertvalue { ptr, i32 } %17, i32 %16, 1
  resume { ptr, i32 } %18

bb8:                                              ; preds = %bb9
  br label %bb6
}

; Function Attrs: inlinehint nonlazybind uwtable
define i64 @_ZN4core3cmp3max17h6bfb774328b471faE(i64 %v1, i64 %v2) unnamed_addr #0 {
start:
  call void @my_func_entry(ptr @_ZN4core3cmp3max17h6bfb774328b471faE.str)
  %_0 = call i64 @_ZN4core3cmp3Ord3max17h4b62dcad4371fe7dE(i64 %v1, i64 %v2)
  call void @my_func_exit(ptr @_ZN4core3cmp3max17h6bfb774328b471faE.str)
  ret i64 %_0
}

; Function Attrs: inlinehint nonlazybind uwtable
define void @"_ZN4core3fmt2rt38_$LT$impl$u20$core..fmt..Arguments$GT$6new_v117hce1705bf7ef10a39E"(ptr sret([48 x i8]) align 8 %_0, ptr align 8 %pieces, ptr align 8 %args) unnamed_addr #0 {
start:
  call void @my_func_entry(ptr @"_ZN4core3fmt2rt38_$LT$impl$u20$core..fmt..Arguments$GT$6new_v117hce1705bf7ef10a39E.str")
  store ptr %pieces, ptr %_0, align 8
  call void @my_store_hook(ptr %_0, i64 8, ptr @"_ZN4core3fmt2rt38_$LT$impl$u20$core..fmt..Arguments$GT$6new_v117hce1705bf7ef10a39E.str")
  %0 = getelementptr inbounds i8, ptr %_0, i64 8
  store i64 2, ptr %0, align 8
  call void @my_store_hook(ptr %0, i64 8, ptr @"_ZN4core3fmt2rt38_$LT$impl$u20$core..fmt..Arguments$GT$6new_v117hce1705bf7ef10a39E.str")
  %1 = load ptr, ptr @anon.8907c793926939c1a3db336f022d0871.0, align 8
  call void @my_load_hook(ptr @anon.8907c793926939c1a3db336f022d0871.0, i64 8, ptr @"_ZN4core3fmt2rt38_$LT$impl$u20$core..fmt..Arguments$GT$6new_v117hce1705bf7ef10a39E.str")
  %2 = load i64, ptr getelementptr inbounds (i8, ptr @anon.8907c793926939c1a3db336f022d0871.0, i64 8), align 8
  call void @my_load_hook(ptr getelementptr inbounds (i8, ptr @anon.8907c793926939c1a3db336f022d0871.0, i64 8), i64 8, ptr @"_ZN4core3fmt2rt38_$LT$impl$u20$core..fmt..Arguments$GT$6new_v117hce1705bf7ef10a39E.str")
  %3 = getelementptr inbounds i8, ptr %_0, i64 32
  store ptr %1, ptr %3, align 8
  call void @my_store_hook(ptr %3, i64 8, ptr @"_ZN4core3fmt2rt38_$LT$impl$u20$core..fmt..Arguments$GT$6new_v117hce1705bf7ef10a39E.str")
  %4 = getelementptr inbounds i8, ptr %3, i64 8
  store i64 %2, ptr %4, align 8
  call void @my_store_hook(ptr %4, i64 8, ptr @"_ZN4core3fmt2rt38_$LT$impl$u20$core..fmt..Arguments$GT$6new_v117hce1705bf7ef10a39E.str")
  %5 = getelementptr inbounds i8, ptr %_0, i64 16
  store ptr %args, ptr %5, align 8
  call void @my_store_hook(ptr %5, i64 8, ptr @"_ZN4core3fmt2rt38_$LT$impl$u20$core..fmt..Arguments$GT$6new_v117hce1705bf7ef10a39E.str")
  %6 = getelementptr inbounds i8, ptr %5, i64 8
  store i64 1, ptr %6, align 8
  call void @my_store_hook(ptr %6, i64 8, ptr @"_ZN4core3fmt2rt38_$LT$impl$u20$core..fmt..Arguments$GT$6new_v117hce1705bf7ef10a39E.str")
  call void @my_func_exit(ptr @"_ZN4core3fmt2rt38_$LT$impl$u20$core..fmt..Arguments$GT$6new_v117hce1705bf7ef10a39E.str")
  ret void
}

; Function Attrs: inlinehint nonlazybind uwtable
define void @_ZN4core3fmt2rt8Argument11new_display17h99bb27d3de477121E(ptr sret([16 x i8]) align 8 %_0, ptr align 1 %x) unnamed_addr #0 {
start:
  call void @my_func_entry(ptr @_ZN4core3fmt2rt8Argument11new_display17h99bb27d3de477121E.str)
  %_2 = alloca [16 x i8], align 8
  store ptr %x, ptr %_2, align 8
  call void @my_store_hook(ptr %_2, i64 8, ptr @_ZN4core3fmt2rt8Argument11new_display17h99bb27d3de477121E.str)
  %0 = getelementptr inbounds i8, ptr %_2, i64 8
  store ptr @"_ZN4core3fmt3num3imp51_$LT$impl$u20$core..fmt..Display$u20$for$u20$u8$GT$3fmt17hdc859b8b7f9bee81E", ptr %0, align 8
  call void @my_store_hook(ptr %0, i64 8, ptr @_ZN4core3fmt2rt8Argument11new_display17h99bb27d3de477121E.str)
  call void @llvm.memcpy.p0.p0.i64(ptr align 8 %_0, ptr align 8 %_2, i64 16, i1 false)
  call void @my_func_exit(ptr @_ZN4core3fmt2rt8Argument11new_display17h99bb27d3de477121E.str)
  ret void
}

; Function Attrs: inlinehint nonlazybind uwtable
define internal i64 @_ZN4core3ops8function2Fn4call17h28e83b42f6ba259fE(ptr align 1 %_1) unnamed_addr #0 {
start:
  call void @my_func_entry(ptr @_ZN4core3ops8function2Fn4call17h28e83b42f6ba259fE.str)
  %_2 = alloca [0 x i8], align 1
  %_0 = call i64 @_ZN4ostd4arch8read_tsc17h0a77b632809ee88bE()
  call void @my_func_exit(ptr @_ZN4core3ops8function2Fn4call17h28e83b42f6ba259fE.str)
  ret i64 %_0
}

; Function Attrs: inlinehint nonlazybind uwtable
define internal zeroext i1 @_ZN4core3ops8function2Fn4call17h736985aa31143530E(ptr align 1 %_1) unnamed_addr #0 {
start:
  call void @my_func_entry(ptr @_ZN4core3ops8function2Fn4call17h736985aa31143530E.str)
  %_2 = alloca [0 x i8], align 1
  %_0 = call zeroext i1 @_ZN10aster_time9time_init17h9036040106292c63E()
  call void @my_func_exit(ptr @_ZN4core3ops8function2Fn4call17h736985aa31143530E.str)
  ret i1 %_0
}

; Function Attrs: inlinehint nonlazybind uwtable
define internal i64 @_ZN4core3ops8function5FnMut8call_mut17h5a7e3da8d47841f5E(ptr align 1 %_1) unnamed_addr #0 {
start:
  call void @my_func_entry(ptr @_ZN4core3ops8function5FnMut8call_mut17h5a7e3da8d47841f5E.str)
  %_2 = alloca [0 x i8], align 1
  %_0 = call i64 @_ZN4ostd4arch8read_tsc17h0a77b632809ee88bE()
  call void @my_func_exit(ptr @_ZN4core3ops8function5FnMut8call_mut17h5a7e3da8d47841f5E.str)
  ret i64 %_0
}

; Function Attrs: inlinehint nonlazybind uwtable
define internal zeroext i1 @_ZN4core3ops8function5FnMut8call_mut17hb6b567a75fa3108fE(ptr align 1 %_1) unnamed_addr #0 {
start:
  call void @my_func_entry(ptr @_ZN4core3ops8function5FnMut8call_mut17hb6b567a75fa3108fE.str)
  %_2 = alloca [0 x i8], align 1
  %_0 = call zeroext i1 @_ZN10aster_time9time_init17h9036040106292c63E()
  call void @my_func_exit(ptr @_ZN4core3ops8function5FnMut8call_mut17hb6b567a75fa3108fE.str)
  ret i1 %_0
}

; Function Attrs: inlinehint nonlazybind uwtable
define internal zeroext i1 @"_ZN4core3ops8function6FnOnce40call_once$u7b$$u7b$vtable.shim$u7d$$u7d$17h4a580298cf35ede6E"(ptr %_1) unnamed_addr #0 {
start:
  call void @my_func_entry(ptr @"_ZN4core3ops8function6FnOnce40call_once$u7b$$u7b$vtable.shim$u7d$$u7d$17h4a580298cf35ede6E.str")
  %_2 = alloca [0 x i8], align 1
  %_0 = call zeroext i1 @_ZN4core3ops8function6FnOnce9call_once17h0177c0564c8f8b79E(ptr align 8 %_1)
  call void @my_func_exit(ptr @"_ZN4core3ops8function6FnOnce40call_once$u7b$$u7b$vtable.shim$u7d$$u7d$17h4a580298cf35ede6E.str")
  ret i1 %_0
}

; Function Attrs: inlinehint nonlazybind uwtable
define internal void @"_ZN4core3ops8function6FnOnce40call_once$u7b$$u7b$vtable.shim$u7d$$u7d$17h863b67d244b59dcfE"(ptr %_1) unnamed_addr #0 {
start:
  call void @my_func_entry(ptr @"_ZN4core3ops8function6FnOnce40call_once$u7b$$u7b$vtable.shim$u7d$$u7d$17h863b67d244b59dcfE.str")
  %_2 = alloca [0 x i8], align 1
  %0 = load i64, ptr %_1, align 8
  call void @my_load_hook(ptr %_1, i64 8, ptr @"_ZN4core3ops8function6FnOnce40call_once$u7b$$u7b$vtable.shim$u7d$$u7d$17h863b67d244b59dcfE.str")
  call void @_ZN4core3ops8function6FnOnce9call_once17h5db841c9a5a52937E(i64 %0)
  call void @my_func_exit(ptr @"_ZN4core3ops8function6FnOnce40call_once$u7b$$u7b$vtable.shim$u7d$$u7d$17h863b67d244b59dcfE.str")
  ret void
}

; Function Attrs: inlinehint nonlazybind uwtable
define internal zeroext i1 @"_ZN4core3ops8function6FnOnce40call_once$u7b$$u7b$vtable.shim$u7d$$u7d$17h8f7d597d44f86007E"(ptr %_1) unnamed_addr #0 {
start:
  call void @my_func_entry(ptr @"_ZN4core3ops8function6FnOnce40call_once$u7b$$u7b$vtable.shim$u7d$$u7d$17h8f7d597d44f86007E.str")
  %_2 = alloca [0 x i8], align 1
  %_0 = call zeroext i1 @_ZN4core3ops8function6FnOnce9call_once17hf46a6687b29fe872E(ptr align 8 %_1)
  call void @my_func_exit(ptr @"_ZN4core3ops8function6FnOnce40call_once$u7b$$u7b$vtable.shim$u7d$$u7d$17h8f7d597d44f86007E.str")
  ret i1 %_0
}

; Function Attrs: inlinehint nonlazybind uwtable
define internal zeroext i1 @"_ZN4core3ops8function6FnOnce40call_once$u7b$$u7b$vtable.shim$u7d$$u7d$17hbc05b1e5504e682eE"(ptr %_1) unnamed_addr #0 {
start:
  call void @my_func_entry(ptr @"_ZN4core3ops8function6FnOnce40call_once$u7b$$u7b$vtable.shim$u7d$$u7d$17hbc05b1e5504e682eE.str")
  %_2 = alloca [0 x i8], align 1
  %_0 = call zeroext i1 @_ZN4core3ops8function6FnOnce9call_once17h273edc36b40e1429E(ptr align 8 %_1)
  call void @my_func_exit(ptr @"_ZN4core3ops8function6FnOnce40call_once$u7b$$u7b$vtable.shim$u7d$$u7d$17hbc05b1e5504e682eE.str")
  ret i1 %_0
}

; Function Attrs: inlinehint nonlazybind uwtable
define internal i64 @"_ZN4core3ops8function6FnOnce40call_once$u7b$$u7b$vtable.shim$u7d$$u7d$17hbe37db54a435222aE"(ptr %_1) unnamed_addr #0 {
start:
  call void @my_func_entry(ptr @"_ZN4core3ops8function6FnOnce40call_once$u7b$$u7b$vtable.shim$u7d$$u7d$17hbe37db54a435222aE.str")
  %_2 = alloca [0 x i8], align 1
  %_0 = call i64 @_ZN4core3ops8function6FnOnce9call_once17h772a4b0000cec9d6E()
  call void @my_func_exit(ptr @"_ZN4core3ops8function6FnOnce40call_once$u7b$$u7b$vtable.shim$u7d$$u7d$17hbe37db54a435222aE.str")
  ret i64 %_0
}

; Function Attrs: inlinehint nonlazybind uwtable
define internal zeroext i1 @"_ZN4core3ops8function6FnOnce40call_once$u7b$$u7b$vtable.shim$u7d$$u7d$17hd07235f6d2941a02E"(ptr %_1) unnamed_addr #0 {
start:
  call void @my_func_entry(ptr @"_ZN4core3ops8function6FnOnce40call_once$u7b$$u7b$vtable.shim$u7d$$u7d$17hd07235f6d2941a02E.str")
  %_2 = alloca [0 x i8], align 1
  %_0 = call zeroext i1 @_ZN4core3ops8function6FnOnce9call_once17h6f55a92772cd446fE(ptr align 8 %_1)
  call void @my_func_exit(ptr @"_ZN4core3ops8function6FnOnce40call_once$u7b$$u7b$vtable.shim$u7d$$u7d$17hd07235f6d2941a02E.str")
  ret i1 %_0
}

; Function Attrs: inlinehint nonlazybind uwtable
define internal zeroext i1 @"_ZN4core3ops8function6FnOnce40call_once$u7b$$u7b$vtable.shim$u7d$$u7d$17hd6a2679e85a103f7E"(ptr %_1) unnamed_addr #0 {
start:
  call void @my_func_entry(ptr @"_ZN4core3ops8function6FnOnce40call_once$u7b$$u7b$vtable.shim$u7d$$u7d$17hd6a2679e85a103f7E.str")
  %_2 = alloca [0 x i8], align 1
  %_0 = call zeroext i1 @_ZN4core3ops8function6FnOnce9call_once17h3542da31ad3c2ccfE()
  call void @my_func_exit(ptr @"_ZN4core3ops8function6FnOnce40call_once$u7b$$u7b$vtable.shim$u7d$$u7d$17hd6a2679e85a103f7E.str")
  ret i1 %_0
}

; Function Attrs: inlinehint nonlazybind uwtable
define internal zeroext i1 @"_ZN4core3ops8function6FnOnce40call_once$u7b$$u7b$vtable.shim$u7d$$u7d$17hfb7af4e5590a6e59E"(ptr %_1) unnamed_addr #0 {
start:
  call void @my_func_entry(ptr @"_ZN4core3ops8function6FnOnce40call_once$u7b$$u7b$vtable.shim$u7d$$u7d$17hfb7af4e5590a6e59E.str")
  %_2 = alloca [0 x i8], align 1
  %_0 = call zeroext i1 @_ZN4core3ops8function6FnOnce9call_once17h82f845d0f8636531E(ptr align 8 %_1)
  call void @my_func_exit(ptr @"_ZN4core3ops8function6FnOnce40call_once$u7b$$u7b$vtable.shim$u7d$$u7d$17hfb7af4e5590a6e59E.str")
  ret i1 %_0
}

; Function Attrs: inlinehint nonlazybind uwtable
define internal zeroext i1 @_ZN4core3ops8function6FnOnce9call_once17h0177c0564c8f8b79E(ptr align 8 %_1) unnamed_addr #0 personality ptr @rust_eh_personality {
start:
  call void @my_func_entry(ptr @_ZN4core3ops8function6FnOnce9call_once17h0177c0564c8f8b79E.str)
  %0 = alloca [16 x i8], align 8
  %_2 = alloca [0 x i8], align 1
  %_0 = invoke zeroext i1 @"_ZN9once_cell3imp17OnceCell$LT$T$GT$10initialize28_$u7b$$u7b$closure$u7d$$u7d$17haef9a4bef144bd32E"(ptr align 8 %_1)
          to label %bb1 unwind label %cleanup

bb3:                                              ; preds = %cleanup
  %1 = load ptr, ptr %0, align 8
  call void @my_load_hook(ptr %0, i64 8, ptr @_ZN4core3ops8function6FnOnce9call_once17h0177c0564c8f8b79E.str)
  %2 = getelementptr inbounds i8, ptr %0, i64 8
  %3 = load i32, ptr %2, align 8
  call void @my_load_hook(ptr %2, i64 4, ptr @_ZN4core3ops8function6FnOnce9call_once17h0177c0564c8f8b79E.str)
  %4 = insertvalue { ptr, i32 } poison, ptr %1, 0
  %5 = insertvalue { ptr, i32 } %4, i32 %3, 1
  resume { ptr, i32 } %5

cleanup:                                          ; preds = %start
  %6 = landingpad { ptr, i32 }
          cleanup
  %7 = extractvalue { ptr, i32 } %6, 0
  %8 = extractvalue { ptr, i32 } %6, 1
  store ptr %7, ptr %0, align 8
  call void @my_store_hook(ptr %0, i64 8, ptr @_ZN4core3ops8function6FnOnce9call_once17h0177c0564c8f8b79E.str)
  %9 = getelementptr inbounds i8, ptr %0, i64 8
  store i32 %8, ptr %9, align 8
  call void @my_store_hook(ptr %9, i64 4, ptr @_ZN4core3ops8function6FnOnce9call_once17h0177c0564c8f8b79E.str)
  br label %bb3

bb1:                                              ; preds = %start
  call void @my_func_exit(ptr @_ZN4core3ops8function6FnOnce9call_once17h0177c0564c8f8b79E.str)
  ret i1 %_0
}

; Function Attrs: inlinehint nonlazybind uwtable
define internal zeroext i1 @_ZN4core3ops8function6FnOnce9call_once17h273edc36b40e1429E(ptr align 8 %_1) unnamed_addr #0 personality ptr @rust_eh_personality {
start:
  call void @my_func_entry(ptr @_ZN4core3ops8function6FnOnce9call_once17h273edc36b40e1429E.str)
  %0 = alloca [16 x i8], align 8
  %_2 = alloca [0 x i8], align 1
  %_0 = invoke zeroext i1 @"_ZN9once_cell3imp17OnceCell$LT$T$GT$10initialize28_$u7b$$u7b$closure$u7d$$u7d$17h11cf0451ae43d00dE"(ptr align 8 %_1)
          to label %bb1 unwind label %cleanup

bb3:                                              ; preds = %cleanup
  %1 = load ptr, ptr %0, align 8
  call void @my_load_hook(ptr %0, i64 8, ptr @_ZN4core3ops8function6FnOnce9call_once17h273edc36b40e1429E.str)
  %2 = getelementptr inbounds i8, ptr %0, i64 8
  %3 = load i32, ptr %2, align 8
  call void @my_load_hook(ptr %2, i64 4, ptr @_ZN4core3ops8function6FnOnce9call_once17h273edc36b40e1429E.str)
  %4 = insertvalue { ptr, i32 } poison, ptr %1, 0
  %5 = insertvalue { ptr, i32 } %4, i32 %3, 1
  resume { ptr, i32 } %5

cleanup:                                          ; preds = %start
  %6 = landingpad { ptr, i32 }
          cleanup
  %7 = extractvalue { ptr, i32 } %6, 0
  %8 = extractvalue { ptr, i32 } %6, 1
  store ptr %7, ptr %0, align 8
  call void @my_store_hook(ptr %0, i64 8, ptr @_ZN4core3ops8function6FnOnce9call_once17h273edc36b40e1429E.str)
  %9 = getelementptr inbounds i8, ptr %0, i64 8
  store i32 %8, ptr %9, align 8
  call void @my_store_hook(ptr %9, i64 4, ptr @_ZN4core3ops8function6FnOnce9call_once17h273edc36b40e1429E.str)
  br label %bb3

bb1:                                              ; preds = %start
  call void @my_func_exit(ptr @_ZN4core3ops8function6FnOnce9call_once17h273edc36b40e1429E.str)
  ret i1 %_0
}

; Function Attrs: inlinehint nonlazybind uwtable
define internal zeroext i1 @_ZN4core3ops8function6FnOnce9call_once17h3542da31ad3c2ccfE() unnamed_addr #0 {
start:
  call void @my_func_entry(ptr @_ZN4core3ops8function6FnOnce9call_once17h3542da31ad3c2ccfE.str)
  %_2 = alloca [0 x i8], align 1
  %_0 = call zeroext i1 @_ZN10aster_time9time_init17h9036040106292c63E()
  call void @my_func_exit(ptr @_ZN4core3ops8function6FnOnce9call_once17h3542da31ad3c2ccfE.str)
  ret i1 %_0
}

; Function Attrs: inlinehint nonlazybind uwtable
define internal void @_ZN4core3ops8function6FnOnce9call_once17h4412d4096261f4d1E(ptr sret([32 x i8]) align 8 %_0, ptr %_1) unnamed_addr #0 {
start:
  call void @my_func_entry(ptr @_ZN4core3ops8function6FnOnce9call_once17h4412d4096261f4d1E.str)
  %_2 = alloca [0 x i8], align 1
  call void %_1(ptr sret([32 x i8]) align 8 %_0)
  call void @my_func_exit(ptr @_ZN4core3ops8function6FnOnce9call_once17h4412d4096261f4d1E.str)
  ret void
}

; Function Attrs: inlinehint nonlazybind uwtable
define internal void @_ZN4core3ops8function6FnOnce9call_once17h5db841c9a5a52937E(i64 %0) unnamed_addr #0 personality ptr @rust_eh_personality {
start:
  call void @my_func_entry(ptr @_ZN4core3ops8function6FnOnce9call_once17h5db841c9a5a52937E.str)
  %1 = alloca [16 x i8], align 8
  %_2 = alloca [0 x i8], align 1
  %_1 = alloca [8 x i8], align 8
  store i64 %0, ptr %_1, align 8
  call void @my_store_hook(ptr %_1, i64 8, ptr @_ZN4core3ops8function6FnOnce9call_once17h5db841c9a5a52937E.str)
  invoke void @"_ZN10aster_time3tsc10init_timer28_$u7b$$u7b$closure$u7d$$u7d$17h5e914eb7f3b8df5fE"(ptr align 8 %_1)
          to label %bb1 unwind label %cleanup

bb3:                                              ; preds = %cleanup
  %2 = load ptr, ptr %1, align 8
  call void @my_load_hook(ptr %1, i64 8, ptr @_ZN4core3ops8function6FnOnce9call_once17h5db841c9a5a52937E.str)
  %3 = getelementptr inbounds i8, ptr %1, i64 8
  %4 = load i32, ptr %3, align 8
  call void @my_load_hook(ptr %3, i64 4, ptr @_ZN4core3ops8function6FnOnce9call_once17h5db841c9a5a52937E.str)
  %5 = insertvalue { ptr, i32 } poison, ptr %2, 0
  %6 = insertvalue { ptr, i32 } %5, i32 %4, 1
  resume { ptr, i32 } %6

cleanup:                                          ; preds = %start
  %7 = landingpad { ptr, i32 }
          cleanup
  %8 = extractvalue { ptr, i32 } %7, 0
  %9 = extractvalue { ptr, i32 } %7, 1
  store ptr %8, ptr %1, align 8
  call void @my_store_hook(ptr %1, i64 8, ptr @_ZN4core3ops8function6FnOnce9call_once17h5db841c9a5a52937E.str)
  %10 = getelementptr inbounds i8, ptr %1, i64 8
  store i32 %9, ptr %10, align 8
  call void @my_store_hook(ptr %10, i64 4, ptr @_ZN4core3ops8function6FnOnce9call_once17h5db841c9a5a52937E.str)
  br label %bb3

bb1:                                              ; preds = %start
  call void @my_func_exit(ptr @_ZN4core3ops8function6FnOnce9call_once17h5db841c9a5a52937E.str)
  ret void
}

; Function Attrs: inlinehint nonlazybind uwtable
define internal zeroext i1 @_ZN4core3ops8function6FnOnce9call_once17h6f55a92772cd446fE(ptr align 8 %_1) unnamed_addr #0 personality ptr @rust_eh_personality {
start:
  call void @my_func_entry(ptr @_ZN4core3ops8function6FnOnce9call_once17h6f55a92772cd446fE.str)
  %0 = alloca [16 x i8], align 8
  %_2 = alloca [0 x i8], align 1
  %_0 = invoke zeroext i1 @"_ZN9once_cell3imp17OnceCell$LT$T$GT$10initialize28_$u7b$$u7b$closure$u7d$$u7d$17h0ecd92458addee89E"(ptr align 8 %_1)
          to label %bb1 unwind label %cleanup

bb3:                                              ; preds = %cleanup
  %1 = load ptr, ptr %0, align 8
  call void @my_load_hook(ptr %0, i64 8, ptr @_ZN4core3ops8function6FnOnce9call_once17h6f55a92772cd446fE.str)
  %2 = getelementptr inbounds i8, ptr %0, i64 8
  %3 = load i32, ptr %2, align 8
  call void @my_load_hook(ptr %2, i64 4, ptr @_ZN4core3ops8function6FnOnce9call_once17h6f55a92772cd446fE.str)
  %4 = insertvalue { ptr, i32 } poison, ptr %1, 0
  %5 = insertvalue { ptr, i32 } %4, i32 %3, 1
  resume { ptr, i32 } %5

cleanup:                                          ; preds = %start
  %6 = landingpad { ptr, i32 }
          cleanup
  %7 = extractvalue { ptr, i32 } %6, 0
  %8 = extractvalue { ptr, i32 } %6, 1
  store ptr %7, ptr %0, align 8
  call void @my_store_hook(ptr %0, i64 8, ptr @_ZN4core3ops8function6FnOnce9call_once17h6f55a92772cd446fE.str)
  %9 = getelementptr inbounds i8, ptr %0, i64 8
  store i32 %8, ptr %9, align 8
  call void @my_store_hook(ptr %9, i64 4, ptr @_ZN4core3ops8function6FnOnce9call_once17h6f55a92772cd446fE.str)
  br label %bb3

bb1:                                              ; preds = %start
  call void @my_func_exit(ptr @_ZN4core3ops8function6FnOnce9call_once17h6f55a92772cd446fE.str)
  ret i1 %_0
}

; Function Attrs: inlinehint nonlazybind uwtable
define internal i64 @_ZN4core3ops8function6FnOnce9call_once17h772a4b0000cec9d6E() unnamed_addr #0 {
start:
  call void @my_func_entry(ptr @_ZN4core3ops8function6FnOnce9call_once17h772a4b0000cec9d6E.str)
  %_2 = alloca [0 x i8], align 1
  %_0 = call i64 @_ZN4ostd4arch8read_tsc17h0a77b632809ee88bE()
  call void @my_func_exit(ptr @_ZN4core3ops8function6FnOnce9call_once17h772a4b0000cec9d6E.str)
  ret i64 %_0
}

; Function Attrs: inlinehint nonlazybind uwtable
define internal zeroext i1 @_ZN4core3ops8function6FnOnce9call_once17h82f845d0f8636531E(ptr align 8 %_1) unnamed_addr #0 personality ptr @rust_eh_personality {
start:
  call void @my_func_entry(ptr @_ZN4core3ops8function6FnOnce9call_once17h82f845d0f8636531E.str)
  %0 = alloca [16 x i8], align 8
  %_2 = alloca [0 x i8], align 1
  %_0 = invoke zeroext i1 @"_ZN9once_cell3imp17OnceCell$LT$T$GT$10initialize28_$u7b$$u7b$closure$u7d$$u7d$17h1699a288935087c8E"(ptr align 8 %_1)
          to label %bb1 unwind label %cleanup

bb3:                                              ; preds = %cleanup
  %1 = load ptr, ptr %0, align 8
  call void @my_load_hook(ptr %0, i64 8, ptr @_ZN4core3ops8function6FnOnce9call_once17h82f845d0f8636531E.str)
  %2 = getelementptr inbounds i8, ptr %0, i64 8
  %3 = load i32, ptr %2, align 8
  call void @my_load_hook(ptr %2, i64 4, ptr @_ZN4core3ops8function6FnOnce9call_once17h82f845d0f8636531E.str)
  %4 = insertvalue { ptr, i32 } poison, ptr %1, 0
  %5 = insertvalue { ptr, i32 } %4, i32 %3, 1
  resume { ptr, i32 } %5

cleanup:                                          ; preds = %start
  %6 = landingpad { ptr, i32 }
          cleanup
  %7 = extractvalue { ptr, i32 } %6, 0
  %8 = extractvalue { ptr, i32 } %6, 1
  store ptr %7, ptr %0, align 8
  call void @my_store_hook(ptr %0, i64 8, ptr @_ZN4core3ops8function6FnOnce9call_once17h82f845d0f8636531E.str)
  %9 = getelementptr inbounds i8, ptr %0, i64 8
  store i32 %8, ptr %9, align 8
  call void @my_store_hook(ptr %9, i64 4, ptr @_ZN4core3ops8function6FnOnce9call_once17h82f845d0f8636531E.str)
  br label %bb3

bb1:                                              ; preds = %start
  call void @my_func_exit(ptr @_ZN4core3ops8function6FnOnce9call_once17h82f845d0f8636531E.str)
  ret i1 %_0
}

; Function Attrs: inlinehint nonlazybind uwtable
define internal void @_ZN4core3ops8function6FnOnce9call_once17hb9dc3a47a2c00736E(ptr sret([24 x i8]) align 8 %_0) unnamed_addr #0 personality ptr @rust_eh_personality {
start:
  call void @my_func_entry(ptr @_ZN4core3ops8function6FnOnce9call_once17hb9dc3a47a2c00736E.str)
  %0 = alloca [16 x i8], align 8
  %_2 = alloca [0 x i8], align 1
  %_1 = alloca [0 x i8], align 1
  invoke void @"_ZN10aster_time9READ_TIME28_$u7b$$u7b$closure$u7d$$u7d$17ha0a6a09f83748251E"(ptr sret([24 x i8]) align 8 %_0, ptr align 1 %_1)
          to label %bb1 unwind label %cleanup

bb3:                                              ; preds = %cleanup
  %1 = load ptr, ptr %0, align 8
  call void @my_load_hook(ptr %0, i64 8, ptr @_ZN4core3ops8function6FnOnce9call_once17hb9dc3a47a2c00736E.str)
  %2 = getelementptr inbounds i8, ptr %0, i64 8
  %3 = load i32, ptr %2, align 8
  call void @my_load_hook(ptr %2, i64 4, ptr @_ZN4core3ops8function6FnOnce9call_once17hb9dc3a47a2c00736E.str)
  %4 = insertvalue { ptr, i32 } poison, ptr %1, 0
  %5 = insertvalue { ptr, i32 } %4, i32 %3, 1
  resume { ptr, i32 } %5

cleanup:                                          ; preds = %start
  %6 = landingpad { ptr, i32 }
          cleanup
  %7 = extractvalue { ptr, i32 } %6, 0
  %8 = extractvalue { ptr, i32 } %6, 1
  store ptr %7, ptr %0, align 8
  call void @my_store_hook(ptr %0, i64 8, ptr @_ZN4core3ops8function6FnOnce9call_once17hb9dc3a47a2c00736E.str)
  %9 = getelementptr inbounds i8, ptr %0, i64 8
  store i32 %8, ptr %9, align 8
  call void @my_store_hook(ptr %9, i64 4, ptr @_ZN4core3ops8function6FnOnce9call_once17hb9dc3a47a2c00736E.str)
  br label %bb3

bb1:                                              ; preds = %start
  call void @my_func_exit(ptr @_ZN4core3ops8function6FnOnce9call_once17hb9dc3a47a2c00736E.str)
  ret void
}

; Function Attrs: inlinehint nonlazybind uwtable
define internal void @_ZN4core3ops8function6FnOnce9call_once17he2f98169eb6da2d9E(ptr sret([24 x i8]) align 8 %_0, ptr %_1) unnamed_addr #0 {
start:
  call void @my_func_entry(ptr @_ZN4core3ops8function6FnOnce9call_once17he2f98169eb6da2d9E.str)
  %_2 = alloca [0 x i8], align 1
  call void %_1(ptr sret([24 x i8]) align 8 %_0)
  call void @my_func_exit(ptr @_ZN4core3ops8function6FnOnce9call_once17he2f98169eb6da2d9E.str)
  ret void
}

; Function Attrs: inlinehint nonlazybind uwtable
define internal zeroext i1 @_ZN4core3ops8function6FnOnce9call_once17hf46a6687b29fe872E(ptr align 8 %_1) unnamed_addr #0 personality ptr @rust_eh_personality {
start:
  call void @my_func_entry(ptr @_ZN4core3ops8function6FnOnce9call_once17hf46a6687b29fe872E.str)
  %0 = alloca [16 x i8], align 8
  %_2 = alloca [0 x i8], align 1
  %_0 = invoke zeroext i1 @"_ZN9once_cell3imp17OnceCell$LT$T$GT$10initialize28_$u7b$$u7b$closure$u7d$$u7d$17h2977d3b99eb009beE"(ptr align 8 %_1)
          to label %bb1 unwind label %cleanup

bb3:                                              ; preds = %cleanup
  %1 = load ptr, ptr %0, align 8
  call void @my_load_hook(ptr %0, i64 8, ptr @_ZN4core3ops8function6FnOnce9call_once17hf46a6687b29fe872E.str)
  %2 = getelementptr inbounds i8, ptr %0, i64 8
  %3 = load i32, ptr %2, align 8
  call void @my_load_hook(ptr %2, i64 4, ptr @_ZN4core3ops8function6FnOnce9call_once17hf46a6687b29fe872E.str)
  %4 = insertvalue { ptr, i32 } poison, ptr %1, 0
  %5 = insertvalue { ptr, i32 } %4, i32 %3, 1
  resume { ptr, i32 } %5

cleanup:                                          ; preds = %start
  %6 = landingpad { ptr, i32 }
          cleanup
  %7 = extractvalue { ptr, i32 } %6, 0
  %8 = extractvalue { ptr, i32 } %6, 1
  store ptr %7, ptr %0, align 8
  call void @my_store_hook(ptr %0, i64 8, ptr @_ZN4core3ops8function6FnOnce9call_once17hf46a6687b29fe872E.str)
  %9 = getelementptr inbounds i8, ptr %0, i64 8
  store i32 %8, ptr %9, align 8
  call void @my_store_hook(ptr %9, i64 4, ptr @_ZN4core3ops8function6FnOnce9call_once17hf46a6687b29fe872E.str)
  br label %bb3

bb1:                                              ; preds = %start
  call void @my_func_exit(ptr @_ZN4core3ops8function6FnOnce9call_once17hf46a6687b29fe872E.str)
  ret i1 %_0
}

; Function Attrs: nonlazybind uwtable
define void @"_ZN4core3ptr109drop_in_place$LT$alloc..sync..Weak$LT$aster_time..clocksource..ClockSource$C$$RF$alloc..alloc..Global$GT$$GT$17hb42e9c4174166ad0E"(ptr align 8 %_1) unnamed_addr #1 {
start:
  call void @my_func_entry(ptr @"_ZN4core3ptr109drop_in_place$LT$alloc..sync..Weak$LT$aster_time..clocksource..ClockSource$C$$RF$alloc..alloc..Global$GT$$GT$17hb42e9c4174166ad0E.str")
  call void @"_ZN72_$LT$alloc..sync..Weak$LT$T$C$A$GT$$u20$as$u20$core..ops..drop..Drop$GT$4drop17hc92285d11a5aa218E"(ptr align 8 %_1)
  call void @my_func_exit(ptr @"_ZN4core3ptr109drop_in_place$LT$alloc..sync..Weak$LT$aster_time..clocksource..ClockSource$C$$RF$alloc..alloc..Global$GT$$GT$17hb42e9c4174166ad0E.str")
  ret void
}

; Function Attrs: nonlazybind uwtable
define void @"_ZN4core3ptr109drop_in_place$LT$core..option..Option$LT$alloc..sync..Arc$LT$aster_time..clocksource..ClockSource$GT$$GT$$GT$17ha88843ef026fc947E"(ptr align 8 %_1) unnamed_addr #1 {
start:
  call void @my_func_entry(ptr @"_ZN4core3ptr109drop_in_place$LT$core..option..Option$LT$alloc..sync..Arc$LT$aster_time..clocksource..ClockSource$GT$$GT$$GT$17ha88843ef026fc947E.str")
  %0 = load ptr, ptr %_1, align 8
  call void @my_load_hook(ptr %_1, i64 8, ptr @"_ZN4core3ptr109drop_in_place$LT$core..option..Option$LT$alloc..sync..Arc$LT$aster_time..clocksource..ClockSource$GT$$GT$$GT$17ha88843ef026fc947E.str")
  %1 = ptrtoint ptr %0 to i64
  %2 = icmp eq i64 %1, 0
  %_2 = select i1 %2, i64 0, i64 1
  %3 = icmp eq i64 %_2, 0
  br i1 %3, label %bb1, label %bb2

bb1:                                              ; preds = %bb2, %start
  call void @my_func_exit(ptr @"_ZN4core3ptr109drop_in_place$LT$core..option..Option$LT$alloc..sync..Arc$LT$aster_time..clocksource..ClockSource$GT$$GT$$GT$17ha88843ef026fc947E.str")
  ret void

bb2:                                              ; preds = %start
  call void @"_ZN4core3ptr81drop_in_place$LT$alloc..sync..Arc$LT$aster_time..clocksource..ClockSource$GT$$GT$17he5d3a60ef7deee52E"(ptr align 8 %_1)
  br label %bb1
}

; Function Attrs: nonlazybind uwtable
define void @"_ZN4core3ptr113drop_in_place$LT$once_cell..imp..OnceCell$LT$alloc..sync..Arc$LT$aster_time..clocksource..ClockSource$GT$$GT$$GT$17h330d7d959219513cE"(ptr align 8 %_1) unnamed_addr #1 {
start:
  call void @my_func_entry(ptr @"_ZN4core3ptr113drop_in_place$LT$once_cell..imp..OnceCell$LT$alloc..sync..Arc$LT$aster_time..clocksource..ClockSource$GT$$GT$$GT$17h330d7d959219513cE.str")
  %0 = getelementptr inbounds i8, ptr %_1, i64 8
  call void @"_ZN4core3ptr139drop_in_place$LT$core..cell..UnsafeCell$LT$core..option..Option$LT$alloc..sync..Arc$LT$aster_time..clocksource..ClockSource$GT$$GT$$GT$$GT$17hcc969b07b7dafe71E"(ptr align 8 %0)
  call void @my_func_exit(ptr @"_ZN4core3ptr113drop_in_place$LT$once_cell..imp..OnceCell$LT$alloc..sync..Arc$LT$aster_time..clocksource..ClockSource$GT$$GT$$GT$17h330d7d959219513cE.str")
  ret void
}

; Function Attrs: nonlazybind uwtable
define void @"_ZN4core3ptr114drop_in_place$LT$once_cell..sync..OnceCell$LT$alloc..sync..Arc$LT$aster_time..clocksource..ClockSource$GT$$GT$$GT$17h8183dc57a1a043bbE"(ptr align 8 %_1) unnamed_addr #1 {
start:
  call void @my_func_entry(ptr @"_ZN4core3ptr114drop_in_place$LT$once_cell..sync..OnceCell$LT$alloc..sync..Arc$LT$aster_time..clocksource..ClockSource$GT$$GT$$GT$17h8183dc57a1a043bbE.str")
  call void @"_ZN4core3ptr113drop_in_place$LT$once_cell..imp..OnceCell$LT$alloc..sync..Arc$LT$aster_time..clocksource..ClockSource$GT$$GT$$GT$17h330d7d959219513cE"(ptr align 8 %_1)
  call void @my_func_exit(ptr @"_ZN4core3ptr114drop_in_place$LT$once_cell..sync..OnceCell$LT$alloc..sync..Arc$LT$aster_time..clocksource..ClockSource$GT$$GT$$GT$17h8183dc57a1a043bbE.str")
  ret void
}

; Function Attrs: nonlazybind uwtable
define void @"_ZN4core3ptr117drop_in_place$LT$std..sync..poison..rwlock..RwLockReadGuard$LT$$LP$aster_time..clocksource..Instant$C$u64$RP$$GT$$GT$17hf5290549b930dd75E"(ptr align 8 %_1) unnamed_addr #1 {
start:
  call void @my_func_entry(ptr @"_ZN4core3ptr117drop_in_place$LT$std..sync..poison..rwlock..RwLockReadGuard$LT$$LP$aster_time..clocksource..Instant$C$u64$RP$$GT$$GT$17hf5290549b930dd75E.str")
  call void @"_ZN93_$LT$std..sync..poison..rwlock..RwLockReadGuard$LT$T$GT$$u20$as$u20$core..ops..drop..Drop$GT$4drop17hfb1b2826c2108a56E"(ptr align 8 %_1)
  call void @my_func_exit(ptr @"_ZN4core3ptr117drop_in_place$LT$std..sync..poison..rwlock..RwLockReadGuard$LT$$LP$aster_time..clocksource..Instant$C$u64$RP$$GT$$GT$17hf5290549b930dd75E.str")
  ret void
}

; Function Attrs: nonlazybind uwtable
define void @"_ZN4core3ptr118drop_in_place$LT$std..sync..poison..rwlock..RwLockWriteGuard$LT$$LP$aster_time..clocksource..Instant$C$u64$RP$$GT$$GT$17h64556d87d109189eE"(ptr align 8 %_1) unnamed_addr #1 {
start:
  call void @my_func_entry(ptr @"_ZN4core3ptr118drop_in_place$LT$std..sync..poison..rwlock..RwLockWriteGuard$LT$$LP$aster_time..clocksource..Instant$C$u64$RP$$GT$$GT$17h64556d87d109189eE.str")
  call void @"_ZN94_$LT$std..sync..poison..rwlock..RwLockWriteGuard$LT$T$GT$$u20$as$u20$core..ops..drop..Drop$GT$4drop17he2bc804f352b4fb2E"(ptr align 8 %_1)
  call void @my_func_exit(ptr @"_ZN4core3ptr118drop_in_place$LT$std..sync..poison..rwlock..RwLockWriteGuard$LT$$LP$aster_time..clocksource..Instant$C$u64$RP$$GT$$GT$17h64556d87d109189eE.str")
  ret void
}

; Function Attrs: nonlazybind uwtable
define void @"_ZN4core3ptr120drop_in_place$LT$core..result..Result$LT$$LP$$RP$$C$alloc..sync..Arc$LT$aster_time..clocksource..ClockSource$GT$$GT$$GT$17hd437d95d0d0d06f0E"(ptr align 8 %_1) unnamed_addr #1 {
start:
  call void @my_func_entry(ptr @"_ZN4core3ptr120drop_in_place$LT$core..result..Result$LT$$LP$$RP$$C$alloc..sync..Arc$LT$aster_time..clocksource..ClockSource$GT$$GT$$GT$17hd437d95d0d0d06f0E.str")
  %0 = load ptr, ptr %_1, align 8
  call void @my_load_hook(ptr %_1, i64 8, ptr @"_ZN4core3ptr120drop_in_place$LT$core..result..Result$LT$$LP$$RP$$C$alloc..sync..Arc$LT$aster_time..clocksource..ClockSource$GT$$GT$$GT$17hd437d95d0d0d06f0E.str")
  %1 = ptrtoint ptr %0 to i64
  %2 = icmp eq i64 %1, 0
  %_2 = select i1 %2, i64 0, i64 1
  %3 = icmp eq i64 %_2, 0
  br i1 %3, label %bb1, label %bb2

bb1:                                              ; preds = %bb2, %start
  call void @my_func_exit(ptr @"_ZN4core3ptr120drop_in_place$LT$core..result..Result$LT$$LP$$RP$$C$alloc..sync..Arc$LT$aster_time..clocksource..ClockSource$GT$$GT$$GT$17hd437d95d0d0d06f0E.str")
  ret void

bb2:                                              ; preds = %start
  call void @"_ZN4core3ptr81drop_in_place$LT$alloc..sync..Arc$LT$aster_time..clocksource..ClockSource$GT$$GT$17he5d3a60ef7deee52E"(ptr align 8 %_1)
  br label %bb1
}

; Function Attrs: nonlazybind uwtable
define void @"_ZN4core3ptr122drop_in_place$LT$alloc..sync..Arc$LT$dyn$u20$aster_time..rtc..Driver$u2b$core..marker..Sync$u2b$core..marker..Send$GT$$GT$17h406ae3aeb70dce9aE"(ptr align 8 %_1) unnamed_addr #1 {
start:
  call void @my_func_entry(ptr @"_ZN4core3ptr122drop_in_place$LT$alloc..sync..Arc$LT$dyn$u20$aster_time..rtc..Driver$u2b$core..marker..Sync$u2b$core..marker..Send$GT$$GT$17h406ae3aeb70dce9aE.str")
  call void @"_ZN71_$LT$alloc..sync..Arc$LT$T$C$A$GT$$u20$as$u20$core..ops..drop..Drop$GT$4drop17hf3de727eb26419f1E"(ptr align 8 %_1)
  call void @my_func_exit(ptr @"_ZN4core3ptr122drop_in_place$LT$alloc..sync..Arc$LT$dyn$u20$aster_time..rtc..Driver$u2b$core..marker..Sync$u2b$core..marker..Send$GT$$GT$17h406ae3aeb70dce9aE.str")
  ret void
}

; Function Attrs: nonlazybind uwtable
define void @"_ZN4core3ptr125drop_in_place$LT$std..sync..poison..PoisonError$LT$std..sync..poison..mutex..MutexGuard$LT$aster_time..SystemTime$GT$$GT$$GT$17h443ca5c0010acb8aE"(ptr align 8 %_1) unnamed_addr #1 {
start:
  call void @my_func_entry(ptr @"_ZN4core3ptr125drop_in_place$LT$std..sync..poison..PoisonError$LT$std..sync..poison..mutex..MutexGuard$LT$aster_time..SystemTime$GT$$GT$$GT$17h443ca5c0010acb8aE.str")
  call void @"_ZN4core3ptr87drop_in_place$LT$std..sync..poison..mutex..MutexGuard$LT$aster_time..SystemTime$GT$$GT$17h4c37ef9fda9c10edE"(ptr align 8 %_1)
  call void @my_func_exit(ptr @"_ZN4core3ptr125drop_in_place$LT$std..sync..poison..PoisonError$LT$std..sync..poison..mutex..MutexGuard$LT$aster_time..SystemTime$GT$$GT$$GT$17h443ca5c0010acb8aE.str")
  ret void
}

; Function Attrs: nonlazybind uwtable
define void @"_ZN4core3ptr139drop_in_place$LT$core..cell..UnsafeCell$LT$core..option..Option$LT$alloc..sync..Arc$LT$aster_time..clocksource..ClockSource$GT$$GT$$GT$$GT$17hcc969b07b7dafe71E"(ptr align 8 %_1) unnamed_addr #1 {
start:
  call void @my_func_entry(ptr @"_ZN4core3ptr139drop_in_place$LT$core..cell..UnsafeCell$LT$core..option..Option$LT$alloc..sync..Arc$LT$aster_time..clocksource..ClockSource$GT$$GT$$GT$$GT$17hcc969b07b7dafe71E.str")
  call void @"_ZN4core3ptr109drop_in_place$LT$core..option..Option$LT$alloc..sync..Arc$LT$aster_time..clocksource..ClockSource$GT$$GT$$GT$17ha88843ef026fc947E"(ptr align 8 %_1)
  call void @my_func_exit(ptr @"_ZN4core3ptr139drop_in_place$LT$core..cell..UnsafeCell$LT$core..option..Option$LT$alloc..sync..Arc$LT$aster_time..clocksource..ClockSource$GT$$GT$$GT$$GT$17hcc969b07b7dafe71E.str")
  ret void
}

; Function Attrs: nonlazybind uwtable
define void @"_ZN4core3ptr143drop_in_place$LT$dyn$u20$core..ops..function..Fn$LT$$LP$$RP$$GT$$u2b$Output$u20$$u3d$$u20$u64$u2b$core..marker..Sync$u2b$core..marker..Send$GT$17haca21a73954520b2E"(ptr align 1 %_1.0, ptr align 8 %_1.1) unnamed_addr #1 {
start:
  call void @my_func_entry(ptr @"_ZN4core3ptr143drop_in_place$LT$dyn$u20$core..ops..function..Fn$LT$$LP$$RP$$GT$$u2b$Output$u20$$u3d$$u20$u64$u2b$core..marker..Sync$u2b$core..marker..Send$GT$17haca21a73954520b2E.str")
  %0 = getelementptr inbounds i8, ptr %_1.1, i64 0
  %1 = load ptr, ptr %0, align 8, !invariant.load !3
  call void @my_load_hook(ptr %0, i64 8, ptr @"_ZN4core3ptr143drop_in_place$LT$dyn$u20$core..ops..function..Fn$LT$$LP$$RP$$GT$$u2b$Output$u20$$u3d$$u20$u64$u2b$core..marker..Sync$u2b$core..marker..Send$GT$17haca21a73954520b2E.str")
  %2 = icmp ne ptr %1, null
  br i1 %2, label %is_not_null, label %bb1

is_not_null:                                      ; preds = %start
  call void %1(ptr %_1.0)
  br label %bb1

bb1:                                              ; preds = %is_not_null, %start
  call void @my_func_exit(ptr @"_ZN4core3ptr143drop_in_place$LT$dyn$u20$core..ops..function..Fn$LT$$LP$$RP$$GT$$u2b$Output$u20$$u3d$$u20$u64$u2b$core..marker..Sync$u2b$core..marker..Send$GT$17haca21a73954520b2E.str")
  ret void
}

; Function Attrs: nonlazybind uwtable
define void @"_ZN4core3ptr148drop_in_place$LT$dyn$u20$core..ops..function..Fn$LT$$LP$$RP$$GT$$u2b$Output$u20$$u3d$$u20$$LP$$RP$$u2b$core..marker..Sync$u2b$core..marker..Send$GT$17h2b5c1f5753e57e53E"(ptr align 1 %_1.0, ptr align 8 %_1.1) unnamed_addr #1 {
start:
  call void @my_func_entry(ptr @"_ZN4core3ptr148drop_in_place$LT$dyn$u20$core..ops..function..Fn$LT$$LP$$RP$$GT$$u2b$Output$u20$$u3d$$u20$$LP$$RP$$u2b$core..marker..Sync$u2b$core..marker..Send$GT$17h2b5c1f5753e57e53E.str")
  %0 = getelementptr inbounds i8, ptr %_1.1, i64 0
  %1 = load ptr, ptr %0, align 8, !invariant.load !3
  call void @my_load_hook(ptr %0, i64 8, ptr @"_ZN4core3ptr148drop_in_place$LT$dyn$u20$core..ops..function..Fn$LT$$LP$$RP$$GT$$u2b$Output$u20$$u3d$$u20$$LP$$RP$$u2b$core..marker..Sync$u2b$core..marker..Send$GT$17h2b5c1f5753e57e53E.str")
  %2 = icmp ne ptr %1, null
  br i1 %2, label %is_not_null, label %bb1

is_not_null:                                      ; preds = %start
  call void %1(ptr %_1.0)
  br label %bb1

bb1:                                              ; preds = %is_not_null, %start
  call void @my_func_exit(ptr @"_ZN4core3ptr148drop_in_place$LT$dyn$u20$core..ops..function..Fn$LT$$LP$$RP$$GT$$u2b$Output$u20$$u3d$$u20$$LP$$RP$$u2b$core..marker..Sync$u2b$core..marker..Send$GT$17h2b5c1f5753e57e53E.str")
  ret void
}

; Function Attrs: nonlazybind uwtable
define void @"_ZN4core3ptr150drop_in_place$LT$alloc..sync..Weak$LT$dyn$u20$aster_time..rtc..Driver$u2b$core..marker..Sync$u2b$core..marker..Send$C$$RF$alloc..alloc..Global$GT$$GT$17h45a71b9519543c65E"(ptr align 8 %_1) unnamed_addr #1 {
start:
  call void @my_func_entry(ptr @"_ZN4core3ptr150drop_in_place$LT$alloc..sync..Weak$LT$dyn$u20$aster_time..rtc..Driver$u2b$core..marker..Sync$u2b$core..marker..Send$C$$RF$alloc..alloc..Global$GT$$GT$17h45a71b9519543c65E.str")
  call void @"_ZN72_$LT$alloc..sync..Weak$LT$T$C$A$GT$$u20$as$u20$core..ops..drop..Drop$GT$4drop17h149935c2f3862f65E"(ptr align 8 %_1)
  call void @my_func_exit(ptr @"_ZN4core3ptr150drop_in_place$LT$alloc..sync..Weak$LT$dyn$u20$aster_time..rtc..Driver$u2b$core..marker..Sync$u2b$core..marker..Send$C$$RF$alloc..alloc..Global$GT$$GT$17h45a71b9519543c65E.str")
  ret void
}

; Function Attrs: nonlazybind uwtable
define void @"_ZN4core3ptr150drop_in_place$LT$core..option..Option$LT$alloc..sync..Arc$LT$dyn$u20$aster_time..rtc..Driver$u2b$core..marker..Sync$u2b$core..marker..Send$GT$$GT$$GT$17h7a38b2fcb2d39fbcE"(ptr align 8 %_1) unnamed_addr #1 {
start:
  call void @my_func_entry(ptr @"_ZN4core3ptr150drop_in_place$LT$core..option..Option$LT$alloc..sync..Arc$LT$dyn$u20$aster_time..rtc..Driver$u2b$core..marker..Sync$u2b$core..marker..Send$GT$$GT$$GT$17h7a38b2fcb2d39fbcE.str")
  %0 = load ptr, ptr %_1, align 8
  call void @my_load_hook(ptr %_1, i64 8, ptr @"_ZN4core3ptr150drop_in_place$LT$core..option..Option$LT$alloc..sync..Arc$LT$dyn$u20$aster_time..rtc..Driver$u2b$core..marker..Sync$u2b$core..marker..Send$GT$$GT$$GT$17h7a38b2fcb2d39fbcE.str")
  %1 = getelementptr inbounds i8, ptr %_1, i64 8
  %2 = load ptr, ptr %1, align 8
  call void @my_load_hook(ptr %1, i64 8, ptr @"_ZN4core3ptr150drop_in_place$LT$core..option..Option$LT$alloc..sync..Arc$LT$dyn$u20$aster_time..rtc..Driver$u2b$core..marker..Sync$u2b$core..marker..Send$GT$$GT$$GT$17h7a38b2fcb2d39fbcE.str")
  %3 = ptrtoint ptr %0 to i64
  %4 = icmp eq i64 %3, 0
  %_2 = select i1 %4, i64 0, i64 1
  %5 = icmp eq i64 %_2, 0
  br i1 %5, label %bb1, label %bb2

bb1:                                              ; preds = %bb2, %start
  call void @my_func_exit(ptr @"_ZN4core3ptr150drop_in_place$LT$core..option..Option$LT$alloc..sync..Arc$LT$dyn$u20$aster_time..rtc..Driver$u2b$core..marker..Sync$u2b$core..marker..Send$GT$$GT$$GT$17h7a38b2fcb2d39fbcE.str")
  ret void

bb2:                                              ; preds = %start
  call void @"_ZN4core3ptr122drop_in_place$LT$alloc..sync..Arc$LT$dyn$u20$aster_time..rtc..Driver$u2b$core..marker..Sync$u2b$core..marker..Send$GT$$GT$17h406ae3aeb70dce9aE"(ptr align 8 %_1)
  br label %bb1
}

; Function Attrs: nonlazybind uwtable
define void @"_ZN4core3ptr154drop_in_place$LT$once_cell..imp..OnceCell$LT$alloc..sync..Arc$LT$dyn$u20$aster_time..rtc..Driver$u2b$core..marker..Sync$u2b$core..marker..Send$GT$$GT$$GT$17he5a320495ddcd043E"(ptr align 8 %_1) unnamed_addr #1 {
start:
  call void @my_func_entry(ptr @"_ZN4core3ptr154drop_in_place$LT$once_cell..imp..OnceCell$LT$alloc..sync..Arc$LT$dyn$u20$aster_time..rtc..Driver$u2b$core..marker..Sync$u2b$core..marker..Send$GT$$GT$$GT$17he5a320495ddcd043E.str")
  call void @"_ZN4core3ptr180drop_in_place$LT$core..cell..UnsafeCell$LT$core..option..Option$LT$alloc..sync..Arc$LT$dyn$u20$aster_time..rtc..Driver$u2b$core..marker..Sync$u2b$core..marker..Send$GT$$GT$$GT$$GT$17h86fb989091654561E"(ptr align 8 %_1)
  call void @my_func_exit(ptr @"_ZN4core3ptr154drop_in_place$LT$once_cell..imp..OnceCell$LT$alloc..sync..Arc$LT$dyn$u20$aster_time..rtc..Driver$u2b$core..marker..Sync$u2b$core..marker..Send$GT$$GT$$GT$17he5a320495ddcd043E.str")
  ret void
}

; Function Attrs: nonlazybind uwtable
define void @"_ZN4core3ptr155drop_in_place$LT$once_cell..sync..OnceCell$LT$alloc..sync..Arc$LT$dyn$u20$aster_time..rtc..Driver$u2b$core..marker..Sync$u2b$core..marker..Send$GT$$GT$$GT$17h66bcd94681ef3518E"(ptr align 8 %_1) unnamed_addr #1 {
start:
  call void @my_func_entry(ptr @"_ZN4core3ptr155drop_in_place$LT$once_cell..sync..OnceCell$LT$alloc..sync..Arc$LT$dyn$u20$aster_time..rtc..Driver$u2b$core..marker..Sync$u2b$core..marker..Send$GT$$GT$$GT$17h66bcd94681ef3518E.str")
  call void @"_ZN4core3ptr154drop_in_place$LT$once_cell..imp..OnceCell$LT$alloc..sync..Arc$LT$dyn$u20$aster_time..rtc..Driver$u2b$core..marker..Sync$u2b$core..marker..Send$GT$$GT$$GT$17he5a320495ddcd043E"(ptr align 8 %_1)
  call void @my_func_exit(ptr @"_ZN4core3ptr155drop_in_place$LT$once_cell..sync..OnceCell$LT$alloc..sync..Arc$LT$dyn$u20$aster_time..rtc..Driver$u2b$core..marker..Sync$u2b$core..marker..Send$GT$$GT$$GT$17h66bcd94681ef3518E.str")
  ret void
}

; Function Attrs: nonlazybind uwtable
define void @"_ZN4core3ptr155drop_in_place$LT$std..sync..poison..PoisonError$LT$std..sync..poison..rwlock..RwLockReadGuard$LT$$LP$aster_time..clocksource..Instant$C$u64$RP$$GT$$GT$$GT$17h600a060e33de95b5E"(ptr align 8 %_1) unnamed_addr #1 {
start:
  call void @my_func_entry(ptr @"_ZN4core3ptr155drop_in_place$LT$std..sync..poison..PoisonError$LT$std..sync..poison..rwlock..RwLockReadGuard$LT$$LP$aster_time..clocksource..Instant$C$u64$RP$$GT$$GT$$GT$17h600a060e33de95b5E.str")
  call void @"_ZN4core3ptr117drop_in_place$LT$std..sync..poison..rwlock..RwLockReadGuard$LT$$LP$aster_time..clocksource..Instant$C$u64$RP$$GT$$GT$17hf5290549b930dd75E"(ptr align 8 %_1)
  call void @my_func_exit(ptr @"_ZN4core3ptr155drop_in_place$LT$std..sync..poison..PoisonError$LT$std..sync..poison..rwlock..RwLockReadGuard$LT$$LP$aster_time..clocksource..Instant$C$u64$RP$$GT$$GT$$GT$17h600a060e33de95b5E.str")
  ret void
}

; Function Attrs: nonlazybind uwtable
define void @"_ZN4core3ptr156drop_in_place$LT$std..sync..poison..PoisonError$LT$std..sync..poison..rwlock..RwLockWriteGuard$LT$$LP$aster_time..clocksource..Instant$C$u64$RP$$GT$$GT$$GT$17ha8a226ca09850fd3E"(ptr align 8 %_1) unnamed_addr #1 {
start:
  call void @my_func_entry(ptr @"_ZN4core3ptr156drop_in_place$LT$std..sync..poison..PoisonError$LT$std..sync..poison..rwlock..RwLockWriteGuard$LT$$LP$aster_time..clocksource..Instant$C$u64$RP$$GT$$GT$$GT$17ha8a226ca09850fd3E.str")
  call void @"_ZN4core3ptr118drop_in_place$LT$std..sync..poison..rwlock..RwLockWriteGuard$LT$$LP$aster_time..clocksource..Instant$C$u64$RP$$GT$$GT$17h64556d87d109189eE"(ptr align 8 %_1)
  call void @my_func_exit(ptr @"_ZN4core3ptr156drop_in_place$LT$std..sync..poison..PoisonError$LT$std..sync..poison..rwlock..RwLockWriteGuard$LT$$LP$aster_time..clocksource..Instant$C$u64$RP$$GT$$GT$$GT$17ha8a226ca09850fd3E.str")
  ret void
}

; Function Attrs: nonlazybind uwtable
define void @"_ZN4core3ptr161drop_in_place$LT$core..result..Result$LT$$LP$$RP$$C$alloc..sync..Arc$LT$dyn$u20$aster_time..rtc..Driver$u2b$core..marker..Sync$u2b$core..marker..Send$GT$$GT$$GT$17h1119a2272331ad89E"(ptr align 8 %_1) unnamed_addr #1 {
start:
  call void @my_func_entry(ptr @"_ZN4core3ptr161drop_in_place$LT$core..result..Result$LT$$LP$$RP$$C$alloc..sync..Arc$LT$dyn$u20$aster_time..rtc..Driver$u2b$core..marker..Sync$u2b$core..marker..Send$GT$$GT$$GT$17h1119a2272331ad89E.str")
  %0 = load ptr, ptr %_1, align 8
  call void @my_load_hook(ptr %_1, i64 8, ptr @"_ZN4core3ptr161drop_in_place$LT$core..result..Result$LT$$LP$$RP$$C$alloc..sync..Arc$LT$dyn$u20$aster_time..rtc..Driver$u2b$core..marker..Sync$u2b$core..marker..Send$GT$$GT$$GT$17h1119a2272331ad89E.str")
  %1 = getelementptr inbounds i8, ptr %_1, i64 8
  %2 = load ptr, ptr %1, align 8
  call void @my_load_hook(ptr %1, i64 8, ptr @"_ZN4core3ptr161drop_in_place$LT$core..result..Result$LT$$LP$$RP$$C$alloc..sync..Arc$LT$dyn$u20$aster_time..rtc..Driver$u2b$core..marker..Sync$u2b$core..marker..Send$GT$$GT$$GT$17h1119a2272331ad89E.str")
  %3 = ptrtoint ptr %0 to i64
  %4 = icmp eq i64 %3, 0
  %_2 = select i1 %4, i64 0, i64 1
  %5 = icmp eq i64 %_2, 0
  br i1 %5, label %bb1, label %bb2

bb1:                                              ; preds = %bb2, %start
  call void @my_func_exit(ptr @"_ZN4core3ptr161drop_in_place$LT$core..result..Result$LT$$LP$$RP$$C$alloc..sync..Arc$LT$dyn$u20$aster_time..rtc..Driver$u2b$core..marker..Sync$u2b$core..marker..Send$GT$$GT$$GT$17h1119a2272331ad89E.str")
  ret void

bb2:                                              ; preds = %start
  call void @"_ZN4core3ptr122drop_in_place$LT$alloc..sync..Arc$LT$dyn$u20$aster_time..rtc..Driver$u2b$core..marker..Sync$u2b$core..marker..Send$GT$$GT$17h406ae3aeb70dce9aE"(ptr align 8 %_1)
  br label %bb1
}

; Function Attrs: nonlazybind uwtable
define void @"_ZN4core3ptr167drop_in_place$LT$alloc..sync..Arc$LT$dyn$u20$core..ops..function..Fn$LT$$LP$$RP$$GT$$u2b$Output$u20$$u3d$$u20$u64$u2b$core..marker..Sync$u2b$core..marker..Send$GT$$GT$17h3c314fcaaf62bb70E"(ptr align 8 %_1) unnamed_addr #1 {
start:
  call void @my_func_entry(ptr @"_ZN4core3ptr167drop_in_place$LT$alloc..sync..Arc$LT$dyn$u20$core..ops..function..Fn$LT$$LP$$RP$$GT$$u2b$Output$u20$$u3d$$u20$u64$u2b$core..marker..Sync$u2b$core..marker..Send$GT$$GT$17h3c314fcaaf62bb70E.str")
  call void @"_ZN71_$LT$alloc..sync..Arc$LT$T$C$A$GT$$u20$as$u20$core..ops..drop..Drop$GT$4drop17h695f3e7a076ec1f6E"(ptr align 8 %_1)
  call void @my_func_exit(ptr @"_ZN4core3ptr167drop_in_place$LT$alloc..sync..Arc$LT$dyn$u20$core..ops..function..Fn$LT$$LP$$RP$$GT$$u2b$Output$u20$$u3d$$u20$u64$u2b$core..marker..Sync$u2b$core..marker..Send$GT$$GT$17h3c314fcaaf62bb70E.str")
  ret void
}

; Function Attrs: nonlazybind uwtable
define void @"_ZN4core3ptr173drop_in_place$LT$alloc..boxed..Box$LT$dyn$u20$core..ops..function..Fn$LT$$LP$$RP$$GT$$u2b$Output$u20$$u3d$$u20$$LP$$RP$$u2b$core..marker..Sync$u2b$core..marker..Send$GT$$GT$17h6925c0b5ec1f58bcE"(ptr align 8 %_1) unnamed_addr #1 personality ptr @rust_eh_personality {
start:
  call void @my_func_entry(ptr @"_ZN4core3ptr173drop_in_place$LT$alloc..boxed..Box$LT$dyn$u20$core..ops..function..Fn$LT$$LP$$RP$$GT$$u2b$Output$u20$$u3d$$u20$$LP$$RP$$u2b$core..marker..Sync$u2b$core..marker..Send$GT$$GT$17h6925c0b5ec1f58bcE.str")
  %0 = alloca [16 x i8], align 8
  %_6.0 = load ptr, ptr %_1, align 8
  call void @my_load_hook(ptr %_1, i64 8, ptr @"_ZN4core3ptr173drop_in_place$LT$alloc..boxed..Box$LT$dyn$u20$core..ops..function..Fn$LT$$LP$$RP$$GT$$u2b$Output$u20$$u3d$$u20$$LP$$RP$$u2b$core..marker..Sync$u2b$core..marker..Send$GT$$GT$17h6925c0b5ec1f58bcE.str")
  %1 = getelementptr inbounds i8, ptr %_1, i64 8
  %_6.1 = load ptr, ptr %1, align 8
  call void @my_load_hook(ptr %1, i64 8, ptr @"_ZN4core3ptr173drop_in_place$LT$alloc..boxed..Box$LT$dyn$u20$core..ops..function..Fn$LT$$LP$$RP$$GT$$u2b$Output$u20$$u3d$$u20$$LP$$RP$$u2b$core..marker..Sync$u2b$core..marker..Send$GT$$GT$17h6925c0b5ec1f58bcE.str")
  %2 = getelementptr inbounds i8, ptr %_6.1, i64 0
  %3 = load ptr, ptr %2, align 8, !invariant.load !3
  call void @my_load_hook(ptr %2, i64 8, ptr @"_ZN4core3ptr173drop_in_place$LT$alloc..boxed..Box$LT$dyn$u20$core..ops..function..Fn$LT$$LP$$RP$$GT$$u2b$Output$u20$$u3d$$u20$$LP$$RP$$u2b$core..marker..Sync$u2b$core..marker..Send$GT$$GT$17h6925c0b5ec1f58bcE.str")
  %4 = icmp ne ptr %3, null
  br i1 %4, label %is_not_null, label %bb3

is_not_null:                                      ; preds = %start
  invoke void %3(ptr %_6.0)
          to label %bb3 unwind label %cleanup

bb3:                                              ; preds = %is_not_null, %start
  call void @"_ZN72_$LT$alloc..boxed..Box$LT$T$C$A$GT$$u20$as$u20$core..ops..drop..Drop$GT$4drop17h9b27be5a452bb17eE"(ptr align 8 %_1)
  call void @my_func_exit(ptr @"_ZN4core3ptr173drop_in_place$LT$alloc..boxed..Box$LT$dyn$u20$core..ops..function..Fn$LT$$LP$$RP$$GT$$u2b$Output$u20$$u3d$$u20$$LP$$RP$$u2b$core..marker..Sync$u2b$core..marker..Send$GT$$GT$17h6925c0b5ec1f58bcE.str")
  ret void

bb4:                                              ; preds = %cleanup
  invoke void @"_ZN72_$LT$alloc..boxed..Box$LT$T$C$A$GT$$u20$as$u20$core..ops..drop..Drop$GT$4drop17h9b27be5a452bb17eE"(ptr align 8 %_1) #19
          to label %bb1 unwind label %terminate

cleanup:                                          ; preds = %is_not_null
  %5 = landingpad { ptr, i32 }
          cleanup
  %6 = extractvalue { ptr, i32 } %5, 0
  %7 = extractvalue { ptr, i32 } %5, 1
  store ptr %6, ptr %0, align 8
  call void @my_store_hook(ptr %0, i64 8, ptr @"_ZN4core3ptr173drop_in_place$LT$alloc..boxed..Box$LT$dyn$u20$core..ops..function..Fn$LT$$LP$$RP$$GT$$u2b$Output$u20$$u3d$$u20$$LP$$RP$$u2b$core..marker..Sync$u2b$core..marker..Send$GT$$GT$17h6925c0b5ec1f58bcE.str")
  %8 = getelementptr inbounds i8, ptr %0, i64 8
  store i32 %7, ptr %8, align 8
  call void @my_store_hook(ptr %8, i64 4, ptr @"_ZN4core3ptr173drop_in_place$LT$alloc..boxed..Box$LT$dyn$u20$core..ops..function..Fn$LT$$LP$$RP$$GT$$u2b$Output$u20$$u3d$$u20$$LP$$RP$$u2b$core..marker..Sync$u2b$core..marker..Send$GT$$GT$17h6925c0b5ec1f58bcE.str")
  br label %bb4

terminate:                                        ; preds = %bb4
  %9 = landingpad { ptr, i32 }
          filter [0 x ptr] zeroinitializer
  call void @_ZN4core9panicking16panic_in_cleanup17hb509fce69c32fbdaE() #20
  unreachable

bb1:                                              ; preds = %bb4
  %10 = load ptr, ptr %0, align 8
  call void @my_load_hook(ptr %0, i64 8, ptr @"_ZN4core3ptr173drop_in_place$LT$alloc..boxed..Box$LT$dyn$u20$core..ops..function..Fn$LT$$LP$$RP$$GT$$u2b$Output$u20$$u3d$$u20$$LP$$RP$$u2b$core..marker..Sync$u2b$core..marker..Send$GT$$GT$17h6925c0b5ec1f58bcE.str")
  %11 = getelementptr inbounds i8, ptr %0, i64 8
  %12 = load i32, ptr %11, align 8
  call void @my_load_hook(ptr %11, i64 4, ptr @"_ZN4core3ptr173drop_in_place$LT$alloc..boxed..Box$LT$dyn$u20$core..ops..function..Fn$LT$$LP$$RP$$GT$$u2b$Output$u20$$u3d$$u20$$LP$$RP$$u2b$core..marker..Sync$u2b$core..marker..Send$GT$$GT$17h6925c0b5ec1f58bcE.str")
  %13 = insertvalue { ptr, i32 } poison, ptr %10, 0
  %14 = insertvalue { ptr, i32 } %13, i32 %12, 1
  resume { ptr, i32 } %14
}

; Function Attrs: nonlazybind uwtable
define void @"_ZN4core3ptr180drop_in_place$LT$core..cell..UnsafeCell$LT$core..option..Option$LT$alloc..sync..Arc$LT$dyn$u20$aster_time..rtc..Driver$u2b$core..marker..Sync$u2b$core..marker..Send$GT$$GT$$GT$$GT$17h86fb989091654561E"(ptr align 8 %_1) unnamed_addr #1 {
start:
  call void @my_func_entry(ptr @"_ZN4core3ptr180drop_in_place$LT$core..cell..UnsafeCell$LT$core..option..Option$LT$alloc..sync..Arc$LT$dyn$u20$aster_time..rtc..Driver$u2b$core..marker..Sync$u2b$core..marker..Send$GT$$GT$$GT$$GT$17h86fb989091654561E.str")
  call void @"_ZN4core3ptr150drop_in_place$LT$core..option..Option$LT$alloc..sync..Arc$LT$dyn$u20$aster_time..rtc..Driver$u2b$core..marker..Sync$u2b$core..marker..Send$GT$$GT$$GT$17h7a38b2fcb2d39fbcE"(ptr align 8 %_1)
  call void @my_func_exit(ptr @"_ZN4core3ptr180drop_in_place$LT$core..cell..UnsafeCell$LT$core..option..Option$LT$alloc..sync..Arc$LT$dyn$u20$aster_time..rtc..Driver$u2b$core..marker..Sync$u2b$core..marker..Send$GT$$GT$$GT$$GT$17h86fb989091654561E.str")
  ret void
}

; Function Attrs: nonlazybind uwtable
define void @"_ZN4core3ptr183drop_in_place$LT$$u5b$alloc..boxed..Box$LT$dyn$u20$core..ops..function..Fn$LT$$LP$$RP$$GT$$u2b$Output$u20$$u3d$$u20$$LP$$RP$$u2b$core..marker..Sync$u2b$core..marker..Send$GT$$u5d$$GT$17h6dc6feb13d6fc875E"(ptr align 8 %_1.0, i64 %_1.1) unnamed_addr #1 personality ptr @rust_eh_personality {
start:
  call void @my_func_entry(ptr @"_ZN4core3ptr183drop_in_place$LT$$u5b$alloc..boxed..Box$LT$dyn$u20$core..ops..function..Fn$LT$$LP$$RP$$GT$$u2b$Output$u20$$u3d$$u20$$LP$$RP$$u2b$core..marker..Sync$u2b$core..marker..Send$GT$$u5d$$GT$17h6dc6feb13d6fc875E.str")
  %0 = alloca [16 x i8], align 8
  %_3 = alloca [8 x i8], align 8
  store i64 0, ptr %_3, align 8
  call void @my_store_hook(ptr %_3, i64 8, ptr @"_ZN4core3ptr183drop_in_place$LT$$u5b$alloc..boxed..Box$LT$dyn$u20$core..ops..function..Fn$LT$$LP$$RP$$GT$$u2b$Output$u20$$u3d$$u20$$LP$$RP$$u2b$core..marker..Sync$u2b$core..marker..Send$GT$$u5d$$GT$17h6dc6feb13d6fc875E.str")
  br label %bb6

bb6:                                              ; preds = %bb5, %start
  %1 = load i64, ptr %_3, align 8
  call void @my_load_hook(ptr %_3, i64 8, ptr @"_ZN4core3ptr183drop_in_place$LT$$u5b$alloc..boxed..Box$LT$dyn$u20$core..ops..function..Fn$LT$$LP$$RP$$GT$$u2b$Output$u20$$u3d$$u20$$LP$$RP$$u2b$core..marker..Sync$u2b$core..marker..Send$GT$$u5d$$GT$17h6dc6feb13d6fc875E.str")
  %_7 = icmp eq i64 %1, %_1.1
  br i1 %_7, label %bb1, label %bb5

bb5:                                              ; preds = %bb6
  %2 = load i64, ptr %_3, align 8
  call void @my_load_hook(ptr %_3, i64 8, ptr @"_ZN4core3ptr183drop_in_place$LT$$u5b$alloc..boxed..Box$LT$dyn$u20$core..ops..function..Fn$LT$$LP$$RP$$GT$$u2b$Output$u20$$u3d$$u20$$LP$$RP$$u2b$core..marker..Sync$u2b$core..marker..Send$GT$$u5d$$GT$17h6dc6feb13d6fc875E.str")
  %_6 = getelementptr inbounds nuw %"alloc::boxed::Box<dyn core::ops::function::Fn() + core::marker::Send + core::marker::Sync>", ptr %_1.0, i64 %2
  %3 = load i64, ptr %_3, align 8
  call void @my_load_hook(ptr %_3, i64 8, ptr @"_ZN4core3ptr183drop_in_place$LT$$u5b$alloc..boxed..Box$LT$dyn$u20$core..ops..function..Fn$LT$$LP$$RP$$GT$$u2b$Output$u20$$u3d$$u20$$LP$$RP$$u2b$core..marker..Sync$u2b$core..marker..Send$GT$$u5d$$GT$17h6dc6feb13d6fc875E.str")
  %4 = add i64 %3, 1
  store i64 %4, ptr %_3, align 8
  call void @my_store_hook(ptr %_3, i64 8, ptr @"_ZN4core3ptr183drop_in_place$LT$$u5b$alloc..boxed..Box$LT$dyn$u20$core..ops..function..Fn$LT$$LP$$RP$$GT$$u2b$Output$u20$$u3d$$u20$$LP$$RP$$u2b$core..marker..Sync$u2b$core..marker..Send$GT$$u5d$$GT$17h6dc6feb13d6fc875E.str")
  invoke void @"_ZN4core3ptr173drop_in_place$LT$alloc..boxed..Box$LT$dyn$u20$core..ops..function..Fn$LT$$LP$$RP$$GT$$u2b$Output$u20$$u3d$$u20$$LP$$RP$$u2b$core..marker..Sync$u2b$core..marker..Send$GT$$GT$17h6925c0b5ec1f58bcE"(ptr align 8 %_6)
          to label %bb6 unwind label %cleanup

bb1:                                              ; preds = %bb6
  call void @my_func_exit(ptr @"_ZN4core3ptr183drop_in_place$LT$$u5b$alloc..boxed..Box$LT$dyn$u20$core..ops..function..Fn$LT$$LP$$RP$$GT$$u2b$Output$u20$$u3d$$u20$$LP$$RP$$u2b$core..marker..Sync$u2b$core..marker..Send$GT$$u5d$$GT$17h6dc6feb13d6fc875E.str")
  ret void

bb4:                                              ; preds = %bb3, %cleanup
  %5 = load i64, ptr %_3, align 8
  call void @my_load_hook(ptr %_3, i64 8, ptr @"_ZN4core3ptr183drop_in_place$LT$$u5b$alloc..boxed..Box$LT$dyn$u20$core..ops..function..Fn$LT$$LP$$RP$$GT$$u2b$Output$u20$$u3d$$u20$$LP$$RP$$u2b$core..marker..Sync$u2b$core..marker..Send$GT$$u5d$$GT$17h6dc6feb13d6fc875E.str")
  %_5 = icmp eq i64 %5, %_1.1
  br i1 %_5, label %bb2, label %bb3

cleanup:                                          ; preds = %bb5
  %6 = landingpad { ptr, i32 }
          cleanup
  %7 = extractvalue { ptr, i32 } %6, 0
  %8 = extractvalue { ptr, i32 } %6, 1
  store ptr %7, ptr %0, align 8
  call void @my_store_hook(ptr %0, i64 8, ptr @"_ZN4core3ptr183drop_in_place$LT$$u5b$alloc..boxed..Box$LT$dyn$u20$core..ops..function..Fn$LT$$LP$$RP$$GT$$u2b$Output$u20$$u3d$$u20$$LP$$RP$$u2b$core..marker..Sync$u2b$core..marker..Send$GT$$u5d$$GT$17h6dc6feb13d6fc875E.str")
  %9 = getelementptr inbounds i8, ptr %0, i64 8
  store i32 %8, ptr %9, align 8
  call void @my_store_hook(ptr %9, i64 4, ptr @"_ZN4core3ptr183drop_in_place$LT$$u5b$alloc..boxed..Box$LT$dyn$u20$core..ops..function..Fn$LT$$LP$$RP$$GT$$u2b$Output$u20$$u3d$$u20$$LP$$RP$$u2b$core..marker..Sync$u2b$core..marker..Send$GT$$u5d$$GT$17h6dc6feb13d6fc875E.str")
  br label %bb4

bb3:                                              ; preds = %bb4
  %10 = load i64, ptr %_3, align 8
  call void @my_load_hook(ptr %_3, i64 8, ptr @"_ZN4core3ptr183drop_in_place$LT$$u5b$alloc..boxed..Box$LT$dyn$u20$core..ops..function..Fn$LT$$LP$$RP$$GT$$u2b$Output$u20$$u3d$$u20$$LP$$RP$$u2b$core..marker..Sync$u2b$core..marker..Send$GT$$u5d$$GT$17h6dc6feb13d6fc875E.str")
  %_4 = getelementptr inbounds nuw %"alloc::boxed::Box<dyn core::ops::function::Fn() + core::marker::Send + core::marker::Sync>", ptr %_1.0, i64 %10
  %11 = load i64, ptr %_3, align 8
  call void @my_load_hook(ptr %_3, i64 8, ptr @"_ZN4core3ptr183drop_in_place$LT$$u5b$alloc..boxed..Box$LT$dyn$u20$core..ops..function..Fn$LT$$LP$$RP$$GT$$u2b$Output$u20$$u3d$$u20$$LP$$RP$$u2b$core..marker..Sync$u2b$core..marker..Send$GT$$u5d$$GT$17h6dc6feb13d6fc875E.str")
  %12 = add i64 %11, 1
  store i64 %12, ptr %_3, align 8
  call void @my_store_hook(ptr %_3, i64 8, ptr @"_ZN4core3ptr183drop_in_place$LT$$u5b$alloc..boxed..Box$LT$dyn$u20$core..ops..function..Fn$LT$$LP$$RP$$GT$$u2b$Output$u20$$u3d$$u20$$LP$$RP$$u2b$core..marker..Sync$u2b$core..marker..Send$GT$$u5d$$GT$17h6dc6feb13d6fc875E.str")
  invoke void @"_ZN4core3ptr173drop_in_place$LT$alloc..boxed..Box$LT$dyn$u20$core..ops..function..Fn$LT$$LP$$RP$$GT$$u2b$Output$u20$$u3d$$u20$$LP$$RP$$u2b$core..marker..Sync$u2b$core..marker..Send$GT$$GT$17h6925c0b5ec1f58bcE"(ptr align 8 %_4) #19
          to label %bb4 unwind label %terminate

bb2:                                              ; preds = %bb4
  %13 = load ptr, ptr %0, align 8
  call void @my_load_hook(ptr %0, i64 8, ptr @"_ZN4core3ptr183drop_in_place$LT$$u5b$alloc..boxed..Box$LT$dyn$u20$core..ops..function..Fn$LT$$LP$$RP$$GT$$u2b$Output$u20$$u3d$$u20$$LP$$RP$$u2b$core..marker..Sync$u2b$core..marker..Send$GT$$u5d$$GT$17h6dc6feb13d6fc875E.str")
  %14 = getelementptr inbounds i8, ptr %0, i64 8
  %15 = load i32, ptr %14, align 8
  call void @my_load_hook(ptr %14, i64 4, ptr @"_ZN4core3ptr183drop_in_place$LT$$u5b$alloc..boxed..Box$LT$dyn$u20$core..ops..function..Fn$LT$$LP$$RP$$GT$$u2b$Output$u20$$u3d$$u20$$LP$$RP$$u2b$core..marker..Sync$u2b$core..marker..Send$GT$$u5d$$GT$17h6dc6feb13d6fc875E.str")
  %16 = insertvalue { ptr, i32 } poison, ptr %13, 0
  %17 = insertvalue { ptr, i32 } %16, i32 %15, 1
  resume { ptr, i32 } %17

terminate:                                        ; preds = %bb3
  %18 = landingpad { ptr, i32 }
          filter [0 x ptr] zeroinitializer
  call void @_ZN4core9panicking16panic_in_cleanup17hb509fce69c32fbdaE() #20
  unreachable
}

; Function Attrs: nonlazybind uwtable
define void @"_ZN4core3ptr186drop_in_place$LT$dyn$u20$core..ops..function..Fn$LT$$LP$aster_time..clocksource..Instant$C$u64$RP$$GT$$u2b$Output$u20$$u3d$$u20$$LP$$RP$$u2b$core..marker..Sync$u2b$core..marker..Send$GT$17h49a83eadd7f67f81E"(ptr align 1 %_1.0, ptr align 8 %_1.1) unnamed_addr #1 {
start:
  call void @my_func_entry(ptr @"_ZN4core3ptr186drop_in_place$LT$dyn$u20$core..ops..function..Fn$LT$$LP$aster_time..clocksource..Instant$C$u64$RP$$GT$$u2b$Output$u20$$u3d$$u20$$LP$$RP$$u2b$core..marker..Sync$u2b$core..marker..Send$GT$17h49a83eadd7f67f81E.str")
  %0 = getelementptr inbounds i8, ptr %_1.1, i64 0
  %1 = load ptr, ptr %0, align 8, !invariant.load !3
  call void @my_load_hook(ptr %0, i64 8, ptr @"_ZN4core3ptr186drop_in_place$LT$dyn$u20$core..ops..function..Fn$LT$$LP$aster_time..clocksource..Instant$C$u64$RP$$GT$$u2b$Output$u20$$u3d$$u20$$LP$$RP$$u2b$core..marker..Sync$u2b$core..marker..Send$GT$17h49a83eadd7f67f81E.str")
  %2 = icmp ne ptr %1, null
  br i1 %2, label %is_not_null, label %bb1

is_not_null:                                      ; preds = %start
  call void %1(ptr %_1.0)
  br label %bb1

bb1:                                              ; preds = %is_not_null, %start
  call void @my_func_exit(ptr @"_ZN4core3ptr186drop_in_place$LT$dyn$u20$core..ops..function..Fn$LT$$LP$aster_time..clocksource..Instant$C$u64$RP$$GT$$u2b$Output$u20$$u3d$$u20$$LP$$RP$$u2b$core..marker..Sync$u2b$core..marker..Send$GT$17h49a83eadd7f67f81E.str")
  ret void
}

; Function Attrs: nonlazybind uwtable
define void @"_ZN4core3ptr195drop_in_place$LT$alloc..sync..Weak$LT$dyn$u20$core..ops..function..Fn$LT$$LP$$RP$$GT$$u2b$Output$u20$$u3d$$u20$u64$u2b$core..marker..Sync$u2b$core..marker..Send$C$$RF$alloc..alloc..Global$GT$$GT$17hc1f8354caaecd952E"(ptr align 8 %_1) unnamed_addr #1 {
start:
  call void @my_func_entry(ptr @"_ZN4core3ptr195drop_in_place$LT$alloc..sync..Weak$LT$dyn$u20$core..ops..function..Fn$LT$$LP$$RP$$GT$$u2b$Output$u20$$u3d$$u20$u64$u2b$core..marker..Sync$u2b$core..marker..Send$C$$RF$alloc..alloc..Global$GT$$GT$17hc1f8354caaecd952E.str")
  call void @"_ZN72_$LT$alloc..sync..Weak$LT$T$C$A$GT$$u20$as$u20$core..ops..drop..Drop$GT$4drop17h6089d27cd0f33867E"(ptr align 8 %_1)
  call void @my_func_exit(ptr @"_ZN4core3ptr195drop_in_place$LT$alloc..sync..Weak$LT$dyn$u20$core..ops..function..Fn$LT$$LP$$RP$$GT$$u2b$Output$u20$$u3d$$u20$u64$u2b$core..marker..Sync$u2b$core..marker..Send$C$$RF$alloc..alloc..Global$GT$$GT$17hc1f8354caaecd952E.str")
  ret void
}

; Function Attrs: nonlazybind uwtable
define void @"_ZN4core3ptr196drop_in_place$LT$alloc..vec..Vec$LT$alloc..boxed..Box$LT$dyn$u20$core..ops..function..Fn$LT$$LP$$RP$$GT$$u2b$Output$u20$$u3d$$u20$$LP$$RP$$u2b$core..marker..Sync$u2b$core..marker..Send$GT$$GT$$GT$17h12e954cce4cc2d5aE"(ptr align 8 %_1) unnamed_addr #1 personality ptr @rust_eh_personality {
start:
  call void @my_func_entry(ptr @"_ZN4core3ptr196drop_in_place$LT$alloc..vec..Vec$LT$alloc..boxed..Box$LT$dyn$u20$core..ops..function..Fn$LT$$LP$$RP$$GT$$u2b$Output$u20$$u3d$$u20$$LP$$RP$$u2b$core..marker..Sync$u2b$core..marker..Send$GT$$GT$$GT$17h12e954cce4cc2d5aE.str")
  %0 = alloca [16 x i8], align 8
  invoke void @"_ZN70_$LT$alloc..vec..Vec$LT$T$C$A$GT$$u20$as$u20$core..ops..drop..Drop$GT$4drop17he01c9728bd3e8c40E"(ptr align 8 %_1)
          to label %bb4 unwind label %cleanup

bb3:                                              ; preds = %cleanup
  invoke void @"_ZN4core3ptr203drop_in_place$LT$alloc..raw_vec..RawVec$LT$alloc..boxed..Box$LT$dyn$u20$core..ops..function..Fn$LT$$LP$$RP$$GT$$u2b$Output$u20$$u3d$$u20$$LP$$RP$$u2b$core..marker..Sync$u2b$core..marker..Send$GT$$GT$$GT$17h5460509f8920413dE"(ptr align 8 %_1) #19
          to label %bb1 unwind label %terminate

cleanup:                                          ; preds = %start
  %1 = landingpad { ptr, i32 }
          cleanup
  %2 = extractvalue { ptr, i32 } %1, 0
  %3 = extractvalue { ptr, i32 } %1, 1
  store ptr %2, ptr %0, align 8
  call void @my_store_hook(ptr %0, i64 8, ptr @"_ZN4core3ptr196drop_in_place$LT$alloc..vec..Vec$LT$alloc..boxed..Box$LT$dyn$u20$core..ops..function..Fn$LT$$LP$$RP$$GT$$u2b$Output$u20$$u3d$$u20$$LP$$RP$$u2b$core..marker..Sync$u2b$core..marker..Send$GT$$GT$$GT$17h12e954cce4cc2d5aE.str")
  %4 = getelementptr inbounds i8, ptr %0, i64 8
  store i32 %3, ptr %4, align 8
  call void @my_store_hook(ptr %4, i64 4, ptr @"_ZN4core3ptr196drop_in_place$LT$alloc..vec..Vec$LT$alloc..boxed..Box$LT$dyn$u20$core..ops..function..Fn$LT$$LP$$RP$$GT$$u2b$Output$u20$$u3d$$u20$$LP$$RP$$u2b$core..marker..Sync$u2b$core..marker..Send$GT$$GT$$GT$17h12e954cce4cc2d5aE.str")
  br label %bb3

bb4:                                              ; preds = %start
  call void @"_ZN4core3ptr203drop_in_place$LT$alloc..raw_vec..RawVec$LT$alloc..boxed..Box$LT$dyn$u20$core..ops..function..Fn$LT$$LP$$RP$$GT$$u2b$Output$u20$$u3d$$u20$$LP$$RP$$u2b$core..marker..Sync$u2b$core..marker..Send$GT$$GT$$GT$17h5460509f8920413dE"(ptr align 8 %_1)
  call void @my_func_exit(ptr @"_ZN4core3ptr196drop_in_place$LT$alloc..vec..Vec$LT$alloc..boxed..Box$LT$dyn$u20$core..ops..function..Fn$LT$$LP$$RP$$GT$$u2b$Output$u20$$u3d$$u20$$LP$$RP$$u2b$core..marker..Sync$u2b$core..marker..Send$GT$$GT$$GT$17h12e954cce4cc2d5aE.str")
  ret void

terminate:                                        ; preds = %bb3
  %5 = landingpad { ptr, i32 }
          filter [0 x ptr] zeroinitializer
  call void @_ZN4core9panicking16panic_in_cleanup17hb509fce69c32fbdaE() #20
  unreachable

bb1:                                              ; preds = %bb3
  %6 = load ptr, ptr %0, align 8
  call void @my_load_hook(ptr %0, i64 8, ptr @"_ZN4core3ptr196drop_in_place$LT$alloc..vec..Vec$LT$alloc..boxed..Box$LT$dyn$u20$core..ops..function..Fn$LT$$LP$$RP$$GT$$u2b$Output$u20$$u3d$$u20$$LP$$RP$$u2b$core..marker..Sync$u2b$core..marker..Send$GT$$GT$$GT$17h12e954cce4cc2d5aE.str")
  %7 = getelementptr inbounds i8, ptr %0, i64 8
  %8 = load i32, ptr %7, align 8
  call void @my_load_hook(ptr %7, i64 4, ptr @"_ZN4core3ptr196drop_in_place$LT$alloc..vec..Vec$LT$alloc..boxed..Box$LT$dyn$u20$core..ops..function..Fn$LT$$LP$$RP$$GT$$u2b$Output$u20$$u3d$$u20$$LP$$RP$$u2b$core..marker..Sync$u2b$core..marker..Send$GT$$GT$$GT$17h12e954cce4cc2d5aE.str")
  %9 = insertvalue { ptr, i32 } poison, ptr %6, 0
  %10 = insertvalue { ptr, i32 } %9, i32 %8, 1
  resume { ptr, i32 } %10
}

; Function Attrs: nonlazybind uwtable
define void @"_ZN4core3ptr203drop_in_place$LT$alloc..raw_vec..RawVec$LT$alloc..boxed..Box$LT$dyn$u20$core..ops..function..Fn$LT$$LP$$RP$$GT$$u2b$Output$u20$$u3d$$u20$$LP$$RP$$u2b$core..marker..Sync$u2b$core..marker..Send$GT$$GT$$GT$17h5460509f8920413dE"(ptr align 8 %_1) unnamed_addr #1 {
start:
  call void @my_func_entry(ptr @"_ZN4core3ptr203drop_in_place$LT$alloc..raw_vec..RawVec$LT$alloc..boxed..Box$LT$dyn$u20$core..ops..function..Fn$LT$$LP$$RP$$GT$$u2b$Output$u20$$u3d$$u20$$LP$$RP$$u2b$core..marker..Sync$u2b$core..marker..Send$GT$$GT$$GT$17h5460509f8920413dE.str")
  call void @"_ZN77_$LT$alloc..raw_vec..RawVec$LT$T$C$A$GT$$u20$as$u20$core..ops..drop..Drop$GT$4drop17h3b94d4ea417df33eE"(ptr align 8 %_1)
  call void @my_func_exit(ptr @"_ZN4core3ptr203drop_in_place$LT$alloc..raw_vec..RawVec$LT$alloc..boxed..Box$LT$dyn$u20$core..ops..function..Fn$LT$$LP$$RP$$GT$$u2b$Output$u20$$u3d$$u20$$LP$$RP$$u2b$core..marker..Sync$u2b$core..marker..Send$GT$$GT$$GT$17h5460509f8920413dE.str")
  ret void
}

; Function Attrs: nonlazybind uwtable
define void @"_ZN4core3ptr210drop_in_place$LT$alloc..sync..Arc$LT$dyn$u20$core..ops..function..Fn$LT$$LP$aster_time..clocksource..Instant$C$u64$RP$$GT$$u2b$Output$u20$$u3d$$u20$$LP$$RP$$u2b$core..marker..Sync$u2b$core..marker..Send$GT$$GT$17h1badb9c884dce31cE"(ptr align 8 %_1) unnamed_addr #1 {
start:
  call void @my_func_entry(ptr @"_ZN4core3ptr210drop_in_place$LT$alloc..sync..Arc$LT$dyn$u20$core..ops..function..Fn$LT$$LP$aster_time..clocksource..Instant$C$u64$RP$$GT$$u2b$Output$u20$$u3d$$u20$$LP$$RP$$u2b$core..marker..Sync$u2b$core..marker..Send$GT$$GT$17h1badb9c884dce31cE.str")
  call void @"_ZN71_$LT$alloc..sync..Arc$LT$T$C$A$GT$$u20$as$u20$core..ops..drop..Drop$GT$4drop17h1393a4d03876e953E"(ptr align 8 %_1)
  call void @my_func_exit(ptr @"_ZN4core3ptr210drop_in_place$LT$alloc..sync..Arc$LT$dyn$u20$core..ops..function..Fn$LT$$LP$aster_time..clocksource..Instant$C$u64$RP$$GT$$u2b$Output$u20$$u3d$$u20$$LP$$RP$$u2b$core..marker..Sync$u2b$core..marker..Send$GT$$GT$17h1badb9c884dce31cE.str")
  ret void
}

; Function Attrs: nonlazybind uwtable
define void @"_ZN4core3ptr226drop_in_place$LT$core..cell..UnsafeCell$LT$alloc..vec..Vec$LT$alloc..boxed..Box$LT$dyn$u20$core..ops..function..Fn$LT$$LP$$RP$$GT$$u2b$Output$u20$$u3d$$u20$$LP$$RP$$u2b$core..marker..Sync$u2b$core..marker..Send$GT$$GT$$GT$$GT$17h7c7bdd61757ec8eeE"(ptr align 8 %_1) unnamed_addr #1 {
start:
  call void @my_func_entry(ptr @"_ZN4core3ptr226drop_in_place$LT$core..cell..UnsafeCell$LT$alloc..vec..Vec$LT$alloc..boxed..Box$LT$dyn$u20$core..ops..function..Fn$LT$$LP$$RP$$GT$$u2b$Output$u20$$u3d$$u20$$LP$$RP$$u2b$core..marker..Sync$u2b$core..marker..Send$GT$$GT$$GT$$GT$17h7c7bdd61757ec8eeE.str")
  call void @"_ZN4core3ptr196drop_in_place$LT$alloc..vec..Vec$LT$alloc..boxed..Box$LT$dyn$u20$core..ops..function..Fn$LT$$LP$$RP$$GT$$u2b$Output$u20$$u3d$$u20$$LP$$RP$$u2b$core..marker..Sync$u2b$core..marker..Send$GT$$GT$$GT$17h12e954cce4cc2d5aE"(ptr align 8 %_1)
  call void @my_func_exit(ptr @"_ZN4core3ptr226drop_in_place$LT$core..cell..UnsafeCell$LT$alloc..vec..Vec$LT$alloc..boxed..Box$LT$dyn$u20$core..ops..function..Fn$LT$$LP$$RP$$GT$$u2b$Output$u20$$u3d$$u20$$LP$$RP$$u2b$core..marker..Sync$u2b$core..marker..Send$GT$$GT$$GT$$GT$17h7c7bdd61757ec8eeE.str")
  ret void
}

; Function Attrs: nonlazybind uwtable
define void @"_ZN4core3ptr235drop_in_place$LT$std..sync..poison..mutex..Mutex$LT$alloc..vec..Vec$LT$alloc..boxed..Box$LT$dyn$u20$core..ops..function..Fn$LT$$LP$$RP$$GT$$u2b$Output$u20$$u3d$$u20$$LP$$RP$$u2b$core..marker..Sync$u2b$core..marker..Send$GT$$GT$$GT$$GT$17h896eb36f57e7d9d6E"(ptr align 8 %_1) unnamed_addr #1 {
start:
  call void @my_func_entry(ptr @"_ZN4core3ptr235drop_in_place$LT$std..sync..poison..mutex..Mutex$LT$alloc..vec..Vec$LT$alloc..boxed..Box$LT$dyn$u20$core..ops..function..Fn$LT$$LP$$RP$$GT$$u2b$Output$u20$$u3d$$u20$$LP$$RP$$u2b$core..marker..Sync$u2b$core..marker..Send$GT$$GT$$GT$$GT$17h896eb36f57e7d9d6E.str")
  %0 = getelementptr inbounds i8, ptr %_1, i64 8
  call void @"_ZN4core3ptr226drop_in_place$LT$core..cell..UnsafeCell$LT$alloc..vec..Vec$LT$alloc..boxed..Box$LT$dyn$u20$core..ops..function..Fn$LT$$LP$$RP$$GT$$u2b$Output$u20$$u3d$$u20$$LP$$RP$$u2b$core..marker..Sync$u2b$core..marker..Send$GT$$GT$$GT$$GT$17h7c7bdd61757ec8eeE"(ptr align 8 %0)
  call void @my_func_exit(ptr @"_ZN4core3ptr235drop_in_place$LT$std..sync..poison..mutex..Mutex$LT$alloc..vec..Vec$LT$alloc..boxed..Box$LT$dyn$u20$core..ops..function..Fn$LT$$LP$$RP$$GT$$u2b$Output$u20$$u3d$$u20$$LP$$RP$$u2b$core..marker..Sync$u2b$core..marker..Send$GT$$GT$$GT$$GT$17h896eb36f57e7d9d6E.str")
  ret void
}

; Function Attrs: nonlazybind uwtable
define void @"_ZN4core3ptr238drop_in_place$LT$alloc..sync..Weak$LT$dyn$u20$core..ops..function..Fn$LT$$LP$aster_time..clocksource..Instant$C$u64$RP$$GT$$u2b$Output$u20$$u3d$$u20$$LP$$RP$$u2b$core..marker..Sync$u2b$core..marker..Send$C$$RF$alloc..alloc..Global$GT$$GT$17h7672900556b493ceE"(ptr align 8 %_1) unnamed_addr #1 {
start:
  call void @my_func_entry(ptr @"_ZN4core3ptr238drop_in_place$LT$alloc..sync..Weak$LT$dyn$u20$core..ops..function..Fn$LT$$LP$aster_time..clocksource..Instant$C$u64$RP$$GT$$u2b$Output$u20$$u3d$$u20$$LP$$RP$$u2b$core..marker..Sync$u2b$core..marker..Send$C$$RF$alloc..alloc..Global$GT$$GT$17h7672900556b493ceE.str")
  call void @"_ZN72_$LT$alloc..sync..Weak$LT$T$C$A$GT$$u20$as$u20$core..ops..drop..Drop$GT$4drop17hf68775bb6003a36dE"(ptr align 8 %_1)
  call void @my_func_exit(ptr @"_ZN4core3ptr238drop_in_place$LT$alloc..sync..Weak$LT$dyn$u20$core..ops..function..Fn$LT$$LP$aster_time..clocksource..Instant$C$u64$RP$$GT$$u2b$Output$u20$$u3d$$u20$$LP$$RP$$u2b$core..marker..Sync$u2b$core..marker..Send$C$$RF$alloc..alloc..Global$GT$$GT$17h7672900556b493ceE.str")
  ret void
}

; Function Attrs: nonlazybind uwtable
define void @"_ZN4core3ptr238drop_in_place$LT$core..option..Option$LT$alloc..sync..Arc$LT$dyn$u20$core..ops..function..Fn$LT$$LP$aster_time..clocksource..Instant$C$u64$RP$$GT$$u2b$Output$u20$$u3d$$u20$$LP$$RP$$u2b$core..marker..Sync$u2b$core..marker..Send$GT$$GT$$GT$17h6ae5157314cbe500E"(ptr align 8 %_1) unnamed_addr #1 {
start:
  call void @my_func_entry(ptr @"_ZN4core3ptr238drop_in_place$LT$core..option..Option$LT$alloc..sync..Arc$LT$dyn$u20$core..ops..function..Fn$LT$$LP$aster_time..clocksource..Instant$C$u64$RP$$GT$$u2b$Output$u20$$u3d$$u20$$LP$$RP$$u2b$core..marker..Sync$u2b$core..marker..Send$GT$$GT$$GT$17h6ae5157314cbe500E.str")
  %0 = load ptr, ptr %_1, align 8
  call void @my_load_hook(ptr %_1, i64 8, ptr @"_ZN4core3ptr238drop_in_place$LT$core..option..Option$LT$alloc..sync..Arc$LT$dyn$u20$core..ops..function..Fn$LT$$LP$aster_time..clocksource..Instant$C$u64$RP$$GT$$u2b$Output$u20$$u3d$$u20$$LP$$RP$$u2b$core..marker..Sync$u2b$core..marker..Send$GT$$GT$$GT$17h6ae5157314cbe500E.str")
  %1 = getelementptr inbounds i8, ptr %_1, i64 8
  %2 = load ptr, ptr %1, align 8
  call void @my_load_hook(ptr %1, i64 8, ptr @"_ZN4core3ptr238drop_in_place$LT$core..option..Option$LT$alloc..sync..Arc$LT$dyn$u20$core..ops..function..Fn$LT$$LP$aster_time..clocksource..Instant$C$u64$RP$$GT$$u2b$Output$u20$$u3d$$u20$$LP$$RP$$u2b$core..marker..Sync$u2b$core..marker..Send$GT$$GT$$GT$17h6ae5157314cbe500E.str")
  %3 = ptrtoint ptr %0 to i64
  %4 = icmp eq i64 %3, 0
  %_2 = select i1 %4, i64 0, i64 1
  %5 = icmp eq i64 %_2, 0
  br i1 %5, label %bb1, label %bb2

bb1:                                              ; preds = %bb2, %start
  call void @my_func_exit(ptr @"_ZN4core3ptr238drop_in_place$LT$core..option..Option$LT$alloc..sync..Arc$LT$dyn$u20$core..ops..function..Fn$LT$$LP$aster_time..clocksource..Instant$C$u64$RP$$GT$$u2b$Output$u20$$u3d$$u20$$LP$$RP$$u2b$core..marker..Sync$u2b$core..marker..Send$GT$$GT$$GT$17h6ae5157314cbe500E.str")
  ret void

bb2:                                              ; preds = %start
  call void @"_ZN4core3ptr210drop_in_place$LT$alloc..sync..Arc$LT$dyn$u20$core..ops..function..Fn$LT$$LP$aster_time..clocksource..Instant$C$u64$RP$$GT$$u2b$Output$u20$$u3d$$u20$$LP$$RP$$u2b$core..marker..Sync$u2b$core..marker..Send$GT$$GT$17h1badb9c884dce31cE"(ptr align 8 %_1)
  br label %bb1
}

; Function Attrs: nonlazybind uwtable
define void @"_ZN4core3ptr240drop_in_place$LT$std..sync..poison..mutex..MutexGuard$LT$alloc..vec..Vec$LT$alloc..boxed..Box$LT$dyn$u20$core..ops..function..Fn$LT$$LP$$RP$$GT$$u2b$Output$u20$$u3d$$u20$$LP$$RP$$u2b$core..marker..Sync$u2b$core..marker..Send$GT$$GT$$GT$$GT$17h3786e0ae408e850bE"(ptr align 8 %_1) unnamed_addr #1 {
start:
  call void @my_func_entry(ptr @"_ZN4core3ptr240drop_in_place$LT$std..sync..poison..mutex..MutexGuard$LT$alloc..vec..Vec$LT$alloc..boxed..Box$LT$dyn$u20$core..ops..function..Fn$LT$$LP$$RP$$GT$$u2b$Output$u20$$u3d$$u20$$LP$$RP$$u2b$core..marker..Sync$u2b$core..marker..Send$GT$$GT$$GT$$GT$17h3786e0ae408e850bE.str")
  call void @"_ZN87_$LT$std..sync..poison..mutex..MutexGuard$LT$T$GT$$u20$as$u20$core..ops..drop..Drop$GT$4drop17h37e0be677f6ec4e7E"(ptr align 8 %_1)
  call void @my_func_exit(ptr @"_ZN4core3ptr240drop_in_place$LT$std..sync..poison..mutex..MutexGuard$LT$alloc..vec..Vec$LT$alloc..boxed..Box$LT$dyn$u20$core..ops..function..Fn$LT$$LP$$RP$$GT$$u2b$Output$u20$$u3d$$u20$$LP$$RP$$u2b$core..marker..Sync$u2b$core..marker..Send$GT$$GT$$GT$$GT$17h3786e0ae408e850bE.str")
  ret void
}

; Function Attrs: nonlazybind uwtable
define void @"_ZN4core3ptr242drop_in_place$LT$once_cell..imp..OnceCell$LT$alloc..sync..Arc$LT$dyn$u20$core..ops..function..Fn$LT$$LP$aster_time..clocksource..Instant$C$u64$RP$$GT$$u2b$Output$u20$$u3d$$u20$$LP$$RP$$u2b$core..marker..Sync$u2b$core..marker..Send$GT$$GT$$GT$17h477d6e9474e7574eE"(ptr align 8 %_1) unnamed_addr #1 {
start:
  call void @my_func_entry(ptr @"_ZN4core3ptr242drop_in_place$LT$once_cell..imp..OnceCell$LT$alloc..sync..Arc$LT$dyn$u20$core..ops..function..Fn$LT$$LP$aster_time..clocksource..Instant$C$u64$RP$$GT$$u2b$Output$u20$$u3d$$u20$$LP$$RP$$u2b$core..marker..Sync$u2b$core..marker..Send$GT$$GT$$GT$17h477d6e9474e7574eE.str")
  call void @"_ZN4core3ptr268drop_in_place$LT$core..cell..UnsafeCell$LT$core..option..Option$LT$alloc..sync..Arc$LT$dyn$u20$core..ops..function..Fn$LT$$LP$aster_time..clocksource..Instant$C$u64$RP$$GT$$u2b$Output$u20$$u3d$$u20$$LP$$RP$$u2b$core..marker..Sync$u2b$core..marker..Send$GT$$GT$$GT$$GT$17h520f0225c7c9ab17E"(ptr align 8 %_1)
  call void @my_func_exit(ptr @"_ZN4core3ptr242drop_in_place$LT$once_cell..imp..OnceCell$LT$alloc..sync..Arc$LT$dyn$u20$core..ops..function..Fn$LT$$LP$aster_time..clocksource..Instant$C$u64$RP$$GT$$u2b$Output$u20$$u3d$$u20$$LP$$RP$$u2b$core..marker..Sync$u2b$core..marker..Send$GT$$GT$$GT$17h477d6e9474e7574eE.str")
  ret void
}

; Function Attrs: nonlazybind uwtable
define void @"_ZN4core3ptr243drop_in_place$LT$once_cell..sync..OnceCell$LT$alloc..sync..Arc$LT$dyn$u20$core..ops..function..Fn$LT$$LP$aster_time..clocksource..Instant$C$u64$RP$$GT$$u2b$Output$u20$$u3d$$u20$$LP$$RP$$u2b$core..marker..Sync$u2b$core..marker..Send$GT$$GT$$GT$17h0ca53a74147ca2d5E"(ptr align 8 %_1) unnamed_addr #1 {
start:
  call void @my_func_entry(ptr @"_ZN4core3ptr243drop_in_place$LT$once_cell..sync..OnceCell$LT$alloc..sync..Arc$LT$dyn$u20$core..ops..function..Fn$LT$$LP$aster_time..clocksource..Instant$C$u64$RP$$GT$$u2b$Output$u20$$u3d$$u20$$LP$$RP$$u2b$core..marker..Sync$u2b$core..marker..Send$GT$$GT$$GT$17h0ca53a74147ca2d5E.str")
  call void @"_ZN4core3ptr242drop_in_place$LT$once_cell..imp..OnceCell$LT$alloc..sync..Arc$LT$dyn$u20$core..ops..function..Fn$LT$$LP$aster_time..clocksource..Instant$C$u64$RP$$GT$$u2b$Output$u20$$u3d$$u20$$LP$$RP$$u2b$core..marker..Sync$u2b$core..marker..Send$GT$$GT$$GT$17h477d6e9474e7574eE"(ptr align 8 %_1)
  call void @my_func_exit(ptr @"_ZN4core3ptr243drop_in_place$LT$once_cell..sync..OnceCell$LT$alloc..sync..Arc$LT$dyn$u20$core..ops..function..Fn$LT$$LP$aster_time..clocksource..Instant$C$u64$RP$$GT$$u2b$Output$u20$$u3d$$u20$$LP$$RP$$u2b$core..marker..Sync$u2b$core..marker..Send$GT$$GT$$GT$17h0ca53a74147ca2d5E.str")
  ret void
}

; Function Attrs: nonlazybind uwtable
define void @"_ZN4core3ptr263drop_in_place$LT$core..option..Option$LT$std..sync..poison..mutex..Mutex$LT$alloc..vec..Vec$LT$alloc..boxed..Box$LT$dyn$u20$core..ops..function..Fn$LT$$LP$$RP$$GT$$u2b$Output$u20$$u3d$$u20$$LP$$RP$$u2b$core..marker..Sync$u2b$core..marker..Send$GT$$GT$$GT$$GT$$GT$17had6ae7ba0928268dE"(ptr align 8 %_1) unnamed_addr #1 {
start:
  call void @my_func_entry(ptr @"_ZN4core3ptr263drop_in_place$LT$core..option..Option$LT$std..sync..poison..mutex..Mutex$LT$alloc..vec..Vec$LT$alloc..boxed..Box$LT$dyn$u20$core..ops..function..Fn$LT$$LP$$RP$$GT$$u2b$Output$u20$$u3d$$u20$$LP$$RP$$u2b$core..marker..Sync$u2b$core..marker..Send$GT$$GT$$GT$$GT$$GT$17had6ae7ba0928268dE.str")
  %_2 = load i64, ptr %_1, align 8
  call void @my_load_hook(ptr %_1, i64 8, ptr @"_ZN4core3ptr263drop_in_place$LT$core..option..Option$LT$std..sync..poison..mutex..Mutex$LT$alloc..vec..Vec$LT$alloc..boxed..Box$LT$dyn$u20$core..ops..function..Fn$LT$$LP$$RP$$GT$$u2b$Output$u20$$u3d$$u20$$LP$$RP$$u2b$core..marker..Sync$u2b$core..marker..Send$GT$$GT$$GT$$GT$$GT$17had6ae7ba0928268dE.str")
  %0 = icmp eq i64 %_2, 0
  br i1 %0, label %bb1, label %bb2

bb1:                                              ; preds = %bb2, %start
  call void @my_func_exit(ptr @"_ZN4core3ptr263drop_in_place$LT$core..option..Option$LT$std..sync..poison..mutex..Mutex$LT$alloc..vec..Vec$LT$alloc..boxed..Box$LT$dyn$u20$core..ops..function..Fn$LT$$LP$$RP$$GT$$u2b$Output$u20$$u3d$$u20$$LP$$RP$$u2b$core..marker..Sync$u2b$core..marker..Send$GT$$GT$$GT$$GT$$GT$17had6ae7ba0928268dE.str")
  ret void

bb2:                                              ; preds = %start
  %1 = getelementptr inbounds i8, ptr %_1, i64 8
  call void @"_ZN4core3ptr235drop_in_place$LT$std..sync..poison..mutex..Mutex$LT$alloc..vec..Vec$LT$alloc..boxed..Box$LT$dyn$u20$core..ops..function..Fn$LT$$LP$$RP$$GT$$u2b$Output$u20$$u3d$$u20$$LP$$RP$$u2b$core..marker..Sync$u2b$core..marker..Send$GT$$GT$$GT$$GT$17h896eb36f57e7d9d6E"(ptr align 8 %1)
  br label %bb1
}

; Function Attrs: nonlazybind uwtable
define void @"_ZN4core3ptr268drop_in_place$LT$core..cell..UnsafeCell$LT$core..option..Option$LT$alloc..sync..Arc$LT$dyn$u20$core..ops..function..Fn$LT$$LP$aster_time..clocksource..Instant$C$u64$RP$$GT$$u2b$Output$u20$$u3d$$u20$$LP$$RP$$u2b$core..marker..Sync$u2b$core..marker..Send$GT$$GT$$GT$$GT$17h520f0225c7c9ab17E"(ptr align 8 %_1) unnamed_addr #1 {
start:
  call void @my_func_entry(ptr @"_ZN4core3ptr268drop_in_place$LT$core..cell..UnsafeCell$LT$core..option..Option$LT$alloc..sync..Arc$LT$dyn$u20$core..ops..function..Fn$LT$$LP$aster_time..clocksource..Instant$C$u64$RP$$GT$$u2b$Output$u20$$u3d$$u20$$LP$$RP$$u2b$core..marker..Sync$u2b$core..marker..Send$GT$$GT$$GT$$GT$17h520f0225c7c9ab17E.str")
  call void @"_ZN4core3ptr238drop_in_place$LT$core..option..Option$LT$alloc..sync..Arc$LT$dyn$u20$core..ops..function..Fn$LT$$LP$aster_time..clocksource..Instant$C$u64$RP$$GT$$u2b$Output$u20$$u3d$$u20$$LP$$RP$$u2b$core..marker..Sync$u2b$core..marker..Send$GT$$GT$$GT$17h6ae5157314cbe500E"(ptr align 8 %_1)
  call void @my_func_exit(ptr @"_ZN4core3ptr268drop_in_place$LT$core..cell..UnsafeCell$LT$core..option..Option$LT$alloc..sync..Arc$LT$dyn$u20$core..ops..function..Fn$LT$$LP$aster_time..clocksource..Instant$C$u64$RP$$GT$$u2b$Output$u20$$u3d$$u20$$LP$$RP$$u2b$core..marker..Sync$u2b$core..marker..Send$GT$$GT$$GT$$GT$17h520f0225c7c9ab17E.str")
  ret void
}

; Function Attrs: nonlazybind uwtable
define void @"_ZN4core3ptr278drop_in_place$LT$std..sync..poison..PoisonError$LT$std..sync..poison..mutex..MutexGuard$LT$alloc..vec..Vec$LT$alloc..boxed..Box$LT$dyn$u20$core..ops..function..Fn$LT$$LP$$RP$$GT$$u2b$Output$u20$$u3d$$u20$$LP$$RP$$u2b$core..marker..Sync$u2b$core..marker..Send$GT$$GT$$GT$$GT$$GT$17he94139f03af93455E"(ptr align 8 %_1) unnamed_addr #1 {
start:
  call void @my_func_entry(ptr @"_ZN4core3ptr278drop_in_place$LT$std..sync..poison..PoisonError$LT$std..sync..poison..mutex..MutexGuard$LT$alloc..vec..Vec$LT$alloc..boxed..Box$LT$dyn$u20$core..ops..function..Fn$LT$$LP$$RP$$GT$$u2b$Output$u20$$u3d$$u20$$LP$$RP$$u2b$core..marker..Sync$u2b$core..marker..Send$GT$$GT$$GT$$GT$$GT$17he94139f03af93455E.str")
  call void @"_ZN4core3ptr240drop_in_place$LT$std..sync..poison..mutex..MutexGuard$LT$alloc..vec..Vec$LT$alloc..boxed..Box$LT$dyn$u20$core..ops..function..Fn$LT$$LP$$RP$$GT$$u2b$Output$u20$$u3d$$u20$$LP$$RP$$u2b$core..marker..Sync$u2b$core..marker..Send$GT$$GT$$GT$$GT$17h3786e0ae408e850bE"(ptr align 8 %_1)
  call void @my_func_exit(ptr @"_ZN4core3ptr278drop_in_place$LT$std..sync..poison..PoisonError$LT$std..sync..poison..mutex..MutexGuard$LT$alloc..vec..Vec$LT$alloc..boxed..Box$LT$dyn$u20$core..ops..function..Fn$LT$$LP$$RP$$GT$$u2b$Output$u20$$u3d$$u20$$LP$$RP$$u2b$core..marker..Sync$u2b$core..marker..Send$GT$$GT$$GT$$GT$$GT$17he94139f03af93455E.str")
  ret void
}

; Function Attrs: nonlazybind uwtable
define void @"_ZN4core3ptr57drop_in_place$LT$aster_time..clocksource..ClockSource$GT$17ha750b08edb8d3056E"(ptr align 8 %_1) unnamed_addr #1 {
start:
  call void @my_func_entry(ptr @"_ZN4core3ptr57drop_in_place$LT$aster_time..clocksource..ClockSource$GT$17ha750b08edb8d3056E.str")
  call void @"_ZN4core3ptr167drop_in_place$LT$alloc..sync..Arc$LT$dyn$u20$core..ops..function..Fn$LT$$LP$$RP$$GT$$u2b$Output$u20$$u3d$$u20$u64$u2b$core..marker..Sync$u2b$core..marker..Send$GT$$GT$17h3c314fcaaf62bb70E"(ptr align 8 %_1)
  call void @my_func_exit(ptr @"_ZN4core3ptr57drop_in_place$LT$aster_time..clocksource..ClockSource$GT$17ha750b08edb8d3056E.str")
  ret void
}

; Function Attrs: nonlazybind uwtable
define void @"_ZN4core3ptr81drop_in_place$LT$alloc..sync..Arc$LT$aster_time..clocksource..ClockSource$GT$$GT$17he5d3a60ef7deee52E"(ptr align 8 %_1) unnamed_addr #1 {
start:
  call void @my_func_entry(ptr @"_ZN4core3ptr81drop_in_place$LT$alloc..sync..Arc$LT$aster_time..clocksource..ClockSource$GT$$GT$17he5d3a60ef7deee52E.str")
  call void @"_ZN71_$LT$alloc..sync..Arc$LT$T$C$A$GT$$u20$as$u20$core..ops..drop..Drop$GT$4drop17h892cbd92b18d7cb8E"(ptr align 8 %_1)
  call void @my_func_exit(ptr @"_ZN4core3ptr81drop_in_place$LT$alloc..sync..Arc$LT$aster_time..clocksource..ClockSource$GT$$GT$17he5d3a60ef7deee52E.str")
  ret void
}

; Function Attrs: nonlazybind uwtable
define void @"_ZN4core3ptr86drop_in_place$LT$alloc..sync..ArcInner$LT$aster_time..clocksource..ClockSource$GT$$GT$17hd7ecb5e811adedb6E"(ptr align 8 %_1) unnamed_addr #1 {
start:
  call void @my_func_entry(ptr @"_ZN4core3ptr86drop_in_place$LT$alloc..sync..ArcInner$LT$aster_time..clocksource..ClockSource$GT$$GT$17hd7ecb5e811adedb6E.str")
  %0 = getelementptr inbounds i8, ptr %_1, i64 16
  call void @"_ZN4core3ptr57drop_in_place$LT$aster_time..clocksource..ClockSource$GT$17ha750b08edb8d3056E"(ptr align 8 %0)
  call void @my_func_exit(ptr @"_ZN4core3ptr86drop_in_place$LT$alloc..sync..ArcInner$LT$aster_time..clocksource..ClockSource$GT$$GT$17hd7ecb5e811adedb6E.str")
  ret void
}

; Function Attrs: nonlazybind uwtable
define void @"_ZN4core3ptr87drop_in_place$LT$std..sync..poison..mutex..MutexGuard$LT$aster_time..SystemTime$GT$$GT$17h4c37ef9fda9c10edE"(ptr align 8 %_1) unnamed_addr #1 {
start:
  call void @my_func_entry(ptr @"_ZN4core3ptr87drop_in_place$LT$std..sync..poison..mutex..MutexGuard$LT$aster_time..SystemTime$GT$$GT$17h4c37ef9fda9c10edE.str")
  call void @"_ZN87_$LT$std..sync..poison..mutex..MutexGuard$LT$T$GT$$u20$as$u20$core..ops..drop..Drop$GT$4drop17h353b3d3511ba1550E"(ptr align 8 %_1)
  call void @my_func_exit(ptr @"_ZN4core3ptr87drop_in_place$LT$std..sync..poison..mutex..MutexGuard$LT$aster_time..SystemTime$GT$$GT$17h4c37ef9fda9c10edE.str")
  ret void
}

; Function Attrs: inlinehint nounwind nonlazybind uwtable
define internal void @"_ZN4core3ptr8non_null16NonNull$LT$T$GT$13new_unchecked18precondition_check17h1908d8c30a2aab75E"(ptr %ptr, ptr align 8 %0) unnamed_addr #3 {
start:
  call void @my_func_entry(ptr @"_ZN4core3ptr8non_null16NonNull$LT$T$GT$13new_unchecked18precondition_check17h1908d8c30a2aab75E.str")
  %_5 = alloca [16 x i8], align 8
  %_3 = alloca [48 x i8], align 8
  %_6 = ptrtoint ptr %ptr to i64
  %1 = icmp eq i64 %_6, 0
  br i1 %1, label %bb1, label %bb2

bb1:                                              ; preds = %start
  %2 = getelementptr inbounds nuw { ptr, i64 }, ptr %_5, i64 0
  store ptr @alloc_560a59ed819b9d9a5841f6e731c4c8e5, ptr %2, align 8
  call void @my_store_hook(ptr %2, i64 8, ptr @"_ZN4core3ptr8non_null16NonNull$LT$T$GT$13new_unchecked18precondition_check17h1908d8c30a2aab75E.str")
  %3 = getelementptr inbounds i8, ptr %2, i64 8
  store i64 210, ptr %3, align 8
  call void @my_store_hook(ptr %3, i64 8, ptr @"_ZN4core3ptr8non_null16NonNull$LT$T$GT$13new_unchecked18precondition_check17h1908d8c30a2aab75E.str")
  store ptr %_5, ptr %_3, align 8
  call void @my_store_hook(ptr %_3, i64 8, ptr @"_ZN4core3ptr8non_null16NonNull$LT$T$GT$13new_unchecked18precondition_check17h1908d8c30a2aab75E.str")
  %4 = getelementptr inbounds i8, ptr %_3, i64 8
  store i64 1, ptr %4, align 8
  call void @my_store_hook(ptr %4, i64 8, ptr @"_ZN4core3ptr8non_null16NonNull$LT$T$GT$13new_unchecked18precondition_check17h1908d8c30a2aab75E.str")
  %5 = load ptr, ptr @anon.8907c793926939c1a3db336f022d0871.0, align 8
  call void @my_load_hook(ptr @anon.8907c793926939c1a3db336f022d0871.0, i64 8, ptr @"_ZN4core3ptr8non_null16NonNull$LT$T$GT$13new_unchecked18precondition_check17h1908d8c30a2aab75E.str")
  %6 = load i64, ptr getelementptr inbounds (i8, ptr @anon.8907c793926939c1a3db336f022d0871.0, i64 8), align 8
  call void @my_load_hook(ptr getelementptr inbounds (i8, ptr @anon.8907c793926939c1a3db336f022d0871.0, i64 8), i64 8, ptr @"_ZN4core3ptr8non_null16NonNull$LT$T$GT$13new_unchecked18precondition_check17h1908d8c30a2aab75E.str")
  %7 = getelementptr inbounds i8, ptr %_3, i64 32
  store ptr %5, ptr %7, align 8
  call void @my_store_hook(ptr %7, i64 8, ptr @"_ZN4core3ptr8non_null16NonNull$LT$T$GT$13new_unchecked18precondition_check17h1908d8c30a2aab75E.str")
  %8 = getelementptr inbounds i8, ptr %7, i64 8
  store i64 %6, ptr %8, align 8
  call void @my_store_hook(ptr %8, i64 8, ptr @"_ZN4core3ptr8non_null16NonNull$LT$T$GT$13new_unchecked18precondition_check17h1908d8c30a2aab75E.str")
  %9 = getelementptr inbounds i8, ptr %_3, i64 16
  store ptr inttoptr (i64 8 to ptr), ptr %9, align 8
  call void @my_store_hook(ptr %9, i64 8, ptr @"_ZN4core3ptr8non_null16NonNull$LT$T$GT$13new_unchecked18precondition_check17h1908d8c30a2aab75E.str")
  %10 = getelementptr inbounds i8, ptr %9, i64 8
  store i64 0, ptr %10, align 8
  call void @my_store_hook(ptr %10, i64 8, ptr @"_ZN4core3ptr8non_null16NonNull$LT$T$GT$13new_unchecked18precondition_check17h1908d8c30a2aab75E.str")
  call void @_ZN4core9panicking18panic_nounwind_fmt17h6c46f1098922b4b6E(ptr align 8 %_3, i1 zeroext false, ptr align 8 %0) #21
  unreachable

bb2:                                              ; preds = %start
  call void @my_func_exit(ptr @"_ZN4core3ptr8non_null16NonNull$LT$T$GT$13new_unchecked18precondition_check17h1908d8c30a2aab75E.str")
  ret void
}

; Function Attrs: nonlazybind uwtable
define void @"_ZN4core3ptr98drop_in_place$LT$dyn$u20$aster_time..rtc..Driver$u2b$core..marker..Sync$u2b$core..marker..Send$GT$17h1d9569381df1e557E"(ptr align 1 %_1.0, ptr align 8 %_1.1) unnamed_addr #1 {
start:
  call void @my_func_entry(ptr @"_ZN4core3ptr98drop_in_place$LT$dyn$u20$aster_time..rtc..Driver$u2b$core..marker..Sync$u2b$core..marker..Send$GT$17h1d9569381df1e557E.str")
  %0 = getelementptr inbounds i8, ptr %_1.1, i64 0
  %1 = load ptr, ptr %0, align 8, !invariant.load !3
  call void @my_load_hook(ptr %0, i64 8, ptr @"_ZN4core3ptr98drop_in_place$LT$dyn$u20$aster_time..rtc..Driver$u2b$core..marker..Sync$u2b$core..marker..Send$GT$17h1d9569381df1e557E.str")
  %2 = icmp ne ptr %1, null
  br i1 %2, label %is_not_null, label %bb1

is_not_null:                                      ; preds = %start
  call void %1(ptr %_1.0)
  br label %bb1

bb1:                                              ; preds = %is_not_null, %start
  call void @my_func_exit(ptr @"_ZN4core3ptr98drop_in_place$LT$dyn$u20$aster_time..rtc..Driver$u2b$core..marker..Sync$u2b$core..marker..Send$GT$17h1d9569381df1e557E.str")
  ret void
}

; Function Attrs: inlinehint nonlazybind uwtable
define i64 @_ZN4core4sync6atomic11atomic_load17h1308712063b9c2a8E(ptr %dst, i8 %order) unnamed_addr #0 {
start:
  call void @my_func_entry(ptr @_ZN4core4sync6atomic11atomic_load17h1308712063b9c2a8E.str)
  %_7 = alloca [48 x i8], align 8
  %_5 = alloca [48 x i8], align 8
  %_0 = alloca [8 x i8], align 8
  %_3 = zext i8 %order to i64
  switch i64 %_3, label %bb1 [
    i64 0, label %bb6
    i64 1, label %bb3
    i64 2, label %bb5
    i64 3, label %bb2
    i64 4, label %bb4
  ]

bb1:                                              ; preds = %start
  unreachable

bb6:                                              ; preds = %start
  %0 = load atomic i64, ptr %dst monotonic, align 8
  call void @my_load_hook(ptr %dst, i64 8, ptr @_ZN4core4sync6atomic11atomic_load17h1308712063b9c2a8E.str)
  store i64 %0, ptr %_0, align 8
  call void @my_store_hook(ptr %_0, i64 8, ptr @_ZN4core4sync6atomic11atomic_load17h1308712063b9c2a8E.str)
  br label %bb7

bb3:                                              ; preds = %start
  store ptr @alloc_b55f69a00b865c3d8c5f6dad0122f5bd, ptr %_5, align 8
  call void @my_store_hook(ptr %_5, i64 8, ptr @_ZN4core4sync6atomic11atomic_load17h1308712063b9c2a8E.str)
  %1 = getelementptr inbounds i8, ptr %_5, i64 8
  store i64 1, ptr %1, align 8
  call void @my_store_hook(ptr %1, i64 8, ptr @_ZN4core4sync6atomic11atomic_load17h1308712063b9c2a8E.str)
  %2 = load ptr, ptr @anon.8907c793926939c1a3db336f022d0871.0, align 8
  call void @my_load_hook(ptr @anon.8907c793926939c1a3db336f022d0871.0, i64 8, ptr @_ZN4core4sync6atomic11atomic_load17h1308712063b9c2a8E.str)
  %3 = load i64, ptr getelementptr inbounds (i8, ptr @anon.8907c793926939c1a3db336f022d0871.0, i64 8), align 8
  call void @my_load_hook(ptr getelementptr inbounds (i8, ptr @anon.8907c793926939c1a3db336f022d0871.0, i64 8), i64 8, ptr @_ZN4core4sync6atomic11atomic_load17h1308712063b9c2a8E.str)
  %4 = getelementptr inbounds i8, ptr %_5, i64 32
  store ptr %2, ptr %4, align 8
  call void @my_store_hook(ptr %4, i64 8, ptr @_ZN4core4sync6atomic11atomic_load17h1308712063b9c2a8E.str)
  %5 = getelementptr inbounds i8, ptr %4, i64 8
  store i64 %3, ptr %5, align 8
  call void @my_store_hook(ptr %5, i64 8, ptr @_ZN4core4sync6atomic11atomic_load17h1308712063b9c2a8E.str)
  %6 = getelementptr inbounds i8, ptr %_5, i64 16
  store ptr inttoptr (i64 8 to ptr), ptr %6, align 8
  call void @my_store_hook(ptr %6, i64 8, ptr @_ZN4core4sync6atomic11atomic_load17h1308712063b9c2a8E.str)
  %7 = getelementptr inbounds i8, ptr %6, i64 8
  store i64 0, ptr %7, align 8
  call void @my_store_hook(ptr %7, i64 8, ptr @_ZN4core4sync6atomic11atomic_load17h1308712063b9c2a8E.str)
  call void @_ZN4core9panicking9panic_fmt17h62f63d096dd276afE(ptr align 8 %_5, ptr align 8 @alloc_051df5c34fb432954f01ba2e7c186720) #22
  unreachable

bb5:                                              ; preds = %start
  %8 = load atomic i64, ptr %dst acquire, align 8
  call void @my_load_hook(ptr %dst, i64 8, ptr @_ZN4core4sync6atomic11atomic_load17h1308712063b9c2a8E.str)
  store i64 %8, ptr %_0, align 8
  call void @my_store_hook(ptr %_0, i64 8, ptr @_ZN4core4sync6atomic11atomic_load17h1308712063b9c2a8E.str)
  br label %bb7

bb2:                                              ; preds = %start
  store ptr @alloc_0175cc81e1f5c8f5b757d44420d81e68, ptr %_7, align 8
  call void @my_store_hook(ptr %_7, i64 8, ptr @_ZN4core4sync6atomic11atomic_load17h1308712063b9c2a8E.str)
  %9 = getelementptr inbounds i8, ptr %_7, i64 8
  store i64 1, ptr %9, align 8
  call void @my_store_hook(ptr %9, i64 8, ptr @_ZN4core4sync6atomic11atomic_load17h1308712063b9c2a8E.str)
  %10 = load ptr, ptr @anon.8907c793926939c1a3db336f022d0871.0, align 8
  call void @my_load_hook(ptr @anon.8907c793926939c1a3db336f022d0871.0, i64 8, ptr @_ZN4core4sync6atomic11atomic_load17h1308712063b9c2a8E.str)
  %11 = load i64, ptr getelementptr inbounds (i8, ptr @anon.8907c793926939c1a3db336f022d0871.0, i64 8), align 8
  call void @my_load_hook(ptr getelementptr inbounds (i8, ptr @anon.8907c793926939c1a3db336f022d0871.0, i64 8), i64 8, ptr @_ZN4core4sync6atomic11atomic_load17h1308712063b9c2a8E.str)
  %12 = getelementptr inbounds i8, ptr %_7, i64 32
  store ptr %10, ptr %12, align 8
  call void @my_store_hook(ptr %12, i64 8, ptr @_ZN4core4sync6atomic11atomic_load17h1308712063b9c2a8E.str)
  %13 = getelementptr inbounds i8, ptr %12, i64 8
  store i64 %11, ptr %13, align 8
  call void @my_store_hook(ptr %13, i64 8, ptr @_ZN4core4sync6atomic11atomic_load17h1308712063b9c2a8E.str)
  %14 = getelementptr inbounds i8, ptr %_7, i64 16
  store ptr inttoptr (i64 8 to ptr), ptr %14, align 8
  call void @my_store_hook(ptr %14, i64 8, ptr @_ZN4core4sync6atomic11atomic_load17h1308712063b9c2a8E.str)
  %15 = getelementptr inbounds i8, ptr %14, i64 8
  store i64 0, ptr %15, align 8
  call void @my_store_hook(ptr %15, i64 8, ptr @_ZN4core4sync6atomic11atomic_load17h1308712063b9c2a8E.str)
  call void @_ZN4core9panicking9panic_fmt17h62f63d096dd276afE(ptr align 8 %_7, ptr align 8 @alloc_1ee8d1231eb862c691f94edb251ddd5e) #22
  unreachable

bb4:                                              ; preds = %start
  %16 = load atomic i64, ptr %dst seq_cst, align 8
  call void @my_load_hook(ptr %dst, i64 8, ptr @_ZN4core4sync6atomic11atomic_load17h1308712063b9c2a8E.str)
  store i64 %16, ptr %_0, align 8
  call void @my_store_hook(ptr %_0, i64 8, ptr @_ZN4core4sync6atomic11atomic_load17h1308712063b9c2a8E.str)
  br label %bb7

bb7:                                              ; preds = %bb4, %bb5, %bb6
  %17 = load i64, ptr %_0, align 8
  call void @my_load_hook(ptr %_0, i64 8, ptr @_ZN4core4sync6atomic11atomic_load17h1308712063b9c2a8E.str)
  call void @my_func_exit(ptr @_ZN4core4sync6atomic11atomic_load17h1308712063b9c2a8E.str)
  ret i64 %17
}

; Function Attrs: inlinehint nonlazybind uwtable
define ptr @_ZN4core4sync6atomic11atomic_load17h3216bb0246ff1b34E(ptr %dst, i8 %order) unnamed_addr #0 {
start:
  call void @my_func_entry(ptr @_ZN4core4sync6atomic11atomic_load17h3216bb0246ff1b34E.str)
  %_7 = alloca [48 x i8], align 8
  %_5 = alloca [48 x i8], align 8
  %_0 = alloca [8 x i8], align 8
  %_3 = zext i8 %order to i64
  switch i64 %_3, label %bb1 [
    i64 0, label %bb6
    i64 1, label %bb3
    i64 2, label %bb5
    i64 3, label %bb2
    i64 4, label %bb4
  ]

bb1:                                              ; preds = %start
  unreachable

bb6:                                              ; preds = %start
  %0 = load atomic ptr, ptr %dst monotonic, align 8
  call void @my_load_hook(ptr %dst, i64 8, ptr @_ZN4core4sync6atomic11atomic_load17h3216bb0246ff1b34E.str)
  store ptr %0, ptr %_0, align 8
  call void @my_store_hook(ptr %_0, i64 8, ptr @_ZN4core4sync6atomic11atomic_load17h3216bb0246ff1b34E.str)
  br label %bb7

bb3:                                              ; preds = %start
  store ptr @alloc_b55f69a00b865c3d8c5f6dad0122f5bd, ptr %_5, align 8
  call void @my_store_hook(ptr %_5, i64 8, ptr @_ZN4core4sync6atomic11atomic_load17h3216bb0246ff1b34E.str)
  %1 = getelementptr inbounds i8, ptr %_5, i64 8
  store i64 1, ptr %1, align 8
  call void @my_store_hook(ptr %1, i64 8, ptr @_ZN4core4sync6atomic11atomic_load17h3216bb0246ff1b34E.str)
  %2 = load ptr, ptr @anon.8907c793926939c1a3db336f022d0871.0, align 8
  call void @my_load_hook(ptr @anon.8907c793926939c1a3db336f022d0871.0, i64 8, ptr @_ZN4core4sync6atomic11atomic_load17h3216bb0246ff1b34E.str)
  %3 = load i64, ptr getelementptr inbounds (i8, ptr @anon.8907c793926939c1a3db336f022d0871.0, i64 8), align 8
  call void @my_load_hook(ptr getelementptr inbounds (i8, ptr @anon.8907c793926939c1a3db336f022d0871.0, i64 8), i64 8, ptr @_ZN4core4sync6atomic11atomic_load17h3216bb0246ff1b34E.str)
  %4 = getelementptr inbounds i8, ptr %_5, i64 32
  store ptr %2, ptr %4, align 8
  call void @my_store_hook(ptr %4, i64 8, ptr @_ZN4core4sync6atomic11atomic_load17h3216bb0246ff1b34E.str)
  %5 = getelementptr inbounds i8, ptr %4, i64 8
  store i64 %3, ptr %5, align 8
  call void @my_store_hook(ptr %5, i64 8, ptr @_ZN4core4sync6atomic11atomic_load17h3216bb0246ff1b34E.str)
  %6 = getelementptr inbounds i8, ptr %_5, i64 16
  store ptr inttoptr (i64 8 to ptr), ptr %6, align 8
  call void @my_store_hook(ptr %6, i64 8, ptr @_ZN4core4sync6atomic11atomic_load17h3216bb0246ff1b34E.str)
  %7 = getelementptr inbounds i8, ptr %6, i64 8
  store i64 0, ptr %7, align 8
  call void @my_store_hook(ptr %7, i64 8, ptr @_ZN4core4sync6atomic11atomic_load17h3216bb0246ff1b34E.str)
  call void @_ZN4core9panicking9panic_fmt17h62f63d096dd276afE(ptr align 8 %_5, ptr align 8 @alloc_051df5c34fb432954f01ba2e7c186720) #22
  unreachable

bb5:                                              ; preds = %start
  %8 = load atomic ptr, ptr %dst acquire, align 8
  call void @my_load_hook(ptr %dst, i64 8, ptr @_ZN4core4sync6atomic11atomic_load17h3216bb0246ff1b34E.str)
  store ptr %8, ptr %_0, align 8
  call void @my_store_hook(ptr %_0, i64 8, ptr @_ZN4core4sync6atomic11atomic_load17h3216bb0246ff1b34E.str)
  br label %bb7

bb2:                                              ; preds = %start
  store ptr @alloc_0175cc81e1f5c8f5b757d44420d81e68, ptr %_7, align 8
  call void @my_store_hook(ptr %_7, i64 8, ptr @_ZN4core4sync6atomic11atomic_load17h3216bb0246ff1b34E.str)
  %9 = getelementptr inbounds i8, ptr %_7, i64 8
  store i64 1, ptr %9, align 8
  call void @my_store_hook(ptr %9, i64 8, ptr @_ZN4core4sync6atomic11atomic_load17h3216bb0246ff1b34E.str)
  %10 = load ptr, ptr @anon.8907c793926939c1a3db336f022d0871.0, align 8
  call void @my_load_hook(ptr @anon.8907c793926939c1a3db336f022d0871.0, i64 8, ptr @_ZN4core4sync6atomic11atomic_load17h3216bb0246ff1b34E.str)
  %11 = load i64, ptr getelementptr inbounds (i8, ptr @anon.8907c793926939c1a3db336f022d0871.0, i64 8), align 8
  call void @my_load_hook(ptr getelementptr inbounds (i8, ptr @anon.8907c793926939c1a3db336f022d0871.0, i64 8), i64 8, ptr @_ZN4core4sync6atomic11atomic_load17h3216bb0246ff1b34E.str)
  %12 = getelementptr inbounds i8, ptr %_7, i64 32
  store ptr %10, ptr %12, align 8
  call void @my_store_hook(ptr %12, i64 8, ptr @_ZN4core4sync6atomic11atomic_load17h3216bb0246ff1b34E.str)
  %13 = getelementptr inbounds i8, ptr %12, i64 8
  store i64 %11, ptr %13, align 8
  call void @my_store_hook(ptr %13, i64 8, ptr @_ZN4core4sync6atomic11atomic_load17h3216bb0246ff1b34E.str)
  %14 = getelementptr inbounds i8, ptr %_7, i64 16
  store ptr inttoptr (i64 8 to ptr), ptr %14, align 8
  call void @my_store_hook(ptr %14, i64 8, ptr @_ZN4core4sync6atomic11atomic_load17h3216bb0246ff1b34E.str)
  %15 = getelementptr inbounds i8, ptr %14, i64 8
  store i64 0, ptr %15, align 8
  call void @my_store_hook(ptr %15, i64 8, ptr @_ZN4core4sync6atomic11atomic_load17h3216bb0246ff1b34E.str)
  call void @_ZN4core9panicking9panic_fmt17h62f63d096dd276afE(ptr align 8 %_7, ptr align 8 @alloc_1ee8d1231eb862c691f94edb251ddd5e) #22
  unreachable

bb4:                                              ; preds = %start
  %16 = load atomic ptr, ptr %dst seq_cst, align 8
  call void @my_load_hook(ptr %dst, i64 8, ptr @_ZN4core4sync6atomic11atomic_load17h3216bb0246ff1b34E.str)
  store ptr %16, ptr %_0, align 8
  call void @my_store_hook(ptr %_0, i64 8, ptr @_ZN4core4sync6atomic11atomic_load17h3216bb0246ff1b34E.str)
  br label %bb7

bb7:                                              ; preds = %bb4, %bb5, %bb6
  %17 = load ptr, ptr %_0, align 8
  call void @my_load_hook(ptr %_0, i64 8, ptr @_ZN4core4sync6atomic11atomic_load17h3216bb0246ff1b34E.str)
  call void @my_func_exit(ptr @_ZN4core4sync6atomic11atomic_load17h3216bb0246ff1b34E.str)
  ret ptr %17
}

; Function Attrs: inlinehint nonlazybind uwtable
define i32 @_ZN4core4sync6atomic11atomic_load17hbf52c7da49f67ed9E(ptr %dst, i8 %order) unnamed_addr #0 {
start:
  call void @my_func_entry(ptr @_ZN4core4sync6atomic11atomic_load17hbf52c7da49f67ed9E.str)
  %_7 = alloca [48 x i8], align 8
  %_5 = alloca [48 x i8], align 8
  %_0 = alloca [4 x i8], align 4
  %_3 = zext i8 %order to i64
  switch i64 %_3, label %bb1 [
    i64 0, label %bb6
    i64 1, label %bb3
    i64 2, label %bb5
    i64 3, label %bb2
    i64 4, label %bb4
  ]

bb1:                                              ; preds = %start
  unreachable

bb6:                                              ; preds = %start
  %0 = load atomic i32, ptr %dst monotonic, align 4
  call void @my_load_hook(ptr %dst, i64 4, ptr @_ZN4core4sync6atomic11atomic_load17hbf52c7da49f67ed9E.str)
  store i32 %0, ptr %_0, align 4
  call void @my_store_hook(ptr %_0, i64 4, ptr @_ZN4core4sync6atomic11atomic_load17hbf52c7da49f67ed9E.str)
  br label %bb7

bb3:                                              ; preds = %start
  store ptr @alloc_b55f69a00b865c3d8c5f6dad0122f5bd, ptr %_5, align 8
  call void @my_store_hook(ptr %_5, i64 8, ptr @_ZN4core4sync6atomic11atomic_load17hbf52c7da49f67ed9E.str)
  %1 = getelementptr inbounds i8, ptr %_5, i64 8
  store i64 1, ptr %1, align 8
  call void @my_store_hook(ptr %1, i64 8, ptr @_ZN4core4sync6atomic11atomic_load17hbf52c7da49f67ed9E.str)
  %2 = load ptr, ptr @anon.8907c793926939c1a3db336f022d0871.0, align 8
  call void @my_load_hook(ptr @anon.8907c793926939c1a3db336f022d0871.0, i64 8, ptr @_ZN4core4sync6atomic11atomic_load17hbf52c7da49f67ed9E.str)
  %3 = load i64, ptr getelementptr inbounds (i8, ptr @anon.8907c793926939c1a3db336f022d0871.0, i64 8), align 8
  call void @my_load_hook(ptr getelementptr inbounds (i8, ptr @anon.8907c793926939c1a3db336f022d0871.0, i64 8), i64 8, ptr @_ZN4core4sync6atomic11atomic_load17hbf52c7da49f67ed9E.str)
  %4 = getelementptr inbounds i8, ptr %_5, i64 32
  store ptr %2, ptr %4, align 8
  call void @my_store_hook(ptr %4, i64 8, ptr @_ZN4core4sync6atomic11atomic_load17hbf52c7da49f67ed9E.str)
  %5 = getelementptr inbounds i8, ptr %4, i64 8
  store i64 %3, ptr %5, align 8
  call void @my_store_hook(ptr %5, i64 8, ptr @_ZN4core4sync6atomic11atomic_load17hbf52c7da49f67ed9E.str)
  %6 = getelementptr inbounds i8, ptr %_5, i64 16
  store ptr inttoptr (i64 8 to ptr), ptr %6, align 8
  call void @my_store_hook(ptr %6, i64 8, ptr @_ZN4core4sync6atomic11atomic_load17hbf52c7da49f67ed9E.str)
  %7 = getelementptr inbounds i8, ptr %6, i64 8
  store i64 0, ptr %7, align 8
  call void @my_store_hook(ptr %7, i64 8, ptr @_ZN4core4sync6atomic11atomic_load17hbf52c7da49f67ed9E.str)
  call void @_ZN4core9panicking9panic_fmt17h62f63d096dd276afE(ptr align 8 %_5, ptr align 8 @alloc_051df5c34fb432954f01ba2e7c186720) #22
  unreachable

bb5:                                              ; preds = %start
  %8 = load atomic i32, ptr %dst acquire, align 4
  call void @my_load_hook(ptr %dst, i64 4, ptr @_ZN4core4sync6atomic11atomic_load17hbf52c7da49f67ed9E.str)
  store i32 %8, ptr %_0, align 4
  call void @my_store_hook(ptr %_0, i64 4, ptr @_ZN4core4sync6atomic11atomic_load17hbf52c7da49f67ed9E.str)
  br label %bb7

bb2:                                              ; preds = %start
  store ptr @alloc_0175cc81e1f5c8f5b757d44420d81e68, ptr %_7, align 8
  call void @my_store_hook(ptr %_7, i64 8, ptr @_ZN4core4sync6atomic11atomic_load17hbf52c7da49f67ed9E.str)
  %9 = getelementptr inbounds i8, ptr %_7, i64 8
  store i64 1, ptr %9, align 8
  call void @my_store_hook(ptr %9, i64 8, ptr @_ZN4core4sync6atomic11atomic_load17hbf52c7da49f67ed9E.str)
  %10 = load ptr, ptr @anon.8907c793926939c1a3db336f022d0871.0, align 8
  call void @my_load_hook(ptr @anon.8907c793926939c1a3db336f022d0871.0, i64 8, ptr @_ZN4core4sync6atomic11atomic_load17hbf52c7da49f67ed9E.str)
  %11 = load i64, ptr getelementptr inbounds (i8, ptr @anon.8907c793926939c1a3db336f022d0871.0, i64 8), align 8
  call void @my_load_hook(ptr getelementptr inbounds (i8, ptr @anon.8907c793926939c1a3db336f022d0871.0, i64 8), i64 8, ptr @_ZN4core4sync6atomic11atomic_load17hbf52c7da49f67ed9E.str)
  %12 = getelementptr inbounds i8, ptr %_7, i64 32
  store ptr %10, ptr %12, align 8
  call void @my_store_hook(ptr %12, i64 8, ptr @_ZN4core4sync6atomic11atomic_load17hbf52c7da49f67ed9E.str)
  %13 = getelementptr inbounds i8, ptr %12, i64 8
  store i64 %11, ptr %13, align 8
  call void @my_store_hook(ptr %13, i64 8, ptr @_ZN4core4sync6atomic11atomic_load17hbf52c7da49f67ed9E.str)
  %14 = getelementptr inbounds i8, ptr %_7, i64 16
  store ptr inttoptr (i64 8 to ptr), ptr %14, align 8
  call void @my_store_hook(ptr %14, i64 8, ptr @_ZN4core4sync6atomic11atomic_load17hbf52c7da49f67ed9E.str)
  %15 = getelementptr inbounds i8, ptr %14, i64 8
  store i64 0, ptr %15, align 8
  call void @my_store_hook(ptr %15, i64 8, ptr @_ZN4core4sync6atomic11atomic_load17hbf52c7da49f67ed9E.str)
  call void @_ZN4core9panicking9panic_fmt17h62f63d096dd276afE(ptr align 8 %_7, ptr align 8 @alloc_1ee8d1231eb862c691f94edb251ddd5e) #22
  unreachable

bb4:                                              ; preds = %start
  %16 = load atomic i32, ptr %dst seq_cst, align 4
  call void @my_load_hook(ptr %dst, i64 4, ptr @_ZN4core4sync6atomic11atomic_load17hbf52c7da49f67ed9E.str)
  store i32 %16, ptr %_0, align 4
  call void @my_store_hook(ptr %_0, i64 4, ptr @_ZN4core4sync6atomic11atomic_load17hbf52c7da49f67ed9E.str)
  br label %bb7

bb7:                                              ; preds = %bb4, %bb5, %bb6
  %17 = load i32, ptr %_0, align 4
  call void @my_load_hook(ptr %_0, i64 4, ptr @_ZN4core4sync6atomic11atomic_load17hbf52c7da49f67ed9E.str)
  call void @my_func_exit(ptr @_ZN4core4sync6atomic11atomic_load17hbf52c7da49f67ed9E.str)
  ret i32 %17
}

; Function Attrs: inlinehint nonlazybind uwtable
define i8 @_ZN4core4sync6atomic11atomic_load17he8828ea078801ea3E(ptr %dst, i8 %order) unnamed_addr #0 {
start:
  call void @my_func_entry(ptr @_ZN4core4sync6atomic11atomic_load17he8828ea078801ea3E.str)
  %_7 = alloca [48 x i8], align 8
  %_5 = alloca [48 x i8], align 8
  %_0 = alloca [1 x i8], align 1
  %_3 = zext i8 %order to i64
  switch i64 %_3, label %bb1 [
    i64 0, label %bb6
    i64 1, label %bb3
    i64 2, label %bb5
    i64 3, label %bb2
    i64 4, label %bb4
  ]

bb1:                                              ; preds = %start
  unreachable

bb6:                                              ; preds = %start
  %0 = load atomic i8, ptr %dst monotonic, align 1
  call void @my_load_hook(ptr %dst, i64 1, ptr @_ZN4core4sync6atomic11atomic_load17he8828ea078801ea3E.str)
  store i8 %0, ptr %_0, align 1
  call void @my_store_hook(ptr %_0, i64 1, ptr @_ZN4core4sync6atomic11atomic_load17he8828ea078801ea3E.str)
  br label %bb7

bb3:                                              ; preds = %start
  store ptr @alloc_b55f69a00b865c3d8c5f6dad0122f5bd, ptr %_5, align 8
  call void @my_store_hook(ptr %_5, i64 8, ptr @_ZN4core4sync6atomic11atomic_load17he8828ea078801ea3E.str)
  %1 = getelementptr inbounds i8, ptr %_5, i64 8
  store i64 1, ptr %1, align 8
  call void @my_store_hook(ptr %1, i64 8, ptr @_ZN4core4sync6atomic11atomic_load17he8828ea078801ea3E.str)
  %2 = load ptr, ptr @anon.8907c793926939c1a3db336f022d0871.0, align 8
  call void @my_load_hook(ptr @anon.8907c793926939c1a3db336f022d0871.0, i64 8, ptr @_ZN4core4sync6atomic11atomic_load17he8828ea078801ea3E.str)
  %3 = load i64, ptr getelementptr inbounds (i8, ptr @anon.8907c793926939c1a3db336f022d0871.0, i64 8), align 8
  call void @my_load_hook(ptr getelementptr inbounds (i8, ptr @anon.8907c793926939c1a3db336f022d0871.0, i64 8), i64 8, ptr @_ZN4core4sync6atomic11atomic_load17he8828ea078801ea3E.str)
  %4 = getelementptr inbounds i8, ptr %_5, i64 32
  store ptr %2, ptr %4, align 8
  call void @my_store_hook(ptr %4, i64 8, ptr @_ZN4core4sync6atomic11atomic_load17he8828ea078801ea3E.str)
  %5 = getelementptr inbounds i8, ptr %4, i64 8
  store i64 %3, ptr %5, align 8
  call void @my_store_hook(ptr %5, i64 8, ptr @_ZN4core4sync6atomic11atomic_load17he8828ea078801ea3E.str)
  %6 = getelementptr inbounds i8, ptr %_5, i64 16
  store ptr inttoptr (i64 8 to ptr), ptr %6, align 8
  call void @my_store_hook(ptr %6, i64 8, ptr @_ZN4core4sync6atomic11atomic_load17he8828ea078801ea3E.str)
  %7 = getelementptr inbounds i8, ptr %6, i64 8
  store i64 0, ptr %7, align 8
  call void @my_store_hook(ptr %7, i64 8, ptr @_ZN4core4sync6atomic11atomic_load17he8828ea078801ea3E.str)
  call void @_ZN4core9panicking9panic_fmt17h62f63d096dd276afE(ptr align 8 %_5, ptr align 8 @alloc_051df5c34fb432954f01ba2e7c186720) #22
  unreachable

bb5:                                              ; preds = %start
  %8 = load atomic i8, ptr %dst acquire, align 1
  call void @my_load_hook(ptr %dst, i64 1, ptr @_ZN4core4sync6atomic11atomic_load17he8828ea078801ea3E.str)
  store i8 %8, ptr %_0, align 1
  call void @my_store_hook(ptr %_0, i64 1, ptr @_ZN4core4sync6atomic11atomic_load17he8828ea078801ea3E.str)
  br label %bb7

bb2:                                              ; preds = %start
  store ptr @alloc_0175cc81e1f5c8f5b757d44420d81e68, ptr %_7, align 8
  call void @my_store_hook(ptr %_7, i64 8, ptr @_ZN4core4sync6atomic11atomic_load17he8828ea078801ea3E.str)
  %9 = getelementptr inbounds i8, ptr %_7, i64 8
  store i64 1, ptr %9, align 8
  call void @my_store_hook(ptr %9, i64 8, ptr @_ZN4core4sync6atomic11atomic_load17he8828ea078801ea3E.str)
  %10 = load ptr, ptr @anon.8907c793926939c1a3db336f022d0871.0, align 8
  call void @my_load_hook(ptr @anon.8907c793926939c1a3db336f022d0871.0, i64 8, ptr @_ZN4core4sync6atomic11atomic_load17he8828ea078801ea3E.str)
  %11 = load i64, ptr getelementptr inbounds (i8, ptr @anon.8907c793926939c1a3db336f022d0871.0, i64 8), align 8
  call void @my_load_hook(ptr getelementptr inbounds (i8, ptr @anon.8907c793926939c1a3db336f022d0871.0, i64 8), i64 8, ptr @_ZN4core4sync6atomic11atomic_load17he8828ea078801ea3E.str)
  %12 = getelementptr inbounds i8, ptr %_7, i64 32
  store ptr %10, ptr %12, align 8
  call void @my_store_hook(ptr %12, i64 8, ptr @_ZN4core4sync6atomic11atomic_load17he8828ea078801ea3E.str)
  %13 = getelementptr inbounds i8, ptr %12, i64 8
  store i64 %11, ptr %13, align 8
  call void @my_store_hook(ptr %13, i64 8, ptr @_ZN4core4sync6atomic11atomic_load17he8828ea078801ea3E.str)
  %14 = getelementptr inbounds i8, ptr %_7, i64 16
  store ptr inttoptr (i64 8 to ptr), ptr %14, align 8
  call void @my_store_hook(ptr %14, i64 8, ptr @_ZN4core4sync6atomic11atomic_load17he8828ea078801ea3E.str)
  %15 = getelementptr inbounds i8, ptr %14, i64 8
  store i64 0, ptr %15, align 8
  call void @my_store_hook(ptr %15, i64 8, ptr @_ZN4core4sync6atomic11atomic_load17he8828ea078801ea3E.str)
  call void @_ZN4core9panicking9panic_fmt17h62f63d096dd276afE(ptr align 8 %_7, ptr align 8 @alloc_1ee8d1231eb862c691f94edb251ddd5e) #22
  unreachable

bb4:                                              ; preds = %start
  %16 = load atomic i8, ptr %dst seq_cst, align 1
  call void @my_load_hook(ptr %dst, i64 1, ptr @_ZN4core4sync6atomic11atomic_load17he8828ea078801ea3E.str)
  store i8 %16, ptr %_0, align 1
  call void @my_store_hook(ptr %_0, i64 1, ptr @_ZN4core4sync6atomic11atomic_load17he8828ea078801ea3E.str)
  br label %bb7

bb7:                                              ; preds = %bb4, %bb5, %bb6
  %17 = load i8, ptr %_0, align 1
  call void @my_load_hook(ptr %_0, i64 1, ptr @_ZN4core4sync6atomic11atomic_load17he8828ea078801ea3E.str)
  call void @my_func_exit(ptr @_ZN4core4sync6atomic11atomic_load17he8828ea078801ea3E.str)
  ret i8 %17
}

; Function Attrs: inlinehint nonlazybind uwtable
define void @_ZN4core4sync6atomic12atomic_store17h846185b9baa0691cE(ptr %dst, i8 %val, i8 %order) unnamed_addr #0 {
start:
  call void @my_func_entry(ptr @_ZN4core4sync6atomic12atomic_store17h846185b9baa0691cE.str)
  %_8 = alloca [48 x i8], align 8
  %_6 = alloca [48 x i8], align 8
  %_4 = zext i8 %order to i64
  switch i64 %_4, label %bb1 [
    i64 0, label %bb6
    i64 1, label %bb5
    i64 2, label %bb3
    i64 3, label %bb2
    i64 4, label %bb4
  ]

bb1:                                              ; preds = %start
  unreachable

bb6:                                              ; preds = %start
  store atomic i8 %val, ptr %dst monotonic, align 1
  call void @my_store_hook(ptr %dst, i64 1, ptr @_ZN4core4sync6atomic12atomic_store17h846185b9baa0691cE.str)
  br label %bb7

bb5:                                              ; preds = %start
  store atomic i8 %val, ptr %dst release, align 1
  call void @my_store_hook(ptr %dst, i64 1, ptr @_ZN4core4sync6atomic12atomic_store17h846185b9baa0691cE.str)
  br label %bb7

bb3:                                              ; preds = %start
  store ptr @alloc_d30e09dd75f4c40be0845475870856e6, ptr %_6, align 8
  call void @my_store_hook(ptr %_6, i64 8, ptr @_ZN4core4sync6atomic12atomic_store17h846185b9baa0691cE.str)
  %0 = getelementptr inbounds i8, ptr %_6, i64 8
  store i64 1, ptr %0, align 8
  call void @my_store_hook(ptr %0, i64 8, ptr @_ZN4core4sync6atomic12atomic_store17h846185b9baa0691cE.str)
  %1 = load ptr, ptr @anon.8907c793926939c1a3db336f022d0871.0, align 8
  call void @my_load_hook(ptr @anon.8907c793926939c1a3db336f022d0871.0, i64 8, ptr @_ZN4core4sync6atomic12atomic_store17h846185b9baa0691cE.str)
  %2 = load i64, ptr getelementptr inbounds (i8, ptr @anon.8907c793926939c1a3db336f022d0871.0, i64 8), align 8
  call void @my_load_hook(ptr getelementptr inbounds (i8, ptr @anon.8907c793926939c1a3db336f022d0871.0, i64 8), i64 8, ptr @_ZN4core4sync6atomic12atomic_store17h846185b9baa0691cE.str)
  %3 = getelementptr inbounds i8, ptr %_6, i64 32
  store ptr %1, ptr %3, align 8
  call void @my_store_hook(ptr %3, i64 8, ptr @_ZN4core4sync6atomic12atomic_store17h846185b9baa0691cE.str)
  %4 = getelementptr inbounds i8, ptr %3, i64 8
  store i64 %2, ptr %4, align 8
  call void @my_store_hook(ptr %4, i64 8, ptr @_ZN4core4sync6atomic12atomic_store17h846185b9baa0691cE.str)
  %5 = getelementptr inbounds i8, ptr %_6, i64 16
  store ptr inttoptr (i64 8 to ptr), ptr %5, align 8
  call void @my_store_hook(ptr %5, i64 8, ptr @_ZN4core4sync6atomic12atomic_store17h846185b9baa0691cE.str)
  %6 = getelementptr inbounds i8, ptr %5, i64 8
  store i64 0, ptr %6, align 8
  call void @my_store_hook(ptr %6, i64 8, ptr @_ZN4core4sync6atomic12atomic_store17h846185b9baa0691cE.str)
  call void @_ZN4core9panicking9panic_fmt17h62f63d096dd276afE(ptr align 8 %_6, ptr align 8 @alloc_aa49003fd1a847a460eb9b581ac263f6) #22
  unreachable

bb2:                                              ; preds = %start
  store ptr @alloc_9b1e61e0572571d4b583b134cc9efd32, ptr %_8, align 8
  call void @my_store_hook(ptr %_8, i64 8, ptr @_ZN4core4sync6atomic12atomic_store17h846185b9baa0691cE.str)
  %7 = getelementptr inbounds i8, ptr %_8, i64 8
  store i64 1, ptr %7, align 8
  call void @my_store_hook(ptr %7, i64 8, ptr @_ZN4core4sync6atomic12atomic_store17h846185b9baa0691cE.str)
  %8 = load ptr, ptr @anon.8907c793926939c1a3db336f022d0871.0, align 8
  call void @my_load_hook(ptr @anon.8907c793926939c1a3db336f022d0871.0, i64 8, ptr @_ZN4core4sync6atomic12atomic_store17h846185b9baa0691cE.str)
  %9 = load i64, ptr getelementptr inbounds (i8, ptr @anon.8907c793926939c1a3db336f022d0871.0, i64 8), align 8
  call void @my_load_hook(ptr getelementptr inbounds (i8, ptr @anon.8907c793926939c1a3db336f022d0871.0, i64 8), i64 8, ptr @_ZN4core4sync6atomic12atomic_store17h846185b9baa0691cE.str)
  %10 = getelementptr inbounds i8, ptr %_8, i64 32
  store ptr %8, ptr %10, align 8
  call void @my_store_hook(ptr %10, i64 8, ptr @_ZN4core4sync6atomic12atomic_store17h846185b9baa0691cE.str)
  %11 = getelementptr inbounds i8, ptr %10, i64 8
  store i64 %9, ptr %11, align 8
  call void @my_store_hook(ptr %11, i64 8, ptr @_ZN4core4sync6atomic12atomic_store17h846185b9baa0691cE.str)
  %12 = getelementptr inbounds i8, ptr %_8, i64 16
  store ptr inttoptr (i64 8 to ptr), ptr %12, align 8
  call void @my_store_hook(ptr %12, i64 8, ptr @_ZN4core4sync6atomic12atomic_store17h846185b9baa0691cE.str)
  %13 = getelementptr inbounds i8, ptr %12, i64 8
  store i64 0, ptr %13, align 8
  call void @my_store_hook(ptr %13, i64 8, ptr @_ZN4core4sync6atomic12atomic_store17h846185b9baa0691cE.str)
  call void @_ZN4core9panicking9panic_fmt17h62f63d096dd276afE(ptr align 8 %_8, ptr align 8 @alloc_a683a46c669a4520b8eaf0cb50f8a1e4) #22
  unreachable

bb4:                                              ; preds = %start
  store atomic i8 %val, ptr %dst seq_cst, align 1
  call void @my_store_hook(ptr %dst, i64 1, ptr @_ZN4core4sync6atomic12atomic_store17h846185b9baa0691cE.str)
  br label %bb7

bb7:                                              ; preds = %bb4, %bb5, %bb6
  call void @my_func_exit(ptr @_ZN4core4sync6atomic12atomic_store17h846185b9baa0691cE.str)
  ret void
}

; Function Attrs: inlinehint nonlazybind uwtable
define { i32, i32 } @_ZN4core4sync6atomic23atomic_compare_exchange17h9fe39060f238dc35E(ptr %dst, i32 %old, i32 %new, i8 %success, i8 %failure) unnamed_addr #0 {
start:
  call void @my_func_entry(ptr @_ZN4core4sync6atomic23atomic_compare_exchange17h9fe39060f238dc35E.str)
  %_19 = alloca [48 x i8], align 8
  %_17 = alloca [48 x i8], align 8
  %_8 = alloca [8 x i8], align 4
  %_0 = alloca [8 x i8], align 4
  %_14 = zext i8 %success to i64
  switch i64 %_14, label %bb7 [
    i64 0, label %bb2
    i64 1, label %bb4
    i64 2, label %bb3
    i64 3, label %bb5
    i64 4, label %bb6
  ]

bb7:                                              ; preds = %start
  unreachable

bb2:                                              ; preds = %start
  %_9 = zext i8 %failure to i64
  switch i64 %_9, label %bb1 [
    i64 0, label %bb24
    i64 2, label %bb23
    i64 4, label %bb22
  ]

bb4:                                              ; preds = %start
  %_11 = zext i8 %failure to i64
  switch i64 %_11, label %bb1 [
    i64 0, label %bb18
    i64 2, label %bb17
    i64 4, label %bb16
  ]

bb3:                                              ; preds = %start
  %_10 = zext i8 %failure to i64
  switch i64 %_10, label %bb1 [
    i64 0, label %bb21
    i64 2, label %bb20
    i64 4, label %bb19
  ]

bb5:                                              ; preds = %start
  %_12 = zext i8 %failure to i64
  switch i64 %_12, label %bb1 [
    i64 0, label %bb15
    i64 2, label %bb14
    i64 4, label %bb13
  ]

bb6:                                              ; preds = %start
  %_13 = zext i8 %failure to i64
  switch i64 %_13, label %bb1 [
    i64 0, label %bb12
    i64 2, label %bb11
    i64 4, label %bb10
  ]

bb1:                                              ; preds = %bb6, %bb5, %bb3, %bb4, %bb2
  %_15 = zext i8 %failure to i64
  %0 = icmp eq i64 %_15, 1
  br i1 %0, label %bb8, label %bb9

bb24:                                             ; preds = %bb2
  %1 = cmpxchg ptr %dst, i32 %old, i32 %new monotonic monotonic, align 4
  %2 = extractvalue { i32, i1 } %1, 0
  %3 = extractvalue { i32, i1 } %1, 1
  %4 = zext i1 %3 to i8
  store i32 %2, ptr %_8, align 4
  call void @my_store_hook(ptr %_8, i64 4, ptr @_ZN4core4sync6atomic23atomic_compare_exchange17h9fe39060f238dc35E.str)
  %5 = getelementptr inbounds i8, ptr %_8, i64 4
  store i8 %4, ptr %5, align 4
  call void @my_store_hook(ptr %5, i64 1, ptr @_ZN4core4sync6atomic23atomic_compare_exchange17h9fe39060f238dc35E.str)
  br label %bb25

bb23:                                             ; preds = %bb2
  %6 = cmpxchg ptr %dst, i32 %old, i32 %new monotonic acquire, align 4
  %7 = extractvalue { i32, i1 } %6, 0
  %8 = extractvalue { i32, i1 } %6, 1
  %9 = zext i1 %8 to i8
  store i32 %7, ptr %_8, align 4
  call void @my_store_hook(ptr %_8, i64 4, ptr @_ZN4core4sync6atomic23atomic_compare_exchange17h9fe39060f238dc35E.str)
  %10 = getelementptr inbounds i8, ptr %_8, i64 4
  store i8 %9, ptr %10, align 4
  call void @my_store_hook(ptr %10, i64 1, ptr @_ZN4core4sync6atomic23atomic_compare_exchange17h9fe39060f238dc35E.str)
  br label %bb25

bb22:                                             ; preds = %bb2
  %11 = cmpxchg ptr %dst, i32 %old, i32 %new monotonic seq_cst, align 4
  %12 = extractvalue { i32, i1 } %11, 0
  %13 = extractvalue { i32, i1 } %11, 1
  %14 = zext i1 %13 to i8
  store i32 %12, ptr %_8, align 4
  call void @my_store_hook(ptr %_8, i64 4, ptr @_ZN4core4sync6atomic23atomic_compare_exchange17h9fe39060f238dc35E.str)
  %15 = getelementptr inbounds i8, ptr %_8, i64 4
  store i8 %14, ptr %15, align 4
  call void @my_store_hook(ptr %15, i64 1, ptr @_ZN4core4sync6atomic23atomic_compare_exchange17h9fe39060f238dc35E.str)
  br label %bb25

bb25:                                             ; preds = %bb10, %bb11, %bb12, %bb13, %bb14, %bb15, %bb19, %bb20, %bb21, %bb16, %bb17, %bb18, %bb22, %bb23, %bb24
  %val = load i32, ptr %_8, align 4
  call void @my_load_hook(ptr %_8, i64 4, ptr @_ZN4core4sync6atomic23atomic_compare_exchange17h9fe39060f238dc35E.str)
  %16 = getelementptr inbounds i8, ptr %_8, i64 4
  %17 = load i8, ptr %16, align 4
  call void @my_load_hook(ptr %16, i64 1, ptr @_ZN4core4sync6atomic23atomic_compare_exchange17h9fe39060f238dc35E.str)
  %ok = trunc nuw i8 %17 to i1
  br i1 %ok, label %bb26, label %bb27

bb18:                                             ; preds = %bb4
  %18 = cmpxchg ptr %dst, i32 %old, i32 %new release monotonic, align 4
  %19 = extractvalue { i32, i1 } %18, 0
  %20 = extractvalue { i32, i1 } %18, 1
  %21 = zext i1 %20 to i8
  store i32 %19, ptr %_8, align 4
  call void @my_store_hook(ptr %_8, i64 4, ptr @_ZN4core4sync6atomic23atomic_compare_exchange17h9fe39060f238dc35E.str)
  %22 = getelementptr inbounds i8, ptr %_8, i64 4
  store i8 %21, ptr %22, align 4
  call void @my_store_hook(ptr %22, i64 1, ptr @_ZN4core4sync6atomic23atomic_compare_exchange17h9fe39060f238dc35E.str)
  br label %bb25

bb17:                                             ; preds = %bb4
  %23 = cmpxchg ptr %dst, i32 %old, i32 %new release acquire, align 4
  %24 = extractvalue { i32, i1 } %23, 0
  %25 = extractvalue { i32, i1 } %23, 1
  %26 = zext i1 %25 to i8
  store i32 %24, ptr %_8, align 4
  call void @my_store_hook(ptr %_8, i64 4, ptr @_ZN4core4sync6atomic23atomic_compare_exchange17h9fe39060f238dc35E.str)
  %27 = getelementptr inbounds i8, ptr %_8, i64 4
  store i8 %26, ptr %27, align 4
