; ModuleID = 'aster_time.1361504a2dc5712d-cgu.0'
source_filename = "aster_time.1361504a2dc5712d-cgu.0"
target datalayout = "e-m:e-p270:32:32-p271:32:32-p272:64:64-i64:64-i128:128-f80:128-n8:16:32:64-S128"
target triple = "x86_64-unknown-linux-gnu"

%"core::sync::atomic::AtomicUsize" = type { i64 }
%"once_cell::sync::Lazy<std::sync::poison::mutex::Mutex<alloc::vec::Vec<alloc::boxed::Box<dyn core::ops::function::Fn() + core::marker::Send + core::marker::Sync>>>>" = type { %"once_cell::sync::OnceCell<std::sync::poison::mutex::Mutex<alloc::vec::Vec<alloc::boxed::Box<dyn core::ops::function::Fn() + core::marker::Send + core::marker::Sync>>>>", ptr }
%"once_cell::sync::OnceCell<std::sync::poison::mutex::Mutex<alloc::vec::Vec<alloc::boxed::Box<dyn core::ops::function::Fn() + core::marker::Send + core::marker::Sync>>>>" = type { %"once_cell::imp::OnceCell<std::sync::poison::mutex::Mutex<alloc::vec::Vec<alloc::boxed::Box<dyn core::ops::function::Fn() + core::marker::Send + core::marker::Sync>>>>" }
%"once_cell::imp::OnceCell<std::sync::poison::mutex::Mutex<alloc::vec::Vec<alloc::boxed::Box<dyn core::ops::function::Fn() + core::marker::Send + core::marker::Sync>>>>" = type { %"core::sync::atomic::AtomicPtr<once_cell::imp::Waiter>", %"core::cell::UnsafeCell<core::option::Option<std::sync::poison::mutex::Mutex<alloc::vec::Vec<alloc::boxed::Box<dyn core::ops::function::Fn() + core::marker::Send + core::marker::Sync>>>>>" }
%"core::sync::atomic::AtomicPtr<once_cell::imp::Waiter>" = type { ptr }
%"core::cell::UnsafeCell<core::option::Option<std::sync::poison::mutex::Mutex<alloc::vec::Vec<alloc::boxed::Box<dyn core::ops::function::Fn() + core::marker::Send + core::marker::Sync>>>>>" = type { %"core::option::Option<std::sync::poison::mutex::Mutex<alloc::vec::Vec<alloc::boxed::Box<dyn core::ops::function::Fn() + core::marker::Send + core::marker::Sync>>>>" }
%"core::option::Option<std::sync::poison::mutex::Mutex<alloc::vec::Vec<alloc::boxed::Box<dyn core::ops::function::Fn() + core::marker::Send + core::marker::Sync>>>>" = type { i64, [4 x i64] }
%"inventory::Registry" = type { %"core::sync::atomic::AtomicPtr<inventory::Node>" }
%"core::sync::atomic::AtomicPtr<inventory::Node>" = type { ptr }
%"alloc::boxed::Box<dyn core::ops::function::Fn() + core::marker::Send + core::marker::Sync>" = type { %"core::ptr::unique::Unique<dyn core::ops::function::Fn() + core::marker::Send + core::marker::Sync>", %"alloc::alloc::Global" }
%"core::ptr::unique::Unique<dyn core::ops::function::Fn() + core::marker::Send + core::marker::Sync>" = type { %"core::ptr::non_null::NonNull<dyn core::ops::function::Fn() + core::marker::Send + core::marker::Sync>", %"core::marker::PhantomData<dyn core::ops::function::Fn() + core::marker::Send + core::marker::Sync>" }
%"core::ptr::non_null::NonNull<dyn core::ops::function::Fn() + core::marker::Send + core::marker::Sync>" = type { { ptr, ptr } }
%"core::marker::PhantomData<dyn core::ops::function::Fn() + core::marker::Send + core::marker::Sync>" = type {}
%"alloc::alloc::Global" = type {}
%"core::fmt::rt::Argument<'_>" = type { %"core::fmt::rt::ArgumentType<'_>" }
%"core::fmt::rt::ArgumentType<'_>" = type { ptr, [1 x i64] }

@_ZN10aster_time1_6__CTOR17h59f2ff3f8359d1bcE = constant ptr @_ZN10aster_time1_6__ctor17he6065d3c6fcc1863E, section ".init_array", align 8
@_ZN3std9panicking11panic_count18GLOBAL_PANIC_COUNT17h773706b8a844bfeaE = external global %"core::sync::atomic::AtomicUsize"
@alloc_8af9e032ee38e600fa074af6c4c471c5 = private unnamed_addr constant [121 x i8] c"/home/user/.rustup/toolchains/stable-x86_64-unknown-linux-gnu/lib/rustlib/src/rust/library/std/src/sync/poison/rwlock.rs\00", align 1
@alloc_9fec87cf92ceec07b8fed8607a9fc15a = private unnamed_addr constant <{ ptr, [16 x i8] }> <{ ptr @alloc_8af9e032ee38e600fa074af6c4c471c5, [16 x i8] c"x\00\00\00\00\00\00\00\B9\02\00\00\1C\00\00\00" }>, align 8
@anon.8907c793926939c1a3db336f022d0871.0 = private unnamed_addr constant <{ [8 x i8], [8 x i8] }> <{ [8 x i8] zeroinitializer, [8 x i8] undef }>, align 8
@alloc_560a59ed819b9d9a5841f6e731c4c8e5 = private unnamed_addr constant [210 x i8] c"unsafe precondition(s) violated: NonNull::new_unchecked requires that the pointer is non-null\0A\0AThis indicates a bug in the program. This Undefined Behavior check is optional, and cannot be relied on for safety.", align 1
@alloc_9cd20c3e415f4d39f0ceb012cb758628 = private unnamed_addr constant [40 x i8] c"there is no such thing as a release load", align 1
@alloc_b55f69a00b865c3d8c5f6dad0122f5bd = private unnamed_addr constant <{ ptr, [8 x i8] }> <{ ptr @alloc_9cd20c3e415f4d39f0ceb012cb758628, [8 x i8] c"(\00\00\00\00\00\00\00" }>, align 8
@alloc_2664cfd54d27b78eb70a73190eceb72a = private unnamed_addr constant [115 x i8] c"/home/user/.rustup/toolchains/stable-x86_64-unknown-linux-gnu/lib/rustlib/src/rust/library/core/src/sync/atomic.rs\00", align 1
@alloc_051df5c34fb432954f01ba2e7c186720 = private unnamed_addr constant <{ ptr, [16 x i8] }> <{ ptr @alloc_2664cfd54d27b78eb70a73190eceb72a, [16 x i8] c"r\00\00\00\00\00\00\00v\0F\00\00\18\00\00\00" }>, align 8
@alloc_96ab912d0054b46da785b206a96c9a45 = private unnamed_addr constant [49 x i8] c"there is no such thing as an acquire-release load", align 1
@alloc_0175cc81e1f5c8f5b757d44420d81e68 = private unnamed_addr constant <{ ptr, [8 x i8] }> <{ ptr @alloc_96ab912d0054b46da785b206a96c9a45, [8 x i8] c"1\00\00\00\00\00\00\00" }>, align 8
@alloc_1ee8d1231eb862c691f94edb251ddd5e = private unnamed_addr constant <{ ptr, [16 x i8] }> <{ ptr @alloc_2664cfd54d27b78eb70a73190eceb72a, [16 x i8] c"r\00\00\00\00\00\00\00w\0F\00\00\17\00\00\00" }>, align 8
@alloc_bf39103a6db665396aab4632362d9353 = private unnamed_addr constant [42 x i8] c"there is no such thing as an acquire store", align 1
@alloc_d30e09dd75f4c40be0845475870856e6 = private unnamed_addr constant <{ ptr, [8 x i8] }> <{ ptr @alloc_bf39103a6db665396aab4632362d9353, [8 x i8] c"*\00\00\00\00\00\00\00" }>, align 8
@alloc_aa49003fd1a847a460eb9b581ac263f6 = private unnamed_addr constant <{ ptr, [16 x i8] }> <{ ptr @alloc_2664cfd54d27b78eb70a73190eceb72a, [16 x i8] c"r\00\00\00\00\00\00\00g\0F\00\00\18\00\00\00" }>, align 8
@alloc_00c0bce0fa6327f8ec8e69d6d765d508 = private unnamed_addr constant [50 x i8] c"there is no such thing as an acquire-release store", align 1
@alloc_9b1e61e0572571d4b583b134cc9efd32 = private unnamed_addr constant <{ ptr, [8 x i8] }> <{ ptr @alloc_00c0bce0fa6327f8ec8e69d6d765d508, [8 x i8] c"2\00\00\00\00\00\00\00" }>, align 8
@alloc_a683a46c669a4520b8eaf0cb50f8a1e4 = private unnamed_addr constant <{ ptr, [16 x i8] }> <{ ptr @alloc_2664cfd54d27b78eb70a73190eceb72a, [16 x i8] c"r\00\00\00\00\00\00\00h\0F\00\00\17\00\00\00" }>, align 8
@alloc_5a43f8d94dd4505c1dba43832ce73af8 = private unnamed_addr constant [52 x i8] c"there is no such thing as a release failure ordering", align 1
@alloc_b47c3c138db72df57440b698ce0de72b = private unnamed_addr constant <{ ptr, [8 x i8] }> <{ ptr @alloc_5a43f8d94dd4505c1dba43832ce73af8, [8 x i8] c"4\00\00\00\00\00\00\00" }>, align 8
@alloc_0a5709e9425a08b17803d539bffb2f09 = private unnamed_addr constant <{ ptr, [16 x i8] }> <{ ptr @alloc_2664cfd54d27b78eb70a73190eceb72a, [16 x i8] c"r\00\00\00\00\00\00\00\EC\0F\00\00\1D\00\00\00" }>, align 8
@alloc_7adef5546d83b439c7829602020737c6 = private unnamed_addr constant [61 x i8] c"there is no such thing as an acquire-release failure ordering", align 1
@alloc_4b7098fb0dbb3761358123ff7e9428b1 = private unnamed_addr constant <{ ptr, [8 x i8] }> <{ ptr @alloc_7adef5546d83b439c7829602020737c6, [8 x i8] c"=\00\00\00\00\00\00\00" }>, align 8
@alloc_f17744615fd77d64d56ef23c881bf12c = private unnamed_addr constant <{ ptr, [16 x i8] }> <{ ptr @alloc_2664cfd54d27b78eb70a73190eceb72a, [16 x i8] c"r\00\00\00\00\00\00\00\EB\0F\00\00\1C\00\00\00" }>, align 8
@alloc_4477689a373e3970b8033c6e73761af1 = private unnamed_addr constant <{ ptr, [16 x i8] }> <{ ptr @alloc_2664cfd54d27b78eb70a73190eceb72a, [16 x i8] c"r\00\00\00\00\00\00\00-\10\00\00\1D\00\00\00" }>, align 8
@alloc_5db1bb9fdd4eec1ac2eb7129fc240d46 = private unnamed_addr constant <{ ptr, [16 x i8] }> <{ ptr @alloc_2664cfd54d27b78eb70a73190eceb72a, [16 x i8] c"r\00\00\00\00\00\00\00,\10\00\00\1C\00\00\00" }>, align 8
@alloc_374c9df73b8540d3e9b0cfbfed1be08c = private unnamed_addr constant [25 x i8] c"overflow in Duration::new", align 1
@alloc_b1f31703b982ca51516367ee367c483d = private unnamed_addr constant [108 x i8] c"/home/user/.rustup/toolchains/stable-x86_64-unknown-linux-gnu/lib/rustlib/src/rust/library/core/src/time.rs\00", align 1
@alloc_ecc6c78d1b3e20e6cc12cd8f8d334271 = private unnamed_addr constant <{ ptr, [16 x i8] }> <{ ptr @alloc_b1f31703b982ca51516367ee367c483d, [16 x i8] c"k\00\00\00\00\00\00\00\C9\00\00\00\12\00\00\00" }>, align 8
@alloc_1be5ea12ba708d9a11b6e93a7d387a75 = private unnamed_addr constant [281 x i8] c"unsafe precondition(s) violated: Layout::from_size_align_unchecked requires that align is a power of 2 and the rounded-up allocation size does not exceed isize::MAX\0A\0AThis indicates a bug in the program. This Undefined Behavior check is optional, and cannot be relied on for safety.", align 1
@vtable.0 = private unnamed_addr constant <{ ptr, [16 x i8], ptr }> <{ ptr @"_ZN4core3ptr156drop_in_place$LT$std..sync..poison..PoisonError$LT$std..sync..poison..rwlock..RwLockWriteGuard$LT$$LP$aster_time..clocksource..Instant$C$u64$RP$$GT$$GT$$GT$17ha8a226ca09850fd3E", [16 x i8] c"\10\00\00\00\00\00\00\00\08\00\00\00\00\00\00\00", ptr @"_ZN76_$LT$std..sync..poison..PoisonError$LT$T$GT$$u20$as$u20$core..fmt..Debug$GT$3fmt17hf4872c818bbab9a3E" }>, align 8
@alloc_00ae4b301f7fab8ac9617c03fcbd7274 = private unnamed_addr constant [43 x i8] c"called `Result::unwrap()` on an `Err` value", align 1
@vtable.1 = private unnamed_addr constant <{ ptr, [16 x i8], ptr }> <{ ptr @"_ZN4core3ptr125drop_in_place$LT$std..sync..poison..PoisonError$LT$std..sync..poison..mutex..MutexGuard$LT$aster_time..SystemTime$GT$$GT$$GT$17h443ca5c0010acb8aE", [16 x i8] c"\10\00\00\00\00\00\00\00\08\00\00\00\00\00\00\00", ptr @"_ZN76_$LT$std..sync..poison..PoisonError$LT$T$GT$$u20$as$u20$core..fmt..Debug$GT$3fmt17h74d504338d05d43cE" }>, align 8
@vtable.2 = private unnamed_addr constant <{ ptr, [16 x i8], ptr }> <{ ptr @"_ZN4core3ptr155drop_in_place$LT$std..sync..poison..PoisonError$LT$std..sync..poison..rwlock..RwLockReadGuard$LT$$LP$aster_time..clocksource..Instant$C$u64$RP$$GT$$GT$$GT$17h600a060e33de95b5E", [16 x i8] c"\10\00\00\00\00\00\00\00\08\00\00\00\00\00\00\00", ptr @"_ZN76_$LT$std..sync..poison..PoisonError$LT$T$GT$$u20$as$u20$core..fmt..Debug$GT$3fmt17h7ba3b7b4d1949d56E" }>, align 8
@vtable.3 = private unnamed_addr constant <{ ptr, [16 x i8], ptr }> <{ ptr @"_ZN4core3ptr278drop_in_place$LT$std..sync..poison..PoisonError$LT$std..sync..poison..mutex..MutexGuard$LT$alloc..vec..Vec$LT$alloc..boxed..Box$LT$dyn$u20$core..ops..function..Fn$LT$$LP$$RP$$GT$$u2b$Output$u20$$u3d$$u20$$LP$$RP$$u2b$core..marker..Sync$u2b$core..marker..Send$GT$$GT$$GT$$GT$$GT$17he94139f03af93455E", [16 x i8] c"\10\00\00\00\00\00\00\00\08\00\00\00\00\00\00\00", ptr @"_ZN76_$LT$std..sync..poison..PoisonError$LT$T$GT$$u20$as$u20$core..fmt..Debug$GT$3fmt17h2727af8197261fbfE" }>, align 8
@_ZN4ostd5timer9CALLBACKS17ha350094ff4381b6dE = external global %"once_cell::sync::Lazy<std::sync::poison::mutex::Mutex<alloc::vec::Vec<alloc::boxed::Box<dyn core::ops::function::Fn() + core::marker::Send + core::marker::Sync>>>>"
@alloc_199bc9ee817158e8fab926b04f1978f3 = private unnamed_addr constant [50 x i8] c"/home/user/time_userland/crates/ostd/src/timer.rs\00", align 1
@alloc_11a0713770a2d29c3322723f9918c1f0 = private unnamed_addr constant <{ ptr, [16 x i8] }> <{ ptr @alloc_199bc9ee817158e8fab926b04f1978f3, [16 x i8] c"1\00\00\00\00\00\00\00\0C\00\00\00\14\00\00\00" }>, align 8
@vtable.4 = private unnamed_addr constant <{ [24 x i8], ptr, ptr, ptr }> <{ [24 x i8] c"\00\00\00\00\00\00\00\00\08\00\00\00\00\00\00\00\08\00\00\00\00\00\00\00", ptr @"_ZN4core3ops8function6FnOnce40call_once$u7b$$u7b$vtable.shim$u7d$$u7d$17h863b67d244b59dcfE", ptr @"_ZN10aster_time3tsc10init_timer28_$u7b$$u7b$closure$u7d$$u7d$17h5e914eb7f3b8df5fE", ptr @"_ZN10aster_time3tsc10init_timer28_$u7b$$u7b$closure$u7d$$u7d$17h5e914eb7f3b8df5fE" }>, align 8
@alloc_4a1cadd654e634b215da028f41e23f34 = private unnamed_addr constant <{ ptr, [16 x i8] }> <{ ptr @alloc_199bc9ee817158e8fab926b04f1978f3, [16 x i8] c"1\00\00\00\00\00\00\00\0C\00\00\00\1D\00\00\00" }>, align 8
@alloc_7c7c2d68976b3bb9d33f1e321a654c92 = private unnamed_addr constant [110 x i8] c"/home/user/.rustup/toolchains/stable-x86_64-unknown-linux-gnu/lib/rustlib/src/rust/library/alloc/src/alloc.rs\00", align 1
@alloc_e24d28343bb3254d030f2bfc7cb25d1f = private unnamed_addr constant <{ ptr, [16 x i8] }> <{ ptr @alloc_7c7c2d68976b3bb9d33f1e321a654c92, [16 x i8] c"m\00\00\00\00\00\00\00^\01\00\00\1B\00\00\00" }>, align 8
@alloc_0ba24a483f082dfb046603a61f9a5494 = private unnamed_addr constant [116 x i8] c"/home/user/.rustup/toolchains/stable-x86_64-unknown-linux-gnu/lib/rustlib/src/rust/library/core/src/ptr/non_null.rs\00", align 1
@alloc_e1dd287cb89f19bd04ff4af4eb11ef94 = private unnamed_addr constant <{ ptr, [16 x i8] }> <{ ptr @alloc_0ba24a483f082dfb046603a61f9a5494, [16 x i8] c"s\00\00\00\00\00\00\00l\05\00\00\12\00\00\00" }>, align 8
@alloc_72400afa39575c6f246fe5e2246c04f8 = private unnamed_addr constant <{ ptr, [16 x i8] }> <{ ptr @alloc_0ba24a483f082dfb046603a61f9a5494, [16 x i8] c"s\00\00\00\00\00\00\00\09\01\00\00\1B\00\00\00" }>, align 8
@"_ZN67_$LT$component..ComponentRegistry$u20$as$u20$inventory..Collect$GT$8registry8REGISTRY17h6a2cfcc2902fdc29E" = external global %"inventory::Registry"
@alloc_8b82773ec41f37e7256e9a334e9cb235 = private unnamed_addr constant [116 x i8] c"/home/user/.rustup/toolchains/stable-x86_64-unknown-linux-gnu/lib/rustlib/src/rust/library/core/src/alloc/layout.rs\00", align 1
@alloc_67966d1a505ae7d165e6d4531e7e8206 = private unnamed_addr constant <{ ptr, [16 x i8] }> <{ ptr @alloc_8b82773ec41f37e7256e9a334e9cb235, [16 x i8] c"s\00\00\00\00\00\00\00\E0\00\00\00\12\00\00\00" }>, align 8
@alloc_8e2410b80645266732854088d21653bc = private unnamed_addr constant [11 x i8] c"PoisonError", align 1
@vtable.5 = private unnamed_addr constant <{ [24 x i8], ptr, ptr }> <{ [24 x i8] c"\00\00\00\00\00\00\00\00\18\00\00\00\00\00\00\00\08\00\00\00\00\00\00\00", ptr @"_ZN4core3ops8function6FnOnce40call_once$u7b$$u7b$vtable.shim$u7d$$u7d$17hd07235f6d2941a02E", ptr @"_ZN9once_cell3imp17OnceCell$LT$T$GT$10initialize28_$u7b$$u7b$closure$u7d$$u7d$17h0ecd92458addee89E" }>, align 8
@vtable.6 = private unnamed_addr constant <{ [24 x i8], ptr, ptr }> <{ [24 x i8] c"\00\00\00\00\00\00\00\00\18\00\00\00\00\00\00\00\08\00\00\00\00\00\00\00", ptr @"_ZN4core3ops8function6FnOnce40call_once$u7b$$u7b$vtable.shim$u7d$$u7d$17hbc05b1e5504e682eE", ptr @"_ZN9once_cell3imp17OnceCell$LT$T$GT$10initialize28_$u7b$$u7b$closure$u7d$$u7d$17h11cf0451ae43d00dE" }>, align 8
@vtable.7 = private unnamed_addr constant <{ [24 x i8], ptr, ptr }> <{ [24 x i8] c"\00\00\00\00\00\00\00\00\18\00\00\00\00\00\00\00\08\00\00\00\00\00\00\00", ptr @"_ZN4core3ops8function6FnOnce40call_once$u7b$$u7b$vtable.shim$u7d$$u7d$17h4a580298cf35ede6E", ptr @"_ZN9once_cell3imp17OnceCell$LT$T$GT$10initialize28_$u7b$$u7b$closure$u7d$$u7d$17haef9a4bef144bd32E" }>, align 8
@vtable.8 = private unnamed_addr constant <{ [24 x i8], ptr, ptr }> <{ [24 x i8] c"\00\00\00\00\00\00\00\00\18\00\00\00\00\00\00\00\08\00\00\00\00\00\00\00", ptr @"_ZN4core3ops8function6FnOnce40call_once$u7b$$u7b$vtable.shim$u7d$$u7d$17hfb7af4e5590a6e59E", ptr @"_ZN9once_cell3imp17OnceCell$LT$T$GT$10initialize28_$u7b$$u7b$closure$u7d$$u7d$17h1699a288935087c8E" }>, align 8
@vtable.9 = private unnamed_addr constant <{ [24 x i8], ptr, ptr }> <{ [24 x i8] c"\00\00\00\00\00\00\00\00\18\00\00\00\00\00\00\00\08\00\00\00\00\00\00\00", ptr @"_ZN4core3ops8function6FnOnce40call_once$u7b$$u7b$vtable.shim$u7d$$u7d$17h8f7d597d44f86007E", ptr @"_ZN9once_cell3imp17OnceCell$LT$T$GT$10initialize28_$u7b$$u7b$closure$u7d$$u7d$17h2977d3b99eb009beE" }>, align 8
@alloc_e7155f9cf10893ab2e58393a6c5d3d17 = private unnamed_addr constant [42 x i8] c"Lazy instance has previously been poisoned", align 1
@alloc_5d385c76902a4a815bf5f8b3a2572c34 = private unnamed_addr constant <{ ptr, [8 x i8] }> <{ ptr @alloc_e7155f9cf10893ab2e58393a6c5d3d17, [8 x i8] c"*\00\00\00\00\00\00\00" }>, align 8
@alloc_df55478e5e10415fd065f2d5b1dc4bdc = private unnamed_addr constant [92 x i8] c"/home/user/.cargo/registry/src/index.crates.io-1949cf8c6b5b557f/once_cell-1.21.3/src/lib.rs\00", align 1
@alloc_906231a53f9a5f539d599e53a35a08e1 = private unnamed_addr constant <{ ptr, [16 x i8] }> <{ ptr @alloc_df55478e5e10415fd065f2d5b1dc4bdc, [16 x i8] c"[\00\00\00\00\00\00\00\1F\05\00\00\19\00\00\00" }>, align 8
@alloc_193cd2aeb9bb6160fa06bd1ac129e8c2 = private unnamed_addr constant [37 x i8] c"crates/aster-time/src/clocksource.rs\00", align 1
@alloc_435805a238a343573c8e8894c37c7ae5 = private unnamed_addr constant <{ ptr, [16 x i8] }> <{ ptr @alloc_193cd2aeb9bb6160fa06bd1ac129e8c2, [16 x i8] c"$\00\00\00\00\00\00\00\13\00\00\00;\00\00\00" }>, align 8
@alloc_43f8231eab93494e151782ff805936fb = private unnamed_addr constant <{ ptr, [16 x i8] }> <{ ptr @alloc_193cd2aeb9bb6160fa06bd1ac129e8c2, [16 x i8] c"$\00\00\00\00\00\00\00\18\00\00\00-\00\00\00" }>, align 8
@alloc_8a079e8406604b4c981b2968c725e82d = private unnamed_addr constant <{ ptr, [16 x i8] }> <{ ptr @alloc_193cd2aeb9bb6160fa06bd1ac129e8c2, [16 x i8] c"$\00\00\00\00\00\00\00\1B\00\00\00\18\00\00\00" }>, align 8
@alloc_df0c7ff666d136146bd1429aaab9440a = private unnamed_addr constant <{ ptr, [16 x i8] }> <{ ptr @alloc_193cd2aeb9bb6160fa06bd1ac129e8c2, [16 x i8] c"$\00\00\00\00\00\00\00!\00\00\00\16\00\00\00" }>, align 8
@alloc_c931211193cb31d20e2b6919b056c8bc = private unnamed_addr constant <{ ptr, [16 x i8] }> <{ ptr @alloc_193cd2aeb9bb6160fa06bd1ac129e8c2, [16 x i8] c"$\00\00\00\00\00\00\00$\00\00\00T\00\00\00" }>, align 8
@alloc_0087ce2de2c7fd51123f89ae7e7108ed = private unnamed_addr constant <{ ptr, [16 x i8] }> <{ ptr @alloc_193cd2aeb9bb6160fa06bd1ac129e8c2, [16 x i8] c"$\00\00\00\00\00\00\00&\00\00\00J\00\00\00" }>, align 8
@alloc_0f4dc652bab8607a21ad9d9f40de6299 = private unnamed_addr constant <{ ptr, [16 x i8] }> <{ ptr @alloc_193cd2aeb9bb6160fa06bd1ac129e8c2, [16 x i8] c"$\00\00\00\00\00\00\00?\00\00\00\14\00\00\00" }>, align 8
@alloc_cd7ff6191b7706bd28c2256422a41b0e = private unnamed_addr constant <{ ptr, [16 x i8] }> <{ ptr @alloc_193cd2aeb9bb6160fa06bd1ac129e8c2, [16 x i8] c"$\00\00\00\00\00\00\00@\00\00\00\15\00\00\00" }>, align 8
@alloc_aa807f81f7c8cfb6d9314b32a3ad7ecd = private unnamed_addr constant <{ ptr, [16 x i8] }> <{ ptr @alloc_193cd2aeb9bb6160fa06bd1ac129e8c2, [16 x i8] c"$\00\00\00\00\00\00\00A\00\00\00$\00\00\00" }>, align 8
@alloc_eeba4e550e611c6357b9a4d9d2581461 = private unnamed_addr constant <{ ptr, [16 x i8] }> <{ ptr @alloc_193cd2aeb9bb6160fa06bd1ac129e8c2, [16 x i8] c"$\00\00\00\00\00\00\00A\00\00\00/\00\00\00" }>, align 8
@vtable.a = private unnamed_addr constant <{ [24 x i8], ptr }> <{ [24 x i8] c"\00\00\00\00\00\00\00\00\00\00\00\00\00\00\00\00\01\00\00\00\00\00\00\00", ptr @"_ZN69_$LT$aster_time..rtc..DummyRtc$u20$as$u20$aster_time..rtc..Driver$GT$8read_rtc17h0c0aafdf6da70ba0E" }>, align 8
@_ZN10aster_time3tsc5CLOCK17h9129a94384ed89bfE = internal global [16 x i8] zeroinitializer, align 8
@_ZN10aster_time3tsc18TSC_UPDATE_COUNTER17h192c871b01a7746eE = internal global [8 x i8] c"\01\00\00\00\00\00\00\00", align 8
@vtable.b = private unnamed_addr constant <{ [24 x i8], ptr, ptr, ptr }> <{ [24 x i8] c"\00\00\00\00\00\00\00\00\00\00\00\00\00\00\00\00\01\00\00\00\00\00\00\00", ptr @"_ZN4core3ops8function6FnOnce40call_once$u7b$$u7b$vtable.shim$u7d$$u7d$17hbe37db54a435222aE", ptr @_ZN4core3ops8function5FnMut8call_mut17h5a7e3da8d47841f5E, ptr @_ZN4core3ops8function2Fn4call17h28e83b42f6ba259fE }>, align 8
@alloc_ab91f0dedc48f93a0d77472d32bfb71b = private unnamed_addr constant [29 x i8] c"crates/aster-time/src/tsc.rs\00", align 1
@alloc_a3bf6fb2a5195630a07060acc1bf275b = private unnamed_addr constant <{ ptr, [16 x i8] }> <{ ptr @alloc_ab91f0dedc48f93a0d77472d32bfb71b, [16 x i8] c"\1C\00\00\00\00\00\00\00\16\00\00\00\1B\00\00\00" }>, align 8
@alloc_fc589505a221099aa818787501024332 = private unnamed_addr constant <{ ptr, [16 x i8] }> <{ ptr @alloc_ab91f0dedc48f93a0d77472d32bfb71b, [16 x i8] c"\1C\00\00\00\00\00\00\00\1F\00\00\00\0F\00\00\00" }>, align 8
@alloc_8694680cf9fb3ebb6856e1b1536b95c8 = private unnamed_addr constant <{ ptr, [16 x i8] }> <{ ptr @alloc_ab91f0dedc48f93a0d77472d32bfb71b, [16 x i8] c"\1C\00\00\00\00\00\00\00#\00\00\00\1B\00\00\00" }>, align 8
@alloc_5c65bd9191398ebe5d41648c25f6ac33 = private unnamed_addr constant <{ ptr, [16 x i8] }> <{ ptr @alloc_ab91f0dedc48f93a0d77472d32bfb71b, [16 x i8] c"\1C\00\00\00\00\00\00\00,\00\00\00$\00\00\00" }>, align 8
@alloc_06b4ae65846a71595ff085362b4e13cb = private unnamed_addr constant <{ ptr, [16 x i8] }> <{ ptr @alloc_ab91f0dedc48f93a0d77472d32bfb71b, [16 x i8] c"\1C\00\00\00\00\00\00\00-\00\00\00\16\00\00\00" }>, align 8
@alloc_457073da691941af96fa96fdb29d3ec5 = private unnamed_addr constant <{ ptr, [16 x i8] }> <{ ptr @alloc_ab91f0dedc48f93a0d77472d32bfb71b, [16 x i8] c"\1C\00\00\00\00\00\00\000\00\00\00\08\00\00\00" }>, align 8
@_ZN10aster_time28VDSO_DATA_HIGH_RES_UPDATE_FN17h5b2624e08e82a989E = global <{ [8 x i8], [8 x i8], [8 x i8] }> <{ [8 x i8] zeroinitializer, [8 x i8] undef, [8 x i8] zeroinitializer }>, align 8
@_ZN10aster_time10RTC_DRIVER17h0c214a2b8cac7a3cE = internal global <{ [8 x i8], [8 x i8], [8 x i8] }> <{ [8 x i8] zeroinitializer, [8 x i8] undef, [8 x i8] zeroinitializer }>, align 8
@_ZN10aster_time9READ_TIME17hcf0d42ffffa70c64E = internal global <{ [8 x i8], [24 x i8], [8 x i8], ptr }> <{ [8 x i8] zeroinitializer, [24 x i8] undef, [8 x i8] zeroinitializer, ptr @_ZN4core3ops8function6FnOnce9call_once17hb9dc3a47a2c00736E }>, align 8
@_ZN10aster_time10START_TIME17h842ba588f5df7370E = internal global <{ [16 x i8], [16 x i8] }> <{ [16 x i8] zeroinitializer, [16 x i8] undef }>, align 8
@alloc_b946d8707b4402a3247024a054c9b2ab = private unnamed_addr constant [29 x i8] c"crates/aster-time/src/lib.rs\00", align 1
@alloc_cf5fdbeca23b59ee4e9a14e66c93af90 = private unnamed_addr constant <{ ptr, [16 x i8] }> <{ ptr @alloc_b946d8707b4402a3247024a054c9b2ab, [16 x i8] c"\1C\00\00\00\00\00\00\004\00\00\00\14\00\00\00" }>, align 8
@alloc_b116e72f6d4eb3d4960fce286c115ff4 = private unnamed_addr constant <{ ptr, [16 x i8] }> <{ ptr @alloc_b946d8707b4402a3247024a054c9b2ab, [16 x i8] c"\1C\00\00\00\00\00\00\008\00\00\00#\00\00\00" }>, align 8
@alloc_261e84808f15c20c9f65ebd6cdcf356f = private unnamed_addr constant <{ ptr, [16 x i8] }> <{ ptr @alloc_b946d8707b4402a3247024a054c9b2ab, [16 x i8] c"\1C\00\00\00\00\00\00\009\00\00\00\1C\00\00\00" }>, align 8
@alloc_e62c9f7471366b43a08fdc43224cde27 = private unnamed_addr constant <{ ptr, [16 x i8] }> <{ ptr @alloc_b946d8707b4402a3247024a054c9b2ab, [16 x i8] c"\1C\00\00\00\00\00\00\00=\00\00\00\22\00\00\00" }>, align 8
@alloc_026ea9caf29c2872f7b9370e473d28f2 = private unnamed_addr constant [39 x i8] c"[dfsan] read_start_time result label = ", align 1
@alloc_49a1e817e911805af64bbc7efb390101 = private unnamed_addr constant [1 x i8] c"\0A", align 1
@alloc_ee68b5376cc949858bdb2953a6947c30 = private unnamed_addr constant <{ ptr, [8 x i8], ptr, [8 x i8] }> <{ ptr @alloc_026ea9caf29c2872f7b9370e473d28f2, [8 x i8] c"'\00\00\00\00\00\00\00", ptr @alloc_49a1e817e911805af64bbc7efb390101, [8 x i8] c"\01\00\00\00\00\00\00\00" }>, align 8
@alloc_b0477c55ac811b6fbd681649d1aff318 = private unnamed_addr constant <{ ptr, [16 x i8] }> <{ ptr @alloc_b946d8707b4402a3247024a054c9b2ab, [16 x i8] c"\1C\00\00\00\00\00\00\00I\00\00\001\00\00\00" }>, align 8
@alloc_3dffa16f75eef235e5b80045690f4860 = private unnamed_addr constant <{ ptr, [16 x i8] }> <{ ptr @alloc_b946d8707b4402a3247024a054c9b2ab, [16 x i8] c"\1C\00\00\00\00\00\00\00M\00\00\00\14\00\00\00" }>, align 8
@alloc_858d30de17d278a83298fc56832d9a54 = private unnamed_addr constant <{ ptr, [16 x i8] }> <{ ptr @alloc_b946d8707b4402a3247024a054c9b2ab, [16 x i8] c"\1C\00\00\00\00\00\00\00\16\00\00\00\0D\00\00\00" }>, align 8
@anon.8907c793926939c1a3db336f022d0871.1 = private unnamed_addr constant <{ [24 x i8], ptr, ptr, ptr }> <{ [24 x i8] c"\00\00\00\00\00\00\00\00\00\00\00\00\00\00\00\00\01\00\00\00\00\00\00\00", ptr @"_ZN4core3ops8function6FnOnce40call_once$u7b$$u7b$vtable.shim$u7d$$u7d$17hd6a2679e85a103f7E", ptr @_ZN4core3ops8function5FnMut8call_mut17hb6b567a75fa3108fE, ptr @_ZN4core3ops8function2Fn4call17h736985aa31143530E }>, align 8
@alloc_2b08b109ac7d25e6511e7082f023d285 = private unnamed_addr constant [28 x i8] c"crates/aster-time/src/lib.rs", align 1
@alloc_58d58e96c07ebd577f94679a65c36699 = private unnamed_addr constant <{ ptr, ptr, ptr, [8 x i8] }> <{ ptr inttoptr (i64 1 to ptr), ptr @anon.8907c793926939c1a3db336f022d0871.1, ptr @alloc_2b08b109ac7d25e6511e7082f023d285, [8 x i8] c"\1C\00\00\00\00\00\00\00" }>, align 8
@anon.8907c793926939c1a3db336f022d0871.2 = private unnamed_addr constant <{ [24 x i8], ptr }> <{ [24 x i8] c"\00\00\00\00\00\00\00\00 \00\00\00\00\00\00\00\08\00\00\00\00\00\00\00", ptr @"_ZN43_$LT$T$u20$as$u20$inventory..ErasedNode$GT$6submit17hc973b6a456e32ad4E" }>, align 8
@_ZN10aster_time1_11__INVENTORY17h49c64fca4a34b11bE = internal global <{ ptr, ptr, [8 x i8] }> <{ ptr @alloc_58d58e96c07ebd577f94679a65c36699, ptr @anon.8907c793926939c1a3db336f022d0871.2, [8 x i8] zeroinitializer }>, align 8
@llvm.used = appending global [1 x ptr] [ptr @_ZN10aster_time1_6__CTOR17h59f2ff3f8359d1bcE], section "llvm.metadata"

; <core::result::Result<T,F> as core::ops::try_trait::FromResidual<core::result::Result<core::convert::Infallible,E>>>::from_residual
; Function Attrs: inlinehint nonlazybind uwtable
define zeroext i1 @"_ZN153_$LT$core..result..Result$LT$T$C$F$GT$$u20$as$u20$core..ops..try_trait..FromResidual$LT$core..result..Result$LT$core..convert..Infallible$C$E$GT$$GT$$GT$13from_residual17h9c305c172a1fea90E"(ptr align 8 %0) unnamed_addr #0 {
start:
  ret i1 true
}

; std::sys::sync::rwlock::futex::RwLock::read
; Function Attrs: inlinehint nonlazybind uwtable
define internal void @_ZN3std3sys4sync6rwlock5futex6RwLock4read17h4637ff57848efbb6E(ptr align 4 %self) unnamed_addr #0 {
start:
  %_7 = alloca [8 x i8], align 4
; call core::sync::atomic::atomic_load
  %state = call i32 @_ZN4core4sync6atomic11atomic_load17hbf52c7da49f67ed9E(ptr %self, i8 0)
  %_15 = and i32 %state, 1073741823
  %_14 = icmp ult i32 %_15, 1073741822
  br i1 %_14, label %bb8, label %bb11

bb11:                                             ; preds = %start
  br label %bb12

bb8:                                              ; preds = %start
  %_17 = and i32 %state, 1073741824
  %0 = icmp eq i32 %_17, 0
  br i1 %0, label %bb10, label %bb9

bb12:                                             ; preds = %bb9, %bb11
  br label %bb2

bb10:                                             ; preds = %bb8
  %_18 = and i32 %state, -2147483648
  %_16 = icmp ne i32 %_18, 0
  %_4 = xor i1 %_16, true
  br i1 %_4, label %bb1, label %bb2

bb9:                                              ; preds = %bb8
  br label %bb12

bb2:                                              ; preds = %bb12, %bb10
  br label %bb4

bb1:                                              ; preds = %bb10
  %new = add i32 %state, 1
; call core::sync::atomic::atomic_compare_exchange_weak
  %1 = call { i32, i32 } @_ZN4core4sync6atomic28atomic_compare_exchange_weak17h4c07a82ba058abb3E(ptr %self, i32 %state, i32 %new, i8 2, i8 0)
  %2 = extractvalue { i32, i32 } %1, 0
  %3 = extractvalue { i32, i32 } %1, 1
  store i32 %2, ptr %_7, align 4
  %4 = getelementptr inbounds i8, ptr %_7, i64 4
  store i32 %3, ptr %4, align 4
  %5 = load i32, ptr %_7, align 4
  %6 = getelementptr inbounds i8, ptr %_7, i64 4
  %7 = load i32, ptr %6, align 4
  %_23 = zext i32 %5 to i64
  %_22 = icmp eq i64 %_23, 0
  %_5 = xor i1 %_22, true
  br i1 %_5, label %bb3, label %bb5

bb5:                                              ; preds = %bb1
  br label %bb6

bb3:                                              ; preds = %bb1
  br label %bb4

bb6:                                              ; preds = %bb4, %bb5
  ret void

bb4:                                              ; preds = %bb2, %bb3
; call std::sys::sync::rwlock::futex::RwLock::read_contended
  call void @_ZN3std3sys4sync6rwlock5futex6RwLock14read_contended17hde510599cf56db3bE(ptr align 4 %self)
  br label %bb6
}

; std::sync::poison::map_result
; Function Attrs: nonlazybind uwtable
define void @_ZN3std4sync6poison10map_result17h2e56805eb16aed47E(ptr sret([24 x i8]) align 8 %_0, i1 zeroext %0, ptr align 8 %f) unnamed_addr #1 {
start:
  %result = alloca [1 x i8], align 1
  %1 = zext i1 %0 to i8
  store i8 %1, ptr %result, align 1
  %2 = load i8, ptr %result, align 1
  %3 = trunc nuw i8 %2 to i1
  %_3 = zext i1 %3 to i64
  %4 = trunc nuw i64 %_3 to i1
  br i1 %4, label %bb2, label %bb3

bb2:                                              ; preds = %start
; call std::sync::poison::rwlock::RwLockReadGuard<T>::new::{{closure}}
  %5 = call { ptr, ptr } @"_ZN3std4sync6poison6rwlock24RwLockReadGuard$LT$T$GT$3new28_$u7b$$u7b$closure$u7d$$u7d$17h40e8e5495417ea92E"(ptr align 8 %f)
  %data.0 = extractvalue { ptr, ptr } %5, 0
  %data.1 = extractvalue { ptr, ptr } %5, 1
  %6 = getelementptr inbounds i8, ptr %_0, i64 8
  store ptr %data.0, ptr %6, align 8
  %7 = getelementptr inbounds i8, ptr %6, i64 8
  store ptr %data.1, ptr %7, align 8
  store i64 1, ptr %_0, align 8
  br label %bb6

bb3:                                              ; preds = %start
; call std::sync::poison::rwlock::RwLockReadGuard<T>::new::{{closure}}
  %8 = call { ptr, ptr } @"_ZN3std4sync6poison6rwlock24RwLockReadGuard$LT$T$GT$3new28_$u7b$$u7b$closure$u7d$$u7d$17h40e8e5495417ea92E"(ptr align 8 %f)
  %_5.0 = extractvalue { ptr, ptr } %8, 0
  %_5.1 = extractvalue { ptr, ptr } %8, 1
  %9 = getelementptr inbounds i8, ptr %_0, i64 8
  store ptr %_5.0, ptr %9, align 8
  %10 = getelementptr inbounds i8, ptr %9, i64 8
  store ptr %_5.1, ptr %10, align 8
  store i64 0, ptr %_0, align 8
  br label %bb6

bb6:                                              ; preds = %bb2, %bb3
  ret void

bb1:                                              ; No predecessors!
  unreachable
}

; std::sync::poison::map_result
; Function Attrs: nonlazybind uwtable
define void @_ZN3std4sync6poison10map_result17h3041f3c23929b9afE(ptr sret([24 x i8]) align 8 %_0, i1 zeroext %0, i8 %1, ptr align 8 %f) unnamed_addr #1 {
start:
  %result = alloca [2 x i8], align 1
  %2 = zext i1 %0 to i8
  store i8 %2, ptr %result, align 1
  %3 = getelementptr inbounds i8, ptr %result, i64 1
  store i8 %1, ptr %3, align 1
  %4 = load i8, ptr %result, align 1
  %5 = trunc nuw i8 %4 to i1
  %6 = getelementptr inbounds i8, ptr %result, i64 1
  %7 = load i8, ptr %6, align 1
  %_3 = zext i1 %5 to i64
  %8 = trunc nuw i64 %_3 to i1
  br i1 %8, label %bb2, label %bb3

bb2:                                              ; preds = %start
  %9 = getelementptr inbounds i8, ptr %result, i64 1
  %10 = load i8, ptr %9, align 1
  %data = trunc nuw i8 %10 to i1
; call std::sync::poison::mutex::MutexGuard<T>::new::{{closure}}
  %11 = call { ptr, i1 } @"_ZN3std4sync6poison5mutex19MutexGuard$LT$T$GT$3new28_$u7b$$u7b$closure$u7d$$u7d$17h1b0366b49dcdc3eaE"(ptr align 8 %f, i1 zeroext %data)
  %data.0 = extractvalue { ptr, i1 } %11, 0
  %data.1 = extractvalue { ptr, i1 } %11, 1
  %12 = getelementptr inbounds i8, ptr %_0, i64 8
  store ptr %data.0, ptr %12, align 8
  %13 = getelementptr inbounds i8, ptr %12, i64 8
  %14 = zext i1 %data.1 to i8
  store i8 %14, ptr %13, align 8
  store i64 1, ptr %_0, align 8
  br label %bb6

bb3:                                              ; preds = %start
  %15 = getelementptr inbounds i8, ptr %result, i64 1
  %16 = load i8, ptr %15, align 1
  %t = trunc nuw i8 %16 to i1
; call std::sync::poison::mutex::MutexGuard<T>::new::{{closure}}
  %17 = call { ptr, i1 } @"_ZN3std4sync6poison5mutex19MutexGuard$LT$T$GT$3new28_$u7b$$u7b$closure$u7d$$u7d$17h1b0366b49dcdc3eaE"(ptr align 8 %f, i1 zeroext %t)
  %_5.0 = extractvalue { ptr, i1 } %17, 0
  %_5.1 = extractvalue { ptr, i1 } %17, 1
  %18 = getelementptr inbounds i8, ptr %_0, i64 8
  store ptr %_5.0, ptr %18, align 8
  %19 = getelementptr inbounds i8, ptr %18, i64 8
  %20 = zext i1 %_5.1 to i8
  store i8 %20, ptr %19, align 8
  store i64 0, ptr %_0, align 8
  br label %bb6

bb6:                                              ; preds = %bb2, %bb3
  ret void

bb1:                                              ; No predecessors!
  unreachable
}

; std::sync::poison::map_result
; Function Attrs: nonlazybind uwtable
define void @_ZN3std4sync6poison10map_result17h42bcca65e8fc2f9fE(ptr sret([24 x i8]) align 8 %_0, i1 zeroext %0, i8 %1, ptr align 8 %f) unnamed_addr #1 {
start:
  %result = alloca [2 x i8], align 1
  %2 = zext i1 %0 to i8
  store i8 %2, ptr %result, align 1
  %3 = getelementptr inbounds i8, ptr %result, i64 1
  store i8 %1, ptr %3, align 1
  %4 = load i8, ptr %result, align 1
  %5 = trunc nuw i8 %4 to i1
  %6 = getelementptr inbounds i8, ptr %result, i64 1
  %7 = load i8, ptr %6, align 1
  %_3 = zext i1 %5 to i64
  %8 = trunc nuw i64 %_3 to i1
  br i1 %8, label %bb2, label %bb3

bb2:                                              ; preds = %start
  %9 = getelementptr inbounds i8, ptr %result, i64 1
  %10 = load i8, ptr %9, align 1
  %data = trunc nuw i8 %10 to i1
; call std::sync::poison::mutex::MutexGuard<T>::new::{{closure}}
  %11 = call { ptr, i1 } @"_ZN3std4sync6poison5mutex19MutexGuard$LT$T$GT$3new28_$u7b$$u7b$closure$u7d$$u7d$17hb14636ae5e4789ecE"(ptr align 8 %f, i1 zeroext %data)
  %data.0 = extractvalue { ptr, i1 } %11, 0
  %data.1 = extractvalue { ptr, i1 } %11, 1
  %12 = getelementptr inbounds i8, ptr %_0, i64 8
  store ptr %data.0, ptr %12, align 8
  %13 = getelementptr inbounds i8, ptr %12, i64 8
  %14 = zext i1 %data.1 to i8
  store i8 %14, ptr %13, align 8
  store i64 1, ptr %_0, align 8
  br label %bb6

bb3:                                              ; preds = %start
  %15 = getelementptr inbounds i8, ptr %result, i64 1
  %16 = load i8, ptr %15, align 1
  %t = trunc nuw i8 %16 to i1
; call std::sync::poison::mutex::MutexGuard<T>::new::{{closure}}
  %17 = call { ptr, i1 } @"_ZN3std4sync6poison5mutex19MutexGuard$LT$T$GT$3new28_$u7b$$u7b$closure$u7d$$u7d$17hb14636ae5e4789ecE"(ptr align 8 %f, i1 zeroext %t)
  %_5.0 = extractvalue { ptr, i1 } %17, 0
  %_5.1 = extractvalue { ptr, i1 } %17, 1
  %18 = getelementptr inbounds i8, ptr %_0, i64 8
  store ptr %_5.0, ptr %18, align 8
  %19 = getelementptr inbounds i8, ptr %18, i64 8
  %20 = zext i1 %_5.1 to i8
  store i8 %20, ptr %19, align 8
  store i64 0, ptr %_0, align 8
  br label %bb6

bb6:                                              ; preds = %bb2, %bb3
  ret void

bb1:                                              ; No predecessors!
  unreachable
}

; std::sync::poison::map_result
; Function Attrs: nonlazybind uwtable
define void @_ZN3std4sync6poison10map_result17hdfc069f0ced61faaE(ptr sret([24 x i8]) align 8 %_0, i1 zeroext %0, i8 %1, ptr align 8 %f) unnamed_addr #1 {
start:
  %result = alloca [2 x i8], align 1
  %2 = zext i1 %0 to i8
  store i8 %2, ptr %result, align 1
  %3 = getelementptr inbounds i8, ptr %result, i64 1
  store i8 %1, ptr %3, align 1
  %4 = load i8, ptr %result, align 1
  %5 = trunc nuw i8 %4 to i1
  %6 = getelementptr inbounds i8, ptr %result, i64 1
  %7 = load i8, ptr %6, align 1
  %_3 = zext i1 %5 to i64
  %8 = trunc nuw i64 %_3 to i1
  br i1 %8, label %bb2, label %bb3

bb2:                                              ; preds = %start
  %9 = getelementptr inbounds i8, ptr %result, i64 1
  %10 = load i8, ptr %9, align 1
  %data = trunc nuw i8 %10 to i1
; call std::sync::poison::rwlock::RwLockWriteGuard<T>::new::{{closure}}
  %11 = call { ptr, i1 } @"_ZN3std4sync6poison6rwlock25RwLockWriteGuard$LT$T$GT$3new28_$u7b$$u7b$closure$u7d$$u7d$17he59cd5555e62833aE"(ptr align 8 %f, i1 zeroext %data)
  %data.0 = extractvalue { ptr, i1 } %11, 0
  %data.1 = extractvalue { ptr, i1 } %11, 1
  %12 = getelementptr inbounds i8, ptr %_0, i64 8
  store ptr %data.0, ptr %12, align 8
  %13 = getelementptr inbounds i8, ptr %12, i64 8
  %14 = zext i1 %data.1 to i8
  store i8 %14, ptr %13, align 8
  store i64 1, ptr %_0, align 8
  br label %bb6

bb3:                                              ; preds = %start
  %15 = getelementptr inbounds i8, ptr %result, i64 1
  %16 = load i8, ptr %15, align 1
  %t = trunc nuw i8 %16 to i1
; call std::sync::poison::rwlock::RwLockWriteGuard<T>::new::{{closure}}
  %17 = call { ptr, i1 } @"_ZN3std4sync6poison6rwlock25RwLockWriteGuard$LT$T$GT$3new28_$u7b$$u7b$closure$u7d$$u7d$17he59cd5555e62833aE"(ptr align 8 %f, i1 zeroext %t)
  %_5.0 = extractvalue { ptr, i1 } %17, 0
  %_5.1 = extractvalue { ptr, i1 } %17, 1
  %18 = getelementptr inbounds i8, ptr %_0, i64 8
  store ptr %_5.0, ptr %18, align 8
  %19 = getelementptr inbounds i8, ptr %18, i64 8
  %20 = zext i1 %_5.1 to i8
  store i8 %20, ptr %19, align 8
  store i64 0, ptr %_0, align 8
  br label %bb6

bb6:                                              ; preds = %bb2, %bb3
  ret void

bb1:                                              ; No predecessors!
  unreachable
}

; std::sync::poison::Flag::done
; Function Attrs: inlinehint nonlazybind uwtable
define internal void @_ZN3std4sync6poison4Flag4done17hfee0218769e7ea2bE(ptr align 1 %self, ptr align 1 %guard) unnamed_addr #0 {
start:
  %0 = load i8, ptr %guard, align 1
  %_3 = trunc nuw i8 %0 to i1
  br i1 %_3, label %bb3, label %bb1

bb1:                                              ; preds = %start
; call core::sync::atomic::atomic_load
  %_8 = call i64 @_ZN4core4sync6atomic11atomic_load17h1308712063b9c2a8E(ptr @_ZN3std9panicking11panic_count18GLOBAL_PANIC_COUNT17h773706b8a844bfeaE, i8 0)
  %_7 = and i64 %_8, 9223372036854775807
  %1 = icmp eq i64 %_7, 0
  br i1 %1, label %bb5, label %bb6

bb3:                                              ; preds = %bb2, %bb6, %bb5, %start
  ret void

bb5:                                              ; preds = %bb1
  br label %bb3

bb6:                                              ; preds = %bb1
; call std::panicking::panic_count::is_zero_slow_path
  %_6 = call zeroext i1 @_ZN3std9panicking11panic_count17is_zero_slow_path17h6f711d16a2b974a7E()
  %_4 = xor i1 %_6, true
  br i1 %_4, label %bb2, label %bb3

bb2:                                              ; preds = %bb6
; call core::sync::atomic::atomic_store
  call void @_ZN4core4sync6atomic12atomic_store17h846185b9baa0691cE(ptr %self, i8 1, i8 0)
  br label %bb3
}

; std::sync::poison::Flag::guard
; Function Attrs: inlinehint nonlazybind uwtable
define internal { i1, i8 } @_ZN3std4sync6poison4Flag5guard17ha40114775bf8d8a9E(ptr align 1 %self) unnamed_addr #0 {
start:
  %_5 = alloca [1 x i8], align 1
  %_0 = alloca [2 x i8], align 1
; call core::sync::atomic::atomic_load
  %_7 = call i64 @_ZN4core4sync6atomic11atomic_load17h1308712063b9c2a8E(ptr @_ZN3std9panicking11panic_count18GLOBAL_PANIC_COUNT17h773706b8a844bfeaE, i8 0)
  %_6 = and i64 %_7, 9223372036854775807
  %0 = icmp eq i64 %_6, 0
  br i1 %0, label %bb5, label %bb6

bb5:                                              ; preds = %start
  store i8 1, ptr %_5, align 1
  br label %bb4

bb6:                                              ; preds = %start
; call std::panicking::panic_count::is_zero_slow_path
  %1 = call zeroext i1 @_ZN3std9panicking11panic_count17is_zero_slow_path17h6f711d16a2b974a7E()
  %2 = zext i1 %1 to i8
  store i8 %2, ptr %_5, align 1
  br label %bb4

bb4:                                              ; preds = %bb6, %bb5
  %3 = load i8, ptr %_5, align 1
  %4 = trunc nuw i8 %3 to i1
  %_3 = xor i1 %4, true
; call core::sync::atomic::atomic_load
  %_13 = call i8 @_ZN4core4sync6atomic11atomic_load17he8828ea078801ea3E(ptr %self, i8 0)
  %5 = icmp eq i8 %_13, 0
  br i1 %5, label %bb2, label %bb1

bb2:                                              ; preds = %bb4
  %6 = getelementptr inbounds i8, ptr %_0, i64 1
  %7 = zext i1 %_3 to i8
  store i8 %7, ptr %6, align 1
  store i8 0, ptr %_0, align 1
  br label %bb3

bb1:                                              ; preds = %bb4
  %8 = getelementptr inbounds i8, ptr %_0, i64 1
  %9 = zext i1 %_3 to i8
  store i8 %9, ptr %8, align 1
  store i8 1, ptr %_0, align 1
  br label %bb3

bb3:                                              ; preds = %bb1, %bb2
  %10 = load i8, ptr %_0, align 1
  %11 = trunc nuw i8 %10 to i1
  %12 = getelementptr inbounds i8, ptr %_0, i64 1
  %13 = load i8, ptr %12, align 1
  %14 = insertvalue { i1, i8 } poison, i1 %11, 0
  %15 = insertvalue { i1, i8 } %14, i8 %13, 1
  ret { i1, i8 } %15
}

; std::sync::poison::mutex::Mutex<T>::new
; Function Attrs: inlinehint nonlazybind uwtable
define void @"_ZN3std4sync6poison5mutex14Mutex$LT$T$GT$3new17hed049ba32d0de8e7E"(ptr sret([24 x i8]) align 8 %_0, ptr align 8 %t) unnamed_addr #0 {
start:
  %_6 = alloca [1 x i8], align 1
  %_5 = alloca [4 x i8], align 4
  %_4 = alloca [16 x i8], align 8
  %_3 = alloca [1 x i8], align 1
  %_2 = alloca [4 x i8], align 4
  store i32 0, ptr %_5, align 4
  call void @llvm.memcpy.p0.p0.i64(ptr align 4 %_2, ptr align 4 %_5, i64 4, i1 false)
  store i8 0, ptr %_6, align 1
  call void @llvm.memcpy.p0.p0.i64(ptr align 1 %_3, ptr align 1 %_6, i64 1, i1 false)
  call void @llvm.memcpy.p0.p0.i64(ptr align 8 %_4, ptr align 8 %t, i64 16, i1 false)
  call void @llvm.memcpy.p0.p0.i64(ptr align 8 %_0, ptr align 4 %_2, i64 4, i1 false)
  %0 = getelementptr inbounds i8, ptr %_0, i64 4
  call void @llvm.memcpy.p0.p0.i64(ptr align 4 %0, ptr align 1 %_3, i64 1, i1 false)
  %1 = getelementptr inbounds i8, ptr %_0, i64 8
  call void @llvm.memcpy.p0.p0.i64(ptr align 8 %1, ptr align 8 %_4, i64 16, i1 false)
  ret void
}

; std::sync::poison::mutex::Mutex<T>::lock
; Function Attrs: nonlazybind uwtable
define void @"_ZN3std4sync6poison5mutex14Mutex$LT$T$GT$4lock17h1fd9ea97d365d6aeE"(ptr sret([24 x i8]) align 8 %_0, ptr align 8 %self) unnamed_addr #1 {
start:
  %_5 = alloca [8 x i8], align 4
; call core::sync::atomic::atomic_compare_exchange
  %0 = call { i32, i32 } @_ZN4core4sync6atomic23atomic_compare_exchange17h9fe39060f238dc35E(ptr %self, i32 0, i32 1, i8 2, i8 0)
  %1 = extractvalue { i32, i32 } %0, 0
  %2 = extractvalue { i32, i32 } %0, 1
  store i32 %1, ptr %_5, align 4
  %3 = getelementptr inbounds i8, ptr %_5, i64 4
  store i32 %2, ptr %3, align 4
  %4 = load i32, ptr %_5, align 4
  %5 = getelementptr inbounds i8, ptr %_5, i64 4
  %6 = load i32, ptr %5, align 4
  %_12 = zext i32 %4 to i64
  %_11 = icmp eq i64 %_12, 0
  %_3 = xor i1 %_11, true
  br i1 %_3, label %bb1, label %bb2

bb2:                                              ; preds = %start
  br label %bb3

bb1:                                              ; preds = %start
; call std::sys::sync::mutex::futex::Mutex::lock_contended
  call void @_ZN3std3sys4sync5mutex5futex5Mutex14lock_contended17h4c31cf024f7e2908E(ptr align 4 %self)
  br label %bb3

bb3:                                              ; preds = %bb1, %bb2
  %_14 = getelementptr inbounds i8, ptr %self, i64 4
; call std::sync::poison::Flag::guard
  %7 = call { i1, i8 } @_ZN3std4sync6poison4Flag5guard17ha40114775bf8d8a9E(ptr align 1 %_14)
  %_13.0 = extractvalue { i1, i8 } %7, 0
  %_13.1 = extractvalue { i1, i8 } %7, 1
; call std::sync::poison::map_result
  call void @_ZN3std4sync6poison10map_result17h42bcca65e8fc2f9fE(ptr sret([24 x i8]) align 8 %_0, i1 zeroext %_13.0, i8 %_13.1, ptr align 8 %self)
  ret void
}

; std::sync::poison::mutex::Mutex<T>::lock
; Function Attrs: nonlazybind uwtable
define void @"_ZN3std4sync6poison5mutex14Mutex$LT$T$GT$4lock17h3f3b2a3201cadbc5E"(ptr sret([24 x i8]) align 8 %_0, ptr align 8 %self) unnamed_addr #1 {
start:
  %_5 = alloca [8 x i8], align 4
; call core::sync::atomic::atomic_compare_exchange
  %0 = call { i32, i32 } @_ZN4core4sync6atomic23atomic_compare_exchange17h9fe39060f238dc35E(ptr %self, i32 0, i32 1, i8 2, i8 0)
  %1 = extractvalue { i32, i32 } %0, 0
  %2 = extractvalue { i32, i32 } %0, 1
  store i32 %1, ptr %_5, align 4
  %3 = getelementptr inbounds i8, ptr %_5, i64 4
  store i32 %2, ptr %3, align 4
  %4 = load i32, ptr %_5, align 4
  %5 = getelementptr inbounds i8, ptr %_5, i64 4
  %6 = load i32, ptr %5, align 4
  %_12 = zext i32 %4 to i64
  %_11 = icmp eq i64 %_12, 0
  %_3 = xor i1 %_11, true
  br i1 %_3, label %bb1, label %bb2

bb2:                                              ; preds = %start
  br label %bb3

bb1:                                              ; preds = %start
; call std::sys::sync::mutex::futex::Mutex::lock_contended
  call void @_ZN3std3sys4sync5mutex5futex5Mutex14lock_contended17h4c31cf024f7e2908E(ptr align 4 %self)
  br label %bb3

bb3:                                              ; preds = %bb1, %bb2
  %_14 = getelementptr inbounds i8, ptr %self, i64 4
; call std::sync::poison::Flag::guard
  %7 = call { i1, i8 } @_ZN3std4sync6poison4Flag5guard17ha40114775bf8d8a9E(ptr align 1 %_14)
  %_13.0 = extractvalue { i1, i8 } %7, 0
  %_13.1 = extractvalue { i1, i8 } %7, 1
; call std::sync::poison::map_result
  call void @_ZN3std4sync6poison10map_result17h3041f3c23929b9afE(ptr sret([24 x i8]) align 8 %_0, i1 zeroext %_13.0, i8 %_13.1, ptr align 8 %self)
  ret void
}

; std::sync::poison::mutex::MutexGuard<T>::new::{{closure}}
; Function Attrs: inlinehint nonlazybind uwtable
define { ptr, i1 } @"_ZN3std4sync6poison5mutex19MutexGuard$LT$T$GT$3new28_$u7b$$u7b$closure$u7d$$u7d$17h1b0366b49dcdc3eaE"(ptr align 8 %_1, i1 zeroext %guard) unnamed_addr #0 {
start:
  %0 = insertvalue { ptr, i1 } poison, ptr %_1, 0
  %1 = insertvalue { ptr, i1 } %0, i1 %guard, 1
  ret { ptr, i1 } %1
}

; std::sync::poison::mutex::MutexGuard<T>::new::{{closure}}
; Function Attrs: inlinehint nonlazybind uwtable
define { ptr, i1 } @"_ZN3std4sync6poison5mutex19MutexGuard$LT$T$GT$3new28_$u7b$$u7b$closure$u7d$$u7d$17hb14636ae5e4789ecE"(ptr align 8 %_1, i1 zeroext %guard) unnamed_addr #0 {
start:
  %0 = insertvalue { ptr, i1 } poison, ptr %_1, 0
  %1 = insertvalue { ptr, i1 } %0, i1 %guard, 1
  ret { ptr, i1 } %1
}

; std::sync::poison::rwlock::RwLock<T>::new
; Function Attrs: inlinehint nonlazybind uwtable
define void @"_ZN3std4sync6poison6rwlock15RwLock$LT$T$GT$3new17h9c0f00f10853202bE"(ptr sret([40 x i8]) align 8 %_0, ptr align 8 %t) unnamed_addr #0 {
start:
  %_6 = alloca [1 x i8], align 1
  %_5 = alloca [4 x i8], align 4
  %_4 = alloca [24 x i8], align 8
  %_3 = alloca [1 x i8], align 1
  %_2 = alloca [8 x i8], align 4
  store i32 0, ptr %_5, align 4
  call void @llvm.memcpy.p0.p0.i64(ptr align 4 %_2, ptr align 4 %_5, i64 4, i1 false)
  %0 = getelementptr inbounds i8, ptr %_2, i64 4
  call void @llvm.memcpy.p0.p0.i64(ptr align 4 %0, ptr align 4 %_5, i64 4, i1 false)
  store i8 0, ptr %_6, align 1
  call void @llvm.memcpy.p0.p0.i64(ptr align 1 %_3, ptr align 1 %_6, i64 1, i1 false)
  call void @llvm.memcpy.p0.p0.i64(ptr align 8 %_4, ptr align 8 %t, i64 24, i1 false)
  call void @llvm.memcpy.p0.p0.i64(ptr align 8 %_0, ptr align 4 %_2, i64 8, i1 false)
  %1 = getelementptr inbounds i8, ptr %_0, i64 8
  call void @llvm.memcpy.p0.p0.i64(ptr align 8 %1, ptr align 1 %_3, i64 1, i1 false)
  %2 = getelementptr inbounds i8, ptr %_0, i64 16
  call void @llvm.memcpy.p0.p0.i64(ptr align 8 %2, ptr align 8 %_4, i64 24, i1 false)
  ret void
}

; std::sync::poison::rwlock::RwLock<T>::read
; Function Attrs: inlinehint nonlazybind uwtable
define void @"_ZN3std4sync6poison6rwlock15RwLock$LT$T$GT$4read17hacf890e92ff74b9bE"(ptr sret([24 x i8]) align 8 %_0, ptr align 8 %self) unnamed_addr #0 {
start:
; call std::sys::sync::rwlock::futex::RwLock::read
  call void @_ZN3std3sys4sync6rwlock5futex6RwLock4read17h4637ff57848efbb6E(ptr align 4 %self)
; call std::sync::poison::rwlock::RwLockReadGuard<T>::new
  call void @"_ZN3std4sync6poison6rwlock24RwLockReadGuard$LT$T$GT$3new17hdc4afbfa7e112118E"(ptr sret([24 x i8]) align 8 %_0, ptr align 8 %self)
  ret void
}

; std::sync::poison::rwlock::RwLock<T>::write
; Function Attrs: inlinehint nonlazybind uwtable
define void @"_ZN3std4sync6poison6rwlock15RwLock$LT$T$GT$5write17h892aa683d4931543E"(ptr sret([24 x i8]) align 8 %_0, ptr align 8 %self) unnamed_addr #0 {
start:
  %_5 = alloca [8 x i8], align 4
; call core::sync::atomic::atomic_compare_exchange_weak
  %0 = call { i32, i32 } @_ZN4core4sync6atomic28atomic_compare_exchange_weak17h4c07a82ba058abb3E(ptr %self, i32 0, i32 1073741823, i8 2, i8 0)
  %1 = extractvalue { i32, i32 } %0, 0
  %2 = extractvalue { i32, i32 } %0, 1
  store i32 %1, ptr %_5, align 4
  %3 = getelementptr inbounds i8, ptr %_5, i64 4
  store i32 %2, ptr %3, align 4
  %4 = load i32, ptr %_5, align 4
  %5 = getelementptr inbounds i8, ptr %_5, i64 4
  %6 = load i32, ptr %5, align 4
  %_12 = zext i32 %4 to i64
  %_11 = icmp eq i64 %_12, 0
  %_3 = xor i1 %_11, true
  br i1 %_3, label %bb1, label %bb2

bb2:                                              ; preds = %start
  br label %bb3

bb1:                                              ; preds = %start
; call std::sys::sync::rwlock::futex::RwLock::write_contended
  call void @_ZN3std3sys4sync6rwlock5futex6RwLock15write_contended17hec0a8d108e4634b5E(ptr align 4 %self)
  br label %bb3

bb3:                                              ; preds = %bb1, %bb2
  %_14 = getelementptr inbounds i8, ptr %self, i64 8
; call std::sync::poison::Flag::guard
  %7 = call { i1, i8 } @_ZN3std4sync6poison4Flag5guard17ha40114775bf8d8a9E(ptr align 1 %_14)
  %_13.0 = extractvalue { i1, i8 } %7, 0
  %_13.1 = extractvalue { i1, i8 } %7, 1
; call std::sync::poison::map_result
  call void @_ZN3std4sync6poison10map_result17hdfc069f0ced61faaE(ptr sret([24 x i8]) align 8 %_0, i1 zeroext %_13.0, i8 %_13.1, ptr align 8 %self)
  ret void
}

; std::sync::poison::rwlock::RwLockReadGuard<T>::new
; Function Attrs: nonlazybind uwtable
define void @"_ZN3std4sync6poison6rwlock24RwLockReadGuard$LT$T$GT$3new17hdc4afbfa7e112118E"(ptr sret([24 x i8]) align 8 %_0, ptr align 8 %lock) unnamed_addr #1 {
start:
  %_2 = alloca [1 x i8], align 1
  %self = getelementptr inbounds i8, ptr %lock, i64 8
  %self1 = getelementptr inbounds i8, ptr %lock, i64 8
  %self2 = getelementptr inbounds i8, ptr %lock, i64 8
  %_9 = getelementptr inbounds i8, ptr %lock, i64 8
; call core::sync::atomic::atomic_load
  %_6 = call i8 @_ZN4core4sync6atomic11atomic_load17he8828ea078801ea3E(ptr %_9, i8 0)
  %0 = icmp eq i8 %_6, 0
  br i1 %0, label %bb4, label %bb3

bb4:                                              ; preds = %start
  store i8 0, ptr %_2, align 1
  br label %bb2

bb3:                                              ; preds = %start
  store i8 1, ptr %_2, align 1
  br label %bb2

bb2:                                              ; preds = %bb3, %bb4
  %1 = load i8, ptr %_2, align 1
  %2 = trunc nuw i8 %1 to i1
; call std::sync::poison::map_result
  call void @_ZN3std4sync6poison10map_result17h2e56805eb16aed47E(ptr sret([24 x i8]) align 8 %_0, i1 zeroext %2, ptr align 8 %lock)
  ret void
}

; std::sync::poison::rwlock::RwLockReadGuard<T>::new::{{closure}}
; Function Attrs: inlinehint nonlazybind uwtable
define { ptr, ptr } @"_ZN3std4sync6poison6rwlock24RwLockReadGuard$LT$T$GT$3new28_$u7b$$u7b$closure$u7d$$u7d$17h40e8e5495417ea92E"(ptr align 8 %_1) unnamed_addr #0 {
start:
  %self = getelementptr inbounds i8, ptr %_1, i64 16
  %_8 = getelementptr inbounds i8, ptr %_1, i64 16
  br label %bb1

bb1:                                              ; preds = %start
; call core::ptr::non_null::NonNull<T>::new_unchecked::precondition_check
  call void @"_ZN4core3ptr8non_null16NonNull$LT$T$GT$13new_unchecked18precondition_check17h1908d8c30a2aab75E"(ptr %_8, ptr align 8 @alloc_9fec87cf92ceec07b8fed8607a9fc15a) #18
  br label %bb3

bb3:                                              ; preds = %bb1
  %0 = insertvalue { ptr, ptr } poison, ptr %_8, 0
  %1 = insertvalue { ptr, ptr } %0, ptr %_1, 1
  ret { ptr, ptr } %1
}

; std::sync::poison::rwlock::RwLockWriteGuard<T>::new::{{closure}}
; Function Attrs: inlinehint nonlazybind uwtable
define { ptr, i1 } @"_ZN3std4sync6poison6rwlock25RwLockWriteGuard$LT$T$GT$3new28_$u7b$$u7b$closure$u7d$$u7d$17he59cd5555e62833aE"(ptr align 8 %_1, i1 zeroext %guard) unnamed_addr #0 {
start:
  %0 = insertvalue { ptr, i1 } poison, ptr %_1, 0
  %1 = insertvalue { ptr, i1 } %0, i1 %guard, 1
  ret { ptr, i1 } %1
}

; <T as inventory::ErasedNode>::submit
; Function Attrs: nonlazybind uwtable
define void @"_ZN43_$LT$T$u20$as$u20$inventory..ErasedNode$GT$6submit17hc973b6a456e32ad4E"(ptr align 8 %self, ptr align 8 %node) unnamed_addr #1 {
start:
; call <component::ComponentRegistry as inventory::Collect>::registry
  %_4 = call align 8 ptr @"_ZN67_$LT$component..ComponentRegistry$u20$as$u20$inventory..Collect$GT$8registry17h2f8b3429c1d8b15fE"()
; call inventory::Registry::submit
  call void @_ZN9inventory8Registry6submit17h532dc8c658cb9092E(ptr align 8 %_4, ptr align 8 %node)
  ret void
}

; <T as alloc::borrow::ToOwned>::to_owned
; Function Attrs: nonlazybind uwtable
define void @"_ZN44_$LT$T$u20$as$u20$alloc..borrow..ToOwned$GT$8to_owned17h57a83f4c90b9add9E"(ptr sret([16 x i8]) align 8 %_0, ptr align 8 %self) unnamed_addr #1 {
start:
; call <aster_time::SystemTime as core::clone::Clone>::clone
  call void @"_ZN61_$LT$aster_time..SystemTime$u20$as$u20$core..clone..Clone$GT$5clone17h3f8401e5fbd5aba3E"(ptr sret([16 x i8]) align 8 %_0, ptr align 8 %self)
  ret void
}

; <&A as core::alloc::Allocator>::deallocate
; Function Attrs: inlinehint nonlazybind uwtable
define void @"_ZN48_$LT$$RF$A$u20$as$u20$core..alloc..Allocator$GT$10deallocate17h42060844d6956627E"(ptr align 8 %self, ptr %ptr, i64 %layout.0, i64 %layout.1) unnamed_addr #0 {
start:
  %_4 = load ptr, ptr %self, align 8
; call <alloc::alloc::Global as core::alloc::Allocator>::deallocate
  call void @"_ZN63_$LT$alloc..alloc..Global$u20$as$u20$core..alloc..Allocator$GT$10deallocate17h060cb63953f482c4E"(ptr align 1 %_4, ptr %ptr, i64 %layout.0, i64 %layout.1)
  ret void
}

; core::intrinsics::cold_path
; Function Attrs: cold nounwind nonlazybind uwtable
define internal void @_ZN4core10intrinsics9cold_path17h0464e1329d233765E() unnamed_addr #2 {
start:
  ret void
}

; core::cmp::Ord::max
; Function Attrs: inlinehint nonlazybind uwtable
define i64 @_ZN4core3cmp3Ord3max17h4b62dcad4371fe7dE(i64 %0, i64 %1) unnamed_addr #0 personality ptr @rust_eh_personality {
start:
  %2 = alloca [16 x i8], align 8
  %_6 = alloca [1 x i8], align 1
  %_0 = alloca [8 x i8], align 8
  %other = alloca [8 x i8], align 8
  %self = alloca [8 x i8], align 8
  store i64 %0, ptr %self, align 8
  store i64 %1, ptr %other, align 8
  store i8 1, ptr %_6, align 1
  %_3.i = load i64, ptr %other, align 8
  %_4.i = load i64, ptr %self, align 8
  %_0.i = icmp ult i64 %_3.i, %_4.i
  br label %bb1

bb5:                                              ; preds = %cleanup
  br label %bb9

cleanup:                                          ; No predecessors!
  %3 = landingpad { ptr, i32 }
          cleanup
  %4 = extractvalue { ptr, i32 } %3, 0
  %5 = extractvalue { ptr, i32 } %3, 1
  store ptr %4, ptr %2, align 8
  %6 = getelementptr inbounds i8, ptr %2, i64 8
  store i32 %5, ptr %6, align 8
  br label %bb5

bb1:                                              ; preds = %start
  br i1 %_0.i, label %bb2, label %bb3

bb3:                                              ; preds = %bb1
  %7 = load i64, ptr %other, align 8
  store i64 %7, ptr %_0, align 8
  %8 = load i8, ptr %_6, align 1
  %9 = trunc nuw i8 %8 to i1
  br i1 %9, label %bb7, label %bb4

bb2:                                              ; preds = %bb1
  store i8 0, ptr %_6, align 1
  %10 = load i64, ptr %self, align 8
  store i64 %10, ptr %_0, align 8
  br label %bb4

bb4:                                              ; preds = %bb2, %bb7, %bb3
  %11 = load i64, ptr %_0, align 8
  ret i64 %11

bb7:                                              ; preds = %bb3
  br label %bb4

bb9:                                              ; preds = %bb5
  %12 = load i8, ptr %_6, align 1
  %13 = trunc nuw i8 %12 to i1
  br i1 %13, label %bb8, label %bb6

bb6:                                              ; preds = %bb8, %bb9
  %14 = load ptr, ptr %2, align 8
  %15 = getelementptr inbounds i8, ptr %2, i64 8
  %16 = load i32, ptr %15, align 8
  %17 = insertvalue { ptr, i32 } poison, ptr %14, 0
  %18 = insertvalue { ptr, i32 } %17, i32 %16, 1
  resume { ptr, i32 } %18

bb8:                                              ; preds = %bb9
  br label %bb6
}

; core::cmp::max
; Function Attrs: inlinehint nonlazybind uwtable
define i64 @_ZN4core3cmp3max17h6bfb774328b471faE(i64 %v1, i64 %v2) unnamed_addr #0 {
start:
; call core::cmp::Ord::max
  %_0 = call i64 @_ZN4core3cmp3Ord3max17h4b62dcad4371fe7dE(i64 %v1, i64 %v2)
  ret i64 %_0
}

; core::fmt::rt::<impl core::fmt::Arguments>::new_v1
; Function Attrs: inlinehint nonlazybind uwtable
define void @"_ZN4core3fmt2rt38_$LT$impl$u20$core..fmt..Arguments$GT$6new_v117hce1705bf7ef10a39E"(ptr sret([48 x i8]) align 8 %_0, ptr align 8 %pieces, ptr align 8 %args) unnamed_addr #0 {
start:
  store ptr %pieces, ptr %_0, align 8
  %0 = getelementptr inbounds i8, ptr %_0, i64 8
  store i64 2, ptr %0, align 8
  %1 = load ptr, ptr @anon.8907c793926939c1a3db336f022d0871.0, align 8
  %2 = load i64, ptr getelementptr inbounds (i8, ptr @anon.8907c793926939c1a3db336f022d0871.0, i64 8), align 8
  %3 = getelementptr inbounds i8, ptr %_0, i64 32
  store ptr %1, ptr %3, align 8
  %4 = getelementptr inbounds i8, ptr %3, i64 8
  store i64 %2, ptr %4, align 8
  %5 = getelementptr inbounds i8, ptr %_0, i64 16
  store ptr %args, ptr %5, align 8
  %6 = getelementptr inbounds i8, ptr %5, i64 8
  store i64 1, ptr %6, align 8
  ret void
}

; core::fmt::rt::Argument::new_display
; Function Attrs: inlinehint nonlazybind uwtable
define void @_ZN4core3fmt2rt8Argument11new_display17h99bb27d3de477121E(ptr sret([16 x i8]) align 8 %_0, ptr align 1 %x) unnamed_addr #0 {
start:
  %_2 = alloca [16 x i8], align 8
  store ptr %x, ptr %_2, align 8
  %0 = getelementptr inbounds i8, ptr %_2, i64 8
  store ptr @"_ZN4core3fmt3num3imp51_$LT$impl$u20$core..fmt..Display$u20$for$u20$u8$GT$3fmt17hdc859b8b7f9bee81E", ptr %0, align 8
  call void @llvm.memcpy.p0.p0.i64(ptr align 8 %_0, ptr align 8 %_2, i64 16, i1 false)
  ret void
}

; core::ops::function::Fn::call
; Function Attrs: inlinehint nonlazybind uwtable
define internal i64 @_ZN4core3ops8function2Fn4call17h28e83b42f6ba259fE(ptr align 1 %_1) unnamed_addr #0 {
start:
  %_2 = alloca [0 x i8], align 1
; call ostd::arch::read_tsc
  %_0 = call i64 @_ZN4ostd4arch8read_tsc17h0a77b632809ee88bE()
  ret i64 %_0
}

; core::ops::function::Fn::call
; Function Attrs: inlinehint nonlazybind uwtable
define internal zeroext i1 @_ZN4core3ops8function2Fn4call17h736985aa31143530E(ptr align 1 %_1) unnamed_addr #0 {
start:
  %_2 = alloca [0 x i8], align 1
; call aster_time::time_init
  %_0 = call zeroext i1 @_ZN10aster_time9time_init17h9036040106292c63E()
  ret i1 %_0
}

; core::ops::function::FnMut::call_mut
; Function Attrs: inlinehint nonlazybind uwtable
define internal i64 @_ZN4core3ops8function5FnMut8call_mut17h5a7e3da8d47841f5E(ptr align 1 %_1) unnamed_addr #0 {
start:
  %_2 = alloca [0 x i8], align 1
; call ostd::arch::read_tsc
  %_0 = call i64 @_ZN4ostd4arch8read_tsc17h0a77b632809ee88bE()
  ret i64 %_0
}

; core::ops::function::FnMut::call_mut
; Function Attrs: inlinehint nonlazybind uwtable
define internal zeroext i1 @_ZN4core3ops8function5FnMut8call_mut17hb6b567a75fa3108fE(ptr align 1 %_1) unnamed_addr #0 {
start:
  %_2 = alloca [0 x i8], align 1
; call aster_time::time_init
  %_0 = call zeroext i1 @_ZN10aster_time9time_init17h9036040106292c63E()
  ret i1 %_0
}

; core::ops::function::FnOnce::call_once{{vtable.shim}}
; Function Attrs: inlinehint nonlazybind uwtable
define internal zeroext i1 @"_ZN4core3ops8function6FnOnce40call_once$u7b$$u7b$vtable.shim$u7d$$u7d$17h4a580298cf35ede6E"(ptr %_1) unnamed_addr #0 {
start:
  %_2 = alloca [0 x i8], align 1
; call core::ops::function::FnOnce::call_once
  %_0 = call zeroext i1 @_ZN4core3ops8function6FnOnce9call_once17h0177c0564c8f8b79E(ptr align 8 %_1)
  ret i1 %_0
}

; core::ops::function::FnOnce::call_once{{vtable.shim}}
; Function Attrs: inlinehint nonlazybind uwtable
define internal void @"_ZN4core3ops8function6FnOnce40call_once$u7b$$u7b$vtable.shim$u7d$$u7d$17h863b67d244b59dcfE"(ptr %_1) unnamed_addr #0 {
start:
  %_2 = alloca [0 x i8], align 1
  %0 = load i64, ptr %_1, align 8
; call core::ops::function::FnOnce::call_once
  call void @_ZN4core3ops8function6FnOnce9call_once17h5db841c9a5a52937E(i64 %0)
  ret void
}

; core::ops::function::FnOnce::call_once{{vtable.shim}}
; Function Attrs: inlinehint nonlazybind uwtable
define internal zeroext i1 @"_ZN4core3ops8function6FnOnce40call_once$u7b$$u7b$vtable.shim$u7d$$u7d$17h8f7d597d44f86007E"(ptr %_1) unnamed_addr #0 {
start:
  %_2 = alloca [0 x i8], align 1
; call core::ops::function::FnOnce::call_once
  %_0 = call zeroext i1 @_ZN4core3ops8function6FnOnce9call_once17hf46a6687b29fe872E(ptr align 8 %_1)
  ret i1 %_0
}

; core::ops::function::FnOnce::call_once{{vtable.shim}}
; Function Attrs: inlinehint nonlazybind uwtable
define internal zeroext i1 @"_ZN4core3ops8function6FnOnce40call_once$u7b$$u7b$vtable.shim$u7d$$u7d$17hbc05b1e5504e682eE"(ptr %_1) unnamed_addr #0 {
start:
  %_2 = alloca [0 x i8], align 1
; call core::ops::function::FnOnce::call_once
  %_0 = call zeroext i1 @_ZN4core3ops8function6FnOnce9call_once17h273edc36b40e1429E(ptr align 8 %_1)
  ret i1 %_0
}

; core::ops::function::FnOnce::call_once{{vtable.shim}}
; Function Attrs: inlinehint nonlazybind uwtable
define internal i64 @"_ZN4core3ops8function6FnOnce40call_once$u7b$$u7b$vtable.shim$u7d$$u7d$17hbe37db54a435222aE"(ptr %_1) unnamed_addr #0 {
start:
  %_2 = alloca [0 x i8], align 1
; call core::ops::function::FnOnce::call_once
  %_0 = call i64 @_ZN4core3ops8function6FnOnce9call_once17h772a4b0000cec9d6E()
  ret i64 %_0
}

; core::ops::function::FnOnce::call_once{{vtable.shim}}
; Function Attrs: inlinehint nonlazybind uwtable
define internal zeroext i1 @"_ZN4core3ops8function6FnOnce40call_once$u7b$$u7b$vtable.shim$u7d$$u7d$17hd07235f6d2941a02E"(ptr %_1) unnamed_addr #0 {
start:
  %_2 = alloca [0 x i8], align 1
; call core::ops::function::FnOnce::call_once
  %_0 = call zeroext i1 @_ZN4core3ops8function6FnOnce9call_once17h6f55a92772cd446fE(ptr align 8 %_1)
  ret i1 %_0
}

; core::ops::function::FnOnce::call_once{{vtable.shim}}
; Function Attrs: inlinehint nonlazybind uwtable
define internal zeroext i1 @"_ZN4core3ops8function6FnOnce40call_once$u7b$$u7b$vtable.shim$u7d$$u7d$17hd6a2679e85a103f7E"(ptr %_1) unnamed_addr #0 {
start:
  %_2 = alloca [0 x i8], align 1
; call core::ops::function::FnOnce::call_once
  %_0 = call zeroext i1 @_ZN4core3ops8function6FnOnce9call_once17h3542da31ad3c2ccfE()
  ret i1 %_0
}

; core::ops::function::FnOnce::call_once{{vtable.shim}}
; Function Attrs: inlinehint nonlazybind uwtable
define internal zeroext i1 @"_ZN4core3ops8function6FnOnce40call_once$u7b$$u7b$vtable.shim$u7d$$u7d$17hfb7af4e5590a6e59E"(ptr %_1) unnamed_addr #0 {
start:
  %_2 = alloca [0 x i8], align 1
; call core::ops::function::FnOnce::call_once
  %_0 = call zeroext i1 @_ZN4core3ops8function6FnOnce9call_once17h82f845d0f8636531E(ptr align 8 %_1)
  ret i1 %_0
}

; core::ops::function::FnOnce::call_once
; Function Attrs: inlinehint nonlazybind uwtable
define internal zeroext i1 @_ZN4core3ops8function6FnOnce9call_once17h0177c0564c8f8b79E(ptr align 8 %_1) unnamed_addr #0 personality ptr @rust_eh_personality {
start:
  %0 = alloca [16 x i8], align 8
  %_2 = alloca [0 x i8], align 1
; invoke once_cell::imp::OnceCell<T>::initialize::{{closure}}
  %_0 = invoke zeroext i1 @"_ZN9once_cell3imp17OnceCell$LT$T$GT$10initialize28_$u7b$$u7b$closure$u7d$$u7d$17haef9a4bef144bd32E"(ptr align 8 %_1)
          to label %bb1 unwind label %cleanup

bb3:                                              ; preds = %cleanup
  %1 = load ptr, ptr %0, align 8
  %2 = getelementptr inbounds i8, ptr %0, i64 8
  %3 = load i32, ptr %2, align 8
  %4 = insertvalue { ptr, i32 } poison, ptr %1, 0
  %5 = insertvalue { ptr, i32 } %4, i32 %3, 1
  resume { ptr, i32 } %5

cleanup:                                          ; preds = %start
  %6 = landingpad { ptr, i32 }
          cleanup
  %7 = extractvalue { ptr, i32 } %6, 0
  %8 = extractvalue { ptr, i32 } %6, 1
  store ptr %7, ptr %0, align 8
  %9 = getelementptr inbounds i8, ptr %0, i64 8
  store i32 %8, ptr %9, align 8
  br label %bb3

bb1:                                              ; preds = %start
  ret i1 %_0
}

; core::ops::function::FnOnce::call_once
; Function Attrs: inlinehint nonlazybind uwtable
define internal zeroext i1 @_ZN4core3ops8function6FnOnce9call_once17h273edc36b40e1429E(ptr align 8 %_1) unnamed_addr #0 personality ptr @rust_eh_personality {
start:
  %0 = alloca [16 x i8], align 8
  %_2 = alloca [0 x i8], align 1
; invoke once_cell::imp::OnceCell<T>::initialize::{{closure}}
  %_0 = invoke zeroext i1 @"_ZN9once_cell3imp17OnceCell$LT$T$GT$10initialize28_$u7b$$u7b$closure$u7d$$u7d$17h11cf0451ae43d00dE"(ptr align 8 %_1)
          to label %bb1 unwind label %cleanup

bb3:                                              ; preds = %cleanup
  %1 = load ptr, ptr %0, align 8
  %2 = getelementptr inbounds i8, ptr %0, i64 8
  %3 = load i32, ptr %2, align 8
  %4 = insertvalue { ptr, i32 } poison, ptr %1, 0
  %5 = insertvalue { ptr, i32 } %4, i32 %3, 1
  resume { ptr, i32 } %5

cleanup:                                          ; preds = %start
  %6 = landingpad { ptr, i32 }
          cleanup
  %7 = extractvalue { ptr, i32 } %6, 0
  %8 = extractvalue { ptr, i32 } %6, 1
  store ptr %7, ptr %0, align 8
  %9 = getelementptr inbounds i8, ptr %0, i64 8
  store i32 %8, ptr %9, align 8
  br label %bb3

bb1:                                              ; preds = %start
  ret i1 %_0
}

; core::ops::function::FnOnce::call_once
; Function Attrs: inlinehint nonlazybind uwtable
define internal zeroext i1 @_ZN4core3ops8function6FnOnce9call_once17h3542da31ad3c2ccfE() unnamed_addr #0 {
start:
  %_2 = alloca [0 x i8], align 1
; call aster_time::time_init
  %_0 = call zeroext i1 @_ZN10aster_time9time_init17h9036040106292c63E()
  ret i1 %_0
}

; core::ops::function::FnOnce::call_once
; Function Attrs: inlinehint nonlazybind uwtable
define internal void @_ZN4core3ops8function6FnOnce9call_once17h4412d4096261f4d1E(ptr sret([32 x i8]) align 8 %_0, ptr %_1) unnamed_addr #0 {
start:
  %_2 = alloca [0 x i8], align 1
  call void %_1(ptr sret([32 x i8]) align 8 %_0)
  ret void
}

; core::ops::function::FnOnce::call_once
; Function Attrs: inlinehint nonlazybind uwtable
define internal void @_ZN4core3ops8function6FnOnce9call_once17h5db841c9a5a52937E(i64 %0) unnamed_addr #0 personality ptr @rust_eh_personality {
start:
  %1 = alloca [16 x i8], align 8
  %_2 = alloca [0 x i8], align 1
  %_1 = alloca [8 x i8], align 8
  store i64 %0, ptr %_1, align 8
; invoke aster_time::tsc::init_timer::{{closure}}
  invoke void @"_ZN10aster_time3tsc10init_timer28_$u7b$$u7b$closure$u7d$$u7d$17h5e914eb7f3b8df5fE"(ptr align 8 %_1)
          to label %bb1 unwind label %cleanup

bb3:                                              ; preds = %cleanup
  %2 = load ptr, ptr %1, align 8
  %3 = getelementptr inbounds i8, ptr %1, i64 8
  %4 = load i32, ptr %3, align 8
  %5 = insertvalue { ptr, i32 } poison, ptr %2, 0
  %6 = insertvalue { ptr, i32 } %5, i32 %4, 1
  resume { ptr, i32 } %6

cleanup:                                          ; preds = %start
  %7 = landingpad { ptr, i32 }
          cleanup
  %8 = extractvalue { ptr, i32 } %7, 0
  %9 = extractvalue { ptr, i32 } %7, 1
  store ptr %8, ptr %1, align 8
  %10 = getelementptr inbounds i8, ptr %1, i64 8
  store i32 %9, ptr %10, align 8
  br label %bb3

bb1:                                              ; preds = %start
  ret void
}

; core::ops::function::FnOnce::call_once
; Function Attrs: inlinehint nonlazybind uwtable
define internal zeroext i1 @_ZN4core3ops8function6FnOnce9call_once17h6f55a92772cd446fE(ptr align 8 %_1) unnamed_addr #0 personality ptr @rust_eh_personality {
start:
  %0 = alloca [16 x i8], align 8
  %_2 = alloca [0 x i8], align 1
; invoke once_cell::imp::OnceCell<T>::initialize::{{closure}}
  %_0 = invoke zeroext i1 @"_ZN9once_cell3imp17OnceCell$LT$T$GT$10initialize28_$u7b$$u7b$closure$u7d$$u7d$17h0ecd92458addee89E"(ptr align 8 %_1)
          to label %bb1 unwind label %cleanup

bb3:                                              ; preds = %cleanup
  %1 = load ptr, ptr %0, align 8
  %2 = getelementptr inbounds i8, ptr %0, i64 8
  %3 = load i32, ptr %2, align 8
  %4 = insertvalue { ptr, i32 } poison, ptr %1, 0
  %5 = insertvalue { ptr, i32 } %4, i32 %3, 1
  resume { ptr, i32 } %5

cleanup:                                          ; preds = %start
  %6 = landingpad { ptr, i32 }
          cleanup
  %7 = extractvalue { ptr, i32 } %6, 0
  %8 = extractvalue { ptr, i32 } %6, 1
  store ptr %7, ptr %0, align 8
  %9 = getelementptr inbounds i8, ptr %0, i64 8
  store i32 %8, ptr %9, align 8
  br label %bb3

bb1:                                              ; preds = %start
  ret i1 %_0
}

; core::ops::function::FnOnce::call_once
; Function Attrs: inlinehint nonlazybind uwtable
define internal i64 @_ZN4core3ops8function6FnOnce9call_once17h772a4b0000cec9d6E() unnamed_addr #0 {
start:
  %_2 = alloca [0 x i8], align 1
; call ostd::arch::read_tsc
  %_0 = call i64 @_ZN4ostd4arch8read_tsc17h0a77b632809ee88bE()
  ret i64 %_0
}

; core::ops::function::FnOnce::call_once
; Function Attrs: inlinehint nonlazybind uwtable
define internal zeroext i1 @_ZN4core3ops8function6FnOnce9call_once17h82f845d0f8636531E(ptr align 8 %_1) unnamed_addr #0 personality ptr @rust_eh_personality {
start:
  %0 = alloca [16 x i8], align 8
  %_2 = alloca [0 x i8], align 1
; invoke once_cell::imp::OnceCell<T>::initialize::{{closure}}
  %_0 = invoke zeroext i1 @"_ZN9once_cell3imp17OnceCell$LT$T$GT$10initialize28_$u7b$$u7b$closure$u7d$$u7d$17h1699a288935087c8E"(ptr align 8 %_1)
          to label %bb1 unwind label %cleanup

bb3:                                              ; preds = %cleanup
  %1 = load ptr, ptr %0, align 8
  %2 = getelementptr inbounds i8, ptr %0, i64 8
  %3 = load i32, ptr %2, align 8
  %4 = insertvalue { ptr, i32 } poison, ptr %1, 0
  %5 = insertvalue { ptr, i32 } %4, i32 %3, 1
  resume { ptr, i32 } %5

cleanup:                                          ; preds = %start
  %6 = landingpad { ptr, i32 }
          cleanup
  %7 = extractvalue { ptr, i32 } %6, 0
  %8 = extractvalue { ptr, i32 } %6, 1
  store ptr %7, ptr %0, align 8
  %9 = getelementptr inbounds i8, ptr %0, i64 8
  store i32 %8, ptr %9, align 8
  br label %bb3

bb1:                                              ; preds = %start
  ret i1 %_0
}

; core::ops::function::FnOnce::call_once
; Function Attrs: inlinehint nonlazybind uwtable
define internal void @_ZN4core3ops8function6FnOnce9call_once17hb9dc3a47a2c00736E(ptr sret([24 x i8]) align 8 %_0) unnamed_addr #0 personality ptr @rust_eh_personality {
start:
  %0 = alloca [16 x i8], align 8
  %_2 = alloca [0 x i8], align 1
  %_1 = alloca [0 x i8], align 1
; invoke aster_time::READ_TIME::{{closure}}
  invoke void @"_ZN10aster_time9READ_TIME28_$u7b$$u7b$closure$u7d$$u7d$17ha0a6a09f83748251E"(ptr sret([24 x i8]) align 8 %_0, ptr align 1 %_1)
          to label %bb1 unwind label %cleanup

bb3:                                              ; preds = %cleanup
  %1 = load ptr, ptr %0, align 8
  %2 = getelementptr inbounds i8, ptr %0, i64 8
  %3 = load i32, ptr %2, align 8
  %4 = insertvalue { ptr, i32 } poison, ptr %1, 0
  %5 = insertvalue { ptr, i32 } %4, i32 %3, 1
  resume { ptr, i32 } %5

cleanup:                                          ; preds = %start
  %6 = landingpad { ptr, i32 }
          cleanup
  %7 = extractvalue { ptr, i32 } %6, 0
  %8 = extractvalue { ptr, i32 } %6, 1
  store ptr %7, ptr %0, align 8
  %9 = getelementptr inbounds i8, ptr %0, i64 8
  store i32 %8, ptr %9, align 8
  br label %bb3

bb1:                                              ; preds = %start
  ret void
}

; core::ops::function::FnOnce::call_once
; Function Attrs: inlinehint nonlazybind uwtable
define internal void @_ZN4core3ops8function6FnOnce9call_once17he2f98169eb6da2d9E(ptr sret([24 x i8]) align 8 %_0, ptr %_1) unnamed_addr #0 {
start:
  %_2 = alloca [0 x i8], align 1
  call void %_1(ptr sret([24 x i8]) align 8 %_0)
  ret void
}

; core::ops::function::FnOnce::call_once
; Function Attrs: inlinehint nonlazybind uwtable
define internal zeroext i1 @_ZN4core3ops8function6FnOnce9call_once17hf46a6687b29fe872E(ptr align 8 %_1) unnamed_addr #0 personality ptr @rust_eh_personality {
start:
  %0 = alloca [16 x i8], align 8
  %_2 = alloca [0 x i8], align 1
; invoke once_cell::imp::OnceCell<T>::initialize::{{closure}}
  %_0 = invoke zeroext i1 @"_ZN9once_cell3imp17OnceCell$LT$T$GT$10initialize28_$u7b$$u7b$closure$u7d$$u7d$17h2977d3b99eb009beE"(ptr align 8 %_1)
          to label %bb1 unwind label %cleanup

bb3:                                              ; preds = %cleanup
  %1 = load ptr, ptr %0, align 8
  %2 = getelementptr inbounds i8, ptr %0, i64 8
  %3 = load i32, ptr %2, align 8
  %4 = insertvalue { ptr, i32 } poison, ptr %1, 0
  %5 = insertvalue { ptr, i32 } %4, i32 %3, 1
  resume { ptr, i32 } %5

cleanup:                                          ; preds = %start
  %6 = landingpad { ptr, i32 }
          cleanup
  %7 = extractvalue { ptr, i32 } %6, 0
  %8 = extractvalue { ptr, i32 } %6, 1
  store ptr %7, ptr %0, align 8
  %9 = getelementptr inbounds i8, ptr %0, i64 8
  store i32 %8, ptr %9, align 8
  br label %bb3

bb1:                                              ; preds = %start
  ret i1 %_0
}

; core::ptr::drop_in_place<alloc::sync::Weak<aster_time::clocksource::ClockSource,&alloc::alloc::Global>>
; Function Attrs: nonlazybind uwtable
define void @"_ZN4core3ptr109drop_in_place$LT$alloc..sync..Weak$LT$aster_time..clocksource..ClockSource$C$$RF$alloc..alloc..Global$GT$$GT$17hb42e9c4174166ad0E"(ptr align 8 %_1) unnamed_addr #1 {
start:
; call <alloc::sync::Weak<T,A> as core::ops::drop::Drop>::drop
  call void @"_ZN72_$LT$alloc..sync..Weak$LT$T$C$A$GT$$u20$as$u20$core..ops..drop..Drop$GT$4drop17hc92285d11a5aa218E"(ptr align 8 %_1)
  ret void
}

; core::ptr::drop_in_place<core::option::Option<alloc::sync::Arc<aster_time::clocksource::ClockSource>>>
; Function Attrs: nonlazybind uwtable
define void @"_ZN4core3ptr109drop_in_place$LT$core..option..Option$LT$alloc..sync..Arc$LT$aster_time..clocksource..ClockSource$GT$$GT$$GT$17ha88843ef026fc947E"(ptr align 8 %_1) unnamed_addr #1 {
start:
  %0 = load ptr, ptr %_1, align 8
  %1 = ptrtoint ptr %0 to i64
  %2 = icmp eq i64 %1, 0
  %_2 = select i1 %2, i64 0, i64 1
  %3 = icmp eq i64 %_2, 0
  br i1 %3, label %bb1, label %bb2

bb1:                                              ; preds = %bb2, %start
  ret void

bb2:                                              ; preds = %start
; call core::ptr::drop_in_place<alloc::sync::Arc<aster_time::clocksource::ClockSource>>
  call void @"_ZN4core3ptr81drop_in_place$LT$alloc..sync..Arc$LT$aster_time..clocksource..ClockSource$GT$$GT$17he5d3a60ef7deee52E"(ptr align 8 %_1)
  br label %bb1
}

; core::ptr::drop_in_place<once_cell::imp::OnceCell<alloc::sync::Arc<aster_time::clocksource::ClockSource>>>
; Function Attrs: nonlazybind uwtable
define void @"_ZN4core3ptr113drop_in_place$LT$once_cell..imp..OnceCell$LT$alloc..sync..Arc$LT$aster_time..clocksource..ClockSource$GT$$GT$$GT$17h330d7d959219513cE"(ptr align 8 %_1) unnamed_addr #1 {
start:
  %0 = getelementptr inbounds i8, ptr %_1, i64 8
; call core::ptr::drop_in_place<core::cell::UnsafeCell<core::option::Option<alloc::sync::Arc<aster_time::clocksource::ClockSource>>>>
  call void @"_ZN4core3ptr139drop_in_place$LT$core..cell..UnsafeCell$LT$core..option..Option$LT$alloc..sync..Arc$LT$aster_time..clocksource..ClockSource$GT$$GT$$GT$$GT$17hcc969b07b7dafe71E"(ptr align 8 %0)
  ret void
}

; core::ptr::drop_in_place<once_cell::sync::OnceCell<alloc::sync::Arc<aster_time::clocksource::ClockSource>>>
; Function Attrs: nonlazybind uwtable
define void @"_ZN4core3ptr114drop_in_place$LT$once_cell..sync..OnceCell$LT$alloc..sync..Arc$LT$aster_time..clocksource..ClockSource$GT$$GT$$GT$17h8183dc57a1a043bbE"(ptr align 8 %_1) unnamed_addr #1 {
start:
; call core::ptr::drop_in_place<once_cell::imp::OnceCell<alloc::sync::Arc<aster_time::clocksource::ClockSource>>>
  call void @"_ZN4core3ptr113drop_in_place$LT$once_cell..imp..OnceCell$LT$alloc..sync..Arc$LT$aster_time..clocksource..ClockSource$GT$$GT$$GT$17h330d7d959219513cE"(ptr align 8 %_1)
  ret void
}

; core::ptr::drop_in_place<std::sync::poison::rwlock::RwLockReadGuard<(aster_time::clocksource::Instant,u64)>>
; Function Attrs: nonlazybind uwtable
define void @"_ZN4core3ptr117drop_in_place$LT$std..sync..poison..rwlock..RwLockReadGuard$LT$$LP$aster_time..clocksource..Instant$C$u64$RP$$GT$$GT$17hf5290549b930dd75E"(ptr align 8 %_1) unnamed_addr #1 {
start:
; call <std::sync::poison::rwlock::RwLockReadGuard<T> as core::ops::drop::Drop>::drop
  call void @"_ZN93_$LT$std..sync..poison..rwlock..RwLockReadGuard$LT$T$GT$$u20$as$u20$core..ops..drop..Drop$GT$4drop17hfb1b2826c2108a56E"(ptr align 8 %_1)
  ret void
}

; core::ptr::drop_in_place<std::sync::poison::rwlock::RwLockWriteGuard<(aster_time::clocksource::Instant,u64)>>
; Function Attrs: nonlazybind uwtable
define void @"_ZN4core3ptr118drop_in_place$LT$std..sync..poison..rwlock..RwLockWriteGuard$LT$$LP$aster_time..clocksource..Instant$C$u64$RP$$GT$$GT$17h64556d87d109189eE"(ptr align 8 %_1) unnamed_addr #1 {
start:
; call <std::sync::poison::rwlock::RwLockWriteGuard<T> as core::ops::drop::Drop>::drop
  call void @"_ZN94_$LT$std..sync..poison..rwlock..RwLockWriteGuard$LT$T$GT$$u20$as$u20$core..ops..drop..Drop$GT$4drop17he2bc804f352b4fb2E"(ptr align 8 %_1)
  ret void
}

; core::ptr::drop_in_place<core::result::Result<(),alloc::sync::Arc<aster_time::clocksource::ClockSource>>>
; Function Attrs: nonlazybind uwtable
define void @"_ZN4core3ptr120drop_in_place$LT$core..result..Result$LT$$LP$$RP$$C$alloc..sync..Arc$LT$aster_time..clocksource..ClockSource$GT$$GT$$GT$17hd437d95d0d0d06f0E"(ptr align 8 %_1) unnamed_addr #1 {
start:
  %0 = load ptr, ptr %_1, align 8
  %1 = ptrtoint ptr %0 to i64
  %2 = icmp eq i64 %1, 0
  %_2 = select i1 %2, i64 0, i64 1
  %3 = icmp eq i64 %_2, 0
  br i1 %3, label %bb1, label %bb2

bb1:                                              ; preds = %bb2, %start
  ret void

bb2:                                              ; preds = %start
; call core::ptr::drop_in_place<alloc::sync::Arc<aster_time::clocksource::ClockSource>>
  call void @"_ZN4core3ptr81drop_in_place$LT$alloc..sync..Arc$LT$aster_time..clocksource..ClockSource$GT$$GT$17he5d3a60ef7deee52E"(ptr align 8 %_1)
  br label %bb1
}

; core::ptr::drop_in_place<alloc::sync::Arc<dyn aster_time::rtc::Driver+core::marker::Sync+core::marker::Send>>
; Function Attrs: nonlazybind uwtable
define void @"_ZN4core3ptr122drop_in_place$LT$alloc..sync..Arc$LT$dyn$u20$aster_time..rtc..Driver$u2b$core..marker..Sync$u2b$core..marker..Send$GT$$GT$17h406ae3aeb70dce9aE"(ptr align 8 %_1) unnamed_addr #1 {
start:
; call <alloc::sync::Arc<T,A> as core::ops::drop::Drop>::drop
  call void @"_ZN71_$LT$alloc..sync..Arc$LT$T$C$A$GT$$u20$as$u20$core..ops..drop..Drop$GT$4drop17hf3de727eb26419f1E"(ptr align 8 %_1)
  ret void
}

; core::ptr::drop_in_place<std::sync::poison::PoisonError<std::sync::poison::mutex::MutexGuard<aster_time::SystemTime>>>
; Function Attrs: nonlazybind uwtable
define void @"_ZN4core3ptr125drop_in_place$LT$std..sync..poison..PoisonError$LT$std..sync..poison..mutex..MutexGuard$LT$aster_time..SystemTime$GT$$GT$$GT$17h443ca5c0010acb8aE"(ptr align 8 %_1) unnamed_addr #1 {
start:
; call core::ptr::drop_in_place<std::sync::poison::mutex::MutexGuard<aster_time::SystemTime>>
  call void @"_ZN4core3ptr87drop_in_place$LT$std..sync..poison..mutex..MutexGuard$LT$aster_time..SystemTime$GT$$GT$17h4c37ef9fda9c10edE"(ptr align 8 %_1)
  ret void
}

; core::ptr::drop_in_place<core::cell::UnsafeCell<core::option::Option<alloc::sync::Arc<aster_time::clocksource::ClockSource>>>>
; Function Attrs: nonlazybind uwtable
define void @"_ZN4core3ptr139drop_in_place$LT$core..cell..UnsafeCell$LT$core..option..Option$LT$alloc..sync..Arc$LT$aster_time..clocksource..ClockSource$GT$$GT$$GT$$GT$17hcc969b07b7dafe71E"(ptr align 8 %_1) unnamed_addr #1 {
start:
; call core::ptr::drop_in_place<core::option::Option<alloc::sync::Arc<aster_time::clocksource::ClockSource>>>
  call void @"_ZN4core3ptr109drop_in_place$LT$core..option..Option$LT$alloc..sync..Arc$LT$aster_time..clocksource..ClockSource$GT$$GT$$GT$17ha88843ef026fc947E"(ptr align 8 %_1)
  ret void
}

; core::ptr::drop_in_place<dyn core::ops::function::Fn<()>+Output = u64+core::marker::Sync+core::marker::Send>
; Function Attrs: nonlazybind uwtable
define void @"_ZN4core3ptr143drop_in_place$LT$dyn$u20$core..ops..function..Fn$LT$$LP$$RP$$GT$$u2b$Output$u20$$u3d$$u20$u64$u2b$core..marker..Sync$u2b$core..marker..Send$GT$17haca21a73954520b2E"(ptr align 1 %_1.0, ptr align 8 %_1.1) unnamed_addr #1 {
start:
  %0 = getelementptr inbounds i8, ptr %_1.1, i64 0
  %1 = load ptr, ptr %0, align 8, !invariant.load !3
  %2 = icmp ne ptr %1, null
  br i1 %2, label %is_not_null, label %bb1

is_not_null:                                      ; preds = %start
  call void %1(ptr %_1.0)
  br label %bb1

bb1:                                              ; preds = %is_not_null, %start
  ret void
}

; core::ptr::drop_in_place<dyn core::ops::function::Fn<()>+Output = ()+core::marker::Sync+core::marker::Send>
; Function Attrs: nonlazybind uwtable
define void @"_ZN4core3ptr148drop_in_place$LT$dyn$u20$core..ops..function..Fn$LT$$LP$$RP$$GT$$u2b$Output$u20$$u3d$$u20$$LP$$RP$$u2b$core..marker..Sync$u2b$core..marker..Send$GT$17h2b5c1f5753e57e53E"(ptr align 1 %_1.0, ptr align 8 %_1.1) unnamed_addr #1 {
start:
  %0 = getelementptr inbounds i8, ptr %_1.1, i64 0
  %1 = load ptr, ptr %0, align 8, !invariant.load !3
  %2 = icmp ne ptr %1, null
  br i1 %2, label %is_not_null, label %bb1

is_not_null:                                      ; preds = %start
  call void %1(ptr %_1.0)
  br label %bb1

bb1:                                              ; preds = %is_not_null, %start
  ret void
}

; core::ptr::drop_in_place<alloc::sync::Weak<dyn aster_time::rtc::Driver+core::marker::Sync+core::marker::Send,&alloc::alloc::Global>>
; Function Attrs: nonlazybind uwtable
define void @"_ZN4core3ptr150drop_in_place$LT$alloc..sync..Weak$LT$dyn$u20$aster_time..rtc..Driver$u2b$core..marker..Sync$u2b$core..marker..Send$C$$RF$alloc..alloc..Global$GT$$GT$17h45a71b9519543c65E"(ptr align 8 %_1) unnamed_addr #1 {
start:
; call <alloc::sync::Weak<T,A> as core::ops::drop::Drop>::drop
  call void @"_ZN72_$LT$alloc..sync..Weak$LT$T$C$A$GT$$u20$as$u20$core..ops..drop..Drop$GT$4drop17h149935c2f3862f65E"(ptr align 8 %_1)
  ret void
}

; core::ptr::drop_in_place<core::option::Option<alloc::sync::Arc<dyn aster_time::rtc::Driver+core::marker::Sync+core::marker::Send>>>
; Function Attrs: nonlazybind uwtable
define void @"_ZN4core3ptr150drop_in_place$LT$core..option..Option$LT$alloc..sync..Arc$LT$dyn$u20$aster_time..rtc..Driver$u2b$core..marker..Sync$u2b$core..marker..Send$GT$$GT$$GT$17h7a38b2fcb2d39fbcE"(ptr align 8 %_1) unnamed_addr #1 {
start:
  %0 = load ptr, ptr %_1, align 8
  %1 = getelementptr inbounds i8, ptr %_1, i64 8
  %2 = load ptr, ptr %1, align 8
  %3 = ptrtoint ptr %0 to i64
  %4 = icmp eq i64 %3, 0
  %_2 = select i1 %4, i64 0, i64 1
  %5 = icmp eq i64 %_2, 0
  br i1 %5, label %bb1, label %bb2

bb1:                                              ; preds = %bb2, %start
  ret void

bb2:                                              ; preds = %start
; call core::ptr::drop_in_place<alloc::sync::Arc<dyn aster_time::rtc::Driver+core::marker::Sync+core::marker::Send>>
  call void @"_ZN4core3ptr122drop_in_place$LT$alloc..sync..Arc$LT$dyn$u20$aster_time..rtc..Driver$u2b$core..marker..Sync$u2b$core..marker..Send$GT$$GT$17h406ae3aeb70dce9aE"(ptr align 8 %_1)
  br label %bb1
}

; core::ptr::drop_in_place<once_cell::imp::OnceCell<alloc::sync::Arc<dyn aster_time::rtc::Driver+core::marker::Sync+core::marker::Send>>>
; Function Attrs: nonlazybind uwtable
define void @"_ZN4core3ptr154drop_in_place$LT$once_cell..imp..OnceCell$LT$alloc..sync..Arc$LT$dyn$u20$aster_time..rtc..Driver$u2b$core..marker..Sync$u2b$core..marker..Send$GT$$GT$$GT$17he5a320495ddcd043E"(ptr align 8 %_1) unnamed_addr #1 {
start:
; call core::ptr::drop_in_place<core::cell::UnsafeCell<core::option::Option<alloc::sync::Arc<dyn aster_time::rtc::Driver+core::marker::Sync+core::marker::Send>>>>
  call void @"_ZN4core3ptr180drop_in_place$LT$core..cell..UnsafeCell$LT$core..option..Option$LT$alloc..sync..Arc$LT$dyn$u20$aster_time..rtc..Driver$u2b$core..marker..Sync$u2b$core..marker..Send$GT$$GT$$GT$$GT$17h86fb989091654561E"(ptr align 8 %_1)
  ret void
}

; core::ptr::drop_in_place<once_cell::sync::OnceCell<alloc::sync::Arc<dyn aster_time::rtc::Driver+core::marker::Sync+core::marker::Send>>>
; Function Attrs: nonlazybind uwtable
define void @"_ZN4core3ptr155drop_in_place$LT$once_cell..sync..OnceCell$LT$alloc..sync..Arc$LT$dyn$u20$aster_time..rtc..Driver$u2b$core..marker..Sync$u2b$core..marker..Send$GT$$GT$$GT$17h66bcd94681ef3518E"(ptr align 8 %_1) unnamed_addr #1 {
start:
; call core::ptr::drop_in_place<once_cell::imp::OnceCell<alloc::sync::Arc<dyn aster_time::rtc::Driver+core::marker::Sync+core::marker::Send>>>
  call void @"_ZN4core3ptr154drop_in_place$LT$once_cell..imp..OnceCell$LT$alloc..sync..Arc$LT$dyn$u20$aster_time..rtc..Driver$u2b$core..marker..Sync$u2b$core..marker..Send$GT$$GT$$GT$17he5a320495ddcd043E"(ptr align 8 %_1)
  ret void
}

; core::ptr::drop_in_place<std::sync::poison::PoisonError<std::sync::poison::rwlock::RwLockReadGuard<(aster_time::clocksource::Instant,u64)>>>
; Function Attrs: nonlazybind uwtable
define void @"_ZN4core3ptr155drop_in_place$LT$std..sync..poison..PoisonError$LT$std..sync..poison..rwlock..RwLockReadGuard$LT$$LP$aster_time..clocksource..Instant$C$u64$RP$$GT$$GT$$GT$17h600a060e33de95b5E"(ptr align 8 %_1) unnamed_addr #1 {
start:
; call core::ptr::drop_in_place<std::sync::poison::rwlock::RwLockReadGuard<(aster_time::clocksource::Instant,u64)>>
  call void @"_ZN4core3ptr117drop_in_place$LT$std..sync..poison..rwlock..RwLockReadGuard$LT$$LP$aster_time..clocksource..Instant$C$u64$RP$$GT$$GT$17hf5290549b930dd75E"(ptr align 8 %_1)
  ret void
}

; core::ptr::drop_in_place<std::sync::poison::PoisonError<std::sync::poison::rwlock::RwLockWriteGuard<(aster_time::clocksource::Instant,u64)>>>
; Function Attrs: nonlazybind uwtable
define void @"_ZN4core3ptr156drop_in_place$LT$std..sync..poison..PoisonError$LT$std..sync..poison..rwlock..RwLockWriteGuard$LT$$LP$aster_time..clocksource..Instant$C$u64$RP$$GT$$GT$$GT$17ha8a226ca09850fd3E"(ptr align 8 %_1) unnamed_addr #1 {
start:
; call core::ptr::drop_in_place<std::sync::poison::rwlock::RwLockWriteGuard<(aster_time::clocksource::Instant,u64)>>
  call void @"_ZN4core3ptr118drop_in_place$LT$std..sync..poison..rwlock..RwLockWriteGuard$LT$$LP$aster_time..clocksource..Instant$C$u64$RP$$GT$$GT$17h64556d87d109189eE"(ptr align 8 %_1)
  ret void
}

; core::ptr::drop_in_place<core::result::Result<(),alloc::sync::Arc<dyn aster_time::rtc::Driver+core::marker::Sync+core::marker::Send>>>
; Function Attrs: nonlazybind uwtable
define void @"_ZN4core3ptr161drop_in_place$LT$core..result..Result$LT$$LP$$RP$$C$alloc..sync..Arc$LT$dyn$u20$aster_time..rtc..Driver$u2b$core..marker..Sync$u2b$core..marker..Send$GT$$GT$$GT$17h1119a2272331ad89E"(ptr align 8 %_1) unnamed_addr #1 {
start:
  %0 = load ptr, ptr %_1, align 8
  %1 = getelementptr inbounds i8, ptr %_1, i64 8
  %2 = load ptr, ptr %1, align 8
  %3 = ptrtoint ptr %0 to i64
  %4 = icmp eq i64 %3, 0
  %_2 = select i1 %4, i64 0, i64 1
  %5 = icmp eq i64 %_2, 0
  br i1 %5, label %bb1, label %bb2

bb1:                                              ; preds = %bb2, %start
  ret void

bb2:                                              ; preds = %start
; call core::ptr::drop_in_place<alloc::sync::Arc<dyn aster_time::rtc::Driver+core::marker::Sync+core::marker::Send>>
  call void @"_ZN4core3ptr122drop_in_place$LT$alloc..sync..Arc$LT$dyn$u20$aster_time..rtc..Driver$u2b$core..marker..Sync$u2b$core..marker..Send$GT$$GT$17h406ae3aeb70dce9aE"(ptr align 8 %_1)
  br label %bb1
}

; core::ptr::drop_in_place<alloc::sync::Arc<dyn core::ops::function::Fn<()>+Output = u64+core::marker::Sync+core::marker::Send>>
; Function Attrs: nonlazybind uwtable
define void @"_ZN4core3ptr167drop_in_place$LT$alloc..sync..Arc$LT$dyn$u20$core..ops..function..Fn$LT$$LP$$RP$$GT$$u2b$Output$u20$$u3d$$u20$u64$u2b$core..marker..Sync$u2b$core..marker..Send$GT$$GT$17h3c314fcaaf62bb70E"(ptr align 8 %_1) unnamed_addr #1 {
start:
; call <alloc::sync::Arc<T,A> as core::ops::drop::Drop>::drop
  call void @"_ZN71_$LT$alloc..sync..Arc$LT$T$C$A$GT$$u20$as$u20$core..ops..drop..Drop$GT$4drop17h695f3e7a076ec1f6E"(ptr align 8 %_1)
  ret void
}

; core::ptr::drop_in_place<alloc::boxed::Box<dyn core::ops::function::Fn<()>+Output = ()+core::marker::Sync+core::marker::Send>>
; Function Attrs: nonlazybind uwtable
define void @"_ZN4core3ptr173drop_in_place$LT$alloc..boxed..Box$LT$dyn$u20$core..ops..function..Fn$LT$$LP$$RP$$GT$$u2b$Output$u20$$u3d$$u20$$LP$$RP$$u2b$core..marker..Sync$u2b$core..marker..Send$GT$$GT$17h6925c0b5ec1f58bcE"(ptr align 8 %_1) unnamed_addr #1 personality ptr @rust_eh_personality {
start:
  %0 = alloca [16 x i8], align 8
  %_6.0 = load ptr, ptr %_1, align 8
  %1 = getelementptr inbounds i8, ptr %_1, i64 8
  %_6.1 = load ptr, ptr %1, align 8
  %2 = getelementptr inbounds i8, ptr %_6.1, i64 0
  %3 = load ptr, ptr %2, align 8, !invariant.load !3
  %4 = icmp ne ptr %3, null
  br i1 %4, label %is_not_null, label %bb3

is_not_null:                                      ; preds = %start
  invoke void %3(ptr %_6.0)
          to label %bb3 unwind label %cleanup

bb3:                                              ; preds = %is_not_null, %start
; call <alloc::boxed::Box<T,A> as core::ops::drop::Drop>::drop
  call void @"_ZN72_$LT$alloc..boxed..Box$LT$T$C$A$GT$$u20$as$u20$core..ops..drop..Drop$GT$4drop17h9b27be5a452bb17eE"(ptr align 8 %_1)
  ret void

bb4:                                              ; preds = %cleanup
; invoke <alloc::boxed::Box<T,A> as core::ops::drop::Drop>::drop
  invoke void @"_ZN72_$LT$alloc..boxed..Box$LT$T$C$A$GT$$u20$as$u20$core..ops..drop..Drop$GT$4drop17h9b27be5a452bb17eE"(ptr align 8 %_1) #19
          to label %bb1 unwind label %terminate

cleanup:                                          ; preds = %is_not_null
  %5 = landingpad { ptr, i32 }
          cleanup
  %6 = extractvalue { ptr, i32 } %5, 0
  %7 = extractvalue { ptr, i32 } %5, 1
  store ptr %6, ptr %0, align 8
  %8 = getelementptr inbounds i8, ptr %0, i64 8
  store i32 %7, ptr %8, align 8
  br label %bb4

terminate:                                        ; preds = %bb4
  %9 = landingpad { ptr, i32 }
          filter [0 x ptr] zeroinitializer
; call core::panicking::panic_in_cleanup
  call void @_ZN4core9panicking16panic_in_cleanup17hb509fce69c32fbdaE() #20
  unreachable

bb1:                                              ; preds = %bb4
  %10 = load ptr, ptr %0, align 8
  %11 = getelementptr inbounds i8, ptr %0, i64 8
  %12 = load i32, ptr %11, align 8
  %13 = insertvalue { ptr, i32 } poison, ptr %10, 0
  %14 = insertvalue { ptr, i32 } %13, i32 %12, 1
  resume { ptr, i32 } %14
}

; core::ptr::drop_in_place<core::cell::UnsafeCell<core::option::Option<alloc::sync::Arc<dyn aster_time::rtc::Driver+core::marker::Sync+core::marker::Send>>>>
; Function Attrs: nonlazybind uwtable
define void @"_ZN4core3ptr180drop_in_place$LT$core..cell..UnsafeCell$LT$core..option..Option$LT$alloc..sync..Arc$LT$dyn$u20$aster_time..rtc..Driver$u2b$core..marker..Sync$u2b$core..marker..Send$GT$$GT$$GT$$GT$17h86fb989091654561E"(ptr align 8 %_1) unnamed_addr #1 {
start:
; call core::ptr::drop_in_place<core::option::Option<alloc::sync::Arc<dyn aster_time::rtc::Driver+core::marker::Sync+core::marker::Send>>>
  call void @"_ZN4core3ptr150drop_in_place$LT$core..option..Option$LT$alloc..sync..Arc$LT$dyn$u20$aster_time..rtc..Driver$u2b$core..marker..Sync$u2b$core..marker..Send$GT$$GT$$GT$17h7a38b2fcb2d39fbcE"(ptr align 8 %_1)
  ret void
}

; core::ptr::drop_in_place<[alloc::boxed::Box<dyn core::ops::function::Fn<()>+Output = ()+core::marker::Sync+core::marker::Send>]>
; Function Attrs: nonlazybind uwtable
define void @"_ZN4core3ptr183drop_in_place$LT$$u5b$alloc..boxed..Box$LT$dyn$u20$core..ops..function..Fn$LT$$LP$$RP$$GT$$u2b$Output$u20$$u3d$$u20$$LP$$RP$$u2b$core..marker..Sync$u2b$core..marker..Send$GT$$u5d$$GT$17h6dc6feb13d6fc875E"(ptr align 8 %_1.0, i64 %_1.1) unnamed_addr #1 personality ptr @rust_eh_personality {
start:
  %0 = alloca [16 x i8], align 8
  %_3 = alloca [8 x i8], align 8
  store i64 0, ptr %_3, align 8
  br label %bb6

bb6:                                              ; preds = %bb5, %start
  %1 = load i64, ptr %_3, align 8
  %_7 = icmp eq i64 %1, %_1.1
  br i1 %_7, label %bb1, label %bb5

bb5:                                              ; preds = %bb6
  %2 = load i64, ptr %_3, align 8
  %_6 = getelementptr inbounds nuw %"alloc::boxed::Box<dyn core::ops::function::Fn() + core::marker::Send + core::marker::Sync>", ptr %_1.0, i64 %2
  %3 = load i64, ptr %_3, align 8
  %4 = add i64 %3, 1
  store i64 %4, ptr %_3, align 8
; invoke core::ptr::drop_in_place<alloc::boxed::Box<dyn core::ops::function::Fn<()>+Output = ()+core::marker::Sync+core::marker::Send>>
  invoke void @"_ZN4core3ptr173drop_in_place$LT$alloc..boxed..Box$LT$dyn$u20$core..ops..function..Fn$LT$$LP$$RP$$GT$$u2b$Output$u20$$u3d$$u20$$LP$$RP$$u2b$core..marker..Sync$u2b$core..marker..Send$GT$$GT$17h6925c0b5ec1f58bcE"(ptr align 8 %_6)
          to label %bb6 unwind label %cleanup

bb1:                                              ; preds = %bb6
  ret void

bb4:                                              ; preds = %bb3, %cleanup
  %5 = load i64, ptr %_3, align 8
  %_5 = icmp eq i64 %5, %_1.1
  br i1 %_5, label %bb2, label %bb3

cleanup:                                          ; preds = %bb5
  %6 = landingpad { ptr, i32 }
          cleanup
  %7 = extractvalue { ptr, i32 } %6, 0
  %8 = extractvalue { ptr, i32 } %6, 1
  store ptr %7, ptr %0, align 8
  %9 = getelementptr inbounds i8, ptr %0, i64 8
  store i32 %8, ptr %9, align 8
  br label %bb4

bb3:                                              ; preds = %bb4
  %10 = load i64, ptr %_3, align 8
  %_4 = getelementptr inbounds nuw %"alloc::boxed::Box<dyn core::ops::function::Fn() + core::marker::Send + core::marker::Sync>", ptr %_1.0, i64 %10
  %11 = load i64, ptr %_3, align 8
  %12 = add i64 %11, 1
  store i64 %12, ptr %_3, align 8
; invoke core::ptr::drop_in_place<alloc::boxed::Box<dyn core::ops::function::Fn<()>+Output = ()+core::marker::Sync+core::marker::Send>>
  invoke void @"_ZN4core3ptr173drop_in_place$LT$alloc..boxed..Box$LT$dyn$u20$core..ops..function..Fn$LT$$LP$$RP$$GT$$u2b$Output$u20$$u3d$$u20$$LP$$RP$$u2b$core..marker..Sync$u2b$core..marker..Send$GT$$GT$17h6925c0b5ec1f58bcE"(ptr align 8 %_4) #19
          to label %bb4 unwind label %terminate

bb2:                                              ; preds = %bb4
  %13 = load ptr, ptr %0, align 8
  %14 = getelementptr inbounds i8, ptr %0, i64 8
  %15 = load i32, ptr %14, align 8
  %16 = insertvalue { ptr, i32 } poison, ptr %13, 0
  %17 = insertvalue { ptr, i32 } %16, i32 %15, 1
  resume { ptr, i32 } %17

terminate:                                        ; preds = %bb3
  %18 = landingpad { ptr, i32 }
          filter [0 x ptr] zeroinitializer
; call core::panicking::panic_in_cleanup
  call void @_ZN4core9panicking16panic_in_cleanup17hb509fce69c32fbdaE() #20
  unreachable
}

; core::ptr::drop_in_place<dyn core::ops::function::Fn<(aster_time::clocksource::Instant,u64)>+Output = ()+core::marker::Sync+core::marker::Send>
; Function Attrs: nonlazybind uwtable
define void @"_ZN4core3ptr186drop_in_place$LT$dyn$u20$core..ops..function..Fn$LT$$LP$aster_time..clocksource..Instant$C$u64$RP$$GT$$u2b$Output$u20$$u3d$$u20$$LP$$RP$$u2b$core..marker..Sync$u2b$core..marker..Send$GT$17h49a83eadd7f67f81E"(ptr align 1 %_1.0, ptr align 8 %_1.1) unnamed_addr #1 {
start:
  %0 = getelementptr inbounds i8, ptr %_1.1, i64 0
  %1 = load ptr, ptr %0, align 8, !invariant.load !3
  %2 = icmp ne ptr %1, null
  br i1 %2, label %is_not_null, label %bb1

is_not_null:                                      ; preds = %start
  call void %1(ptr %_1.0)
  br label %bb1

bb1:                                              ; preds = %is_not_null, %start
  ret void
}

; core::ptr::drop_in_place<alloc::sync::Weak<dyn core::ops::function::Fn<()>+Output = u64+core::marker::Sync+core::marker::Send,&alloc::alloc::Global>>
; Function Attrs: nonlazybind uwtable
define void @"_ZN4core3ptr195drop_in_place$LT$alloc..sync..Weak$LT$dyn$u20$core..ops..function..Fn$LT$$LP$$RP$$GT$$u2b$Output$u20$$u3d$$u20$u64$u2b$core..marker..Sync$u2b$core..marker..Send$C$$RF$alloc..alloc..Global$GT$$GT$17hc1f8354caaecd952E"(ptr align 8 %_1) unnamed_addr #1 {
start:
; call <alloc::sync::Weak<T,A> as core::ops::drop::Drop>::drop
  call void @"_ZN72_$LT$alloc..sync..Weak$LT$T$C$A$GT$$u20$as$u20$core..ops..drop..Drop$GT$4drop17h6089d27cd0f33867E"(ptr align 8 %_1)
  ret void
}

; core::ptr::drop_in_place<alloc::vec::Vec<alloc::boxed::Box<dyn core::ops::function::Fn<()>+Output = ()+core::marker::Sync+core::marker::Send>>>
; Function Attrs: nonlazybind uwtable
define void @"_ZN4core3ptr196drop_in_place$LT$alloc..vec..Vec$LT$alloc..boxed..Box$LT$dyn$u20$core..ops..function..Fn$LT$$LP$$RP$$GT$$u2b$Output$u20$$u3d$$u20$$LP$$RP$$u2b$core..marker..Sync$u2b$core..marker..Send$GT$$GT$$GT$17h12e954cce4cc2d5aE"(ptr align 8 %_1) unnamed_addr #1 personality ptr @rust_eh_personality {
start:
  %0 = alloca [16 x i8], align 8
; invoke <alloc::vec::Vec<T,A> as core::ops::drop::Drop>::drop
  invoke void @"_ZN70_$LT$alloc..vec..Vec$LT$T$C$A$GT$$u20$as$u20$core..ops..drop..Drop$GT$4drop17he01c9728bd3e8c40E"(ptr align 8 %_1)
          to label %bb4 unwind label %cleanup

bb3:                                              ; preds = %cleanup
; invoke core::ptr::drop_in_place<alloc::raw_vec::RawVec<alloc::boxed::Box<dyn core::ops::function::Fn<()>+Output = ()+core::marker::Sync+core::marker::Send>>>
  invoke void @"_ZN4core3ptr203drop_in_place$LT$alloc..raw_vec..RawVec$LT$alloc..boxed..Box$LT$dyn$u20$core..ops..function..Fn$LT$$LP$$RP$$GT$$u2b$Output$u20$$u3d$$u20$$LP$$RP$$u2b$core..marker..Sync$u2b$core..marker..Send$GT$$GT$$GT$17h5460509f8920413dE"(ptr align 8 %_1) #19
          to label %bb1 unwind label %terminate

cleanup:                                          ; preds = %start
  %1 = landingpad { ptr, i32 }
          cleanup
  %2 = extractvalue { ptr, i32 } %1, 0
  %3 = extractvalue { ptr, i32 } %1, 1
  store ptr %2, ptr %0, align 8
  %4 = getelementptr inbounds i8, ptr %0, i64 8
  store i32 %3, ptr %4, align 8
  br label %bb3

bb4:                                              ; preds = %start
; call core::ptr::drop_in_place<alloc::raw_vec::RawVec<alloc::boxed::Box<dyn core::ops::function::Fn<()>+Output = ()+core::marker::Sync+core::marker::Send>>>
  call void @"_ZN4core3ptr203drop_in_place$LT$alloc..raw_vec..RawVec$LT$alloc..boxed..Box$LT$dyn$u20$core..ops..function..Fn$LT$$LP$$RP$$GT$$u2b$Output$u20$$u3d$$u20$$LP$$RP$$u2b$core..marker..Sync$u2b$core..marker..Send$GT$$GT$$GT$17h5460509f8920413dE"(ptr align 8 %_1)
  ret void

terminate:                                        ; preds = %bb3
  %5 = landingpad { ptr, i32 }
          filter [0 x ptr] zeroinitializer
; call core::panicking::panic_in_cleanup
  call void @_ZN4core9panicking16panic_in_cleanup17hb509fce69c32fbdaE() #20
  unreachable

bb1:                                              ; preds = %bb3
  %6 = load ptr, ptr %0, align 8
  %7 = getelementptr inbounds i8, ptr %0, i64 8
  %8 = load i32, ptr %7, align 8
  %9 = insertvalue { ptr, i32 } poison, ptr %6, 0
  %10 = insertvalue { ptr, i32 } %9, i32 %8, 1
  resume { ptr, i32 } %10
}

; core::ptr::drop_in_place<alloc::raw_vec::RawVec<alloc::boxed::Box<dyn core::ops::function::Fn<()>+Output = ()+core::marker::Sync+core::marker::Send>>>
; Function Attrs: nonlazybind uwtable
define void @"_ZN4core3ptr203drop_in_place$LT$alloc..raw_vec..RawVec$LT$alloc..boxed..Box$LT$dyn$u20$core..ops..function..Fn$LT$$LP$$RP$$GT$$u2b$Output$u20$$u3d$$u20$$LP$$RP$$u2b$core..marker..Sync$u2b$core..marker..Send$GT$$GT$$GT$17h5460509f8920413dE"(ptr align 8 %_1) unnamed_addr #1 {
start:
; call <alloc::raw_vec::RawVec<T,A> as core::ops::drop::Drop>::drop
  call void @"_ZN77_$LT$alloc..raw_vec..RawVec$LT$T$C$A$GT$$u20$as$u20$core..ops..drop..Drop$GT$4drop17h3b94d4ea417df33eE"(ptr align 8 %_1)
  ret void
}

; core::ptr::drop_in_place<alloc::sync::Arc<dyn core::ops::function::Fn<(aster_time::clocksource::Instant,u64)>+Output = ()+core::marker::Sync+core::marker::Send>>
; Function Attrs: nonlazybind uwtable
define void @"_ZN4core3ptr210drop_in_place$LT$alloc..sync..Arc$LT$dyn$u20$core..ops..function..Fn$LT$$LP$aster_time..clocksource..Instant$C$u64$RP$$GT$$u2b$Output$u20$$u3d$$u20$$LP$$RP$$u2b$core..marker..Sync$u2b$core..marker..Send$GT$$GT$17h1badb9c884dce31cE"(ptr align 8 %_1) unnamed_addr #1 {
start:
; call <alloc::sync::Arc<T,A> as core::ops::drop::Drop>::drop
  call void @"_ZN71_$LT$alloc..sync..Arc$LT$T$C$A$GT$$u20$as$u20$core..ops..drop..Drop$GT$4drop17h1393a4d03876e953E"(ptr align 8 %_1)
  ret void
}

; core::ptr::drop_in_place<core::cell::UnsafeCell<alloc::vec::Vec<alloc::boxed::Box<dyn core::ops::function::Fn<()>+Output = ()+core::marker::Sync+core::marker::Send>>>>
; Function Attrs: nonlazybind uwtable
define void @"_ZN4core3ptr226drop_in_place$LT$core..cell..UnsafeCell$LT$alloc..vec..Vec$LT$alloc..boxed..Box$LT$dyn$u20$core..ops..function..Fn$LT$$LP$$RP$$GT$$u2b$Output$u20$$u3d$$u20$$LP$$RP$$u2b$core..marker..Sync$u2b$core..marker..Send$GT$$GT$$GT$$GT$17h7c7bdd61757ec8eeE"(ptr align 8 %_1) unnamed_addr #1 {
start:
; call core::ptr::drop_in_place<alloc::vec::Vec<alloc::boxed::Box<dyn core::ops::function::Fn<()>+Output = ()+core::marker::Sync+core::marker::Send>>>
  call void @"_ZN4core3ptr196drop_in_place$LT$alloc..vec..Vec$LT$alloc..boxed..Box$LT$dyn$u20$core..ops..function..Fn$LT$$LP$$RP$$GT$$u2b$Output$u20$$u3d$$u20$$LP$$RP$$u2b$core..marker..Sync$u2b$core..marker..Send$GT$$GT$$GT$17h12e954cce4cc2d5aE"(ptr align 8 %_1)
  ret void
}

; core::ptr::drop_in_place<std::sync::poison::mutex::Mutex<alloc::vec::Vec<alloc::boxed::Box<dyn core::ops::function::Fn<()>+Output = ()+core::marker::Sync+core::marker::Send>>>>
; Function Attrs: nonlazybind uwtable
define void @"_ZN4core3ptr235drop_in_place$LT$std..sync..poison..mutex..Mutex$LT$alloc..vec..Vec$LT$alloc..boxed..Box$LT$dyn$u20$core..ops..function..Fn$LT$$LP$$RP$$GT$$u2b$Output$u20$$u3d$$u20$$LP$$RP$$u2b$core..marker..Sync$u2b$core..marker..Send$GT$$GT$$GT$$GT$17h896eb36f57e7d9d6E"(ptr align 8 %_1) unnamed_addr #1 {
start:
  %0 = getelementptr inbounds i8, ptr %_1, i64 8
; call core::ptr::drop_in_place<core::cell::UnsafeCell<alloc::vec::Vec<alloc::boxed::Box<dyn core::ops::function::Fn<()>+Output = ()+core::marker::Sync+core::marker::Send>>>>
  call void @"_ZN4core3ptr226drop_in_place$LT$core..cell..UnsafeCell$LT$alloc..vec..Vec$LT$alloc..boxed..Box$LT$dyn$u20$core..ops..function..Fn$LT$$LP$$RP$$GT$$u2b$Output$u20$$u3d$$u20$$LP$$RP$$u2b$core..marker..Sync$u2b$core..marker..Send$GT$$GT$$GT$$GT$17h7c7bdd61757ec8eeE"(ptr align 8 %0)
  ret void
}

; core::ptr::drop_in_place<alloc::sync::Weak<dyn core::ops::function::Fn<(aster_time::clocksource::Instant,u64)>+Output = ()+core::marker::Sync+core::marker::Send,&alloc::alloc::Global>>
; Function Attrs: nonlazybind uwtable
define void @"_ZN4core3ptr238drop_in_place$LT$alloc..sync..Weak$LT$dyn$u20$core..ops..function..Fn$LT$$LP$aster_time..clocksource..Instant$C$u64$RP$$GT$$u2b$Output$u20$$u3d$$u20$$LP$$RP$$u2b$core..marker..Sync$u2b$core..marker..Send$C$$RF$alloc..alloc..Global$GT$$GT$17h7672900556b493ceE"(ptr align 8 %_1) unnamed_addr #1 {
start:
; call <alloc::sync::Weak<T,A> as core::ops::drop::Drop>::drop
  call void @"_ZN72_$LT$alloc..sync..Weak$LT$T$C$A$GT$$u20$as$u20$core..ops..drop..Drop$GT$4drop17hf68775bb6003a36dE"(ptr align 8 %_1)
  ret void
}

; core::ptr::drop_in_place<core::option::Option<alloc::sync::Arc<dyn core::ops::function::Fn<(aster_time::clocksource::Instant,u64)>+Output = ()+core::marker::Sync+core::marker::Send>>>
; Function Attrs: nonlazybind uwtable
define void @"_ZN4core3ptr238drop_in_place$LT$core..option..Option$LT$alloc..sync..Arc$LT$dyn$u20$core..ops..function..Fn$LT$$LP$aster_time..clocksource..Instant$C$u64$RP$$GT$$u2b$Output$u20$$u3d$$u20$$LP$$RP$$u2b$core..marker..Sync$u2b$core..marker..Send$GT$$GT$$GT$17h6ae5157314cbe500E"(ptr align 8 %_1) unnamed_addr #1 {
start:
  %0 = load ptr, ptr %_1, align 8
  %1 = getelementptr inbounds i8, ptr %_1, i64 8
  %2 = load ptr, ptr %1, align 8
  %3 = ptrtoint ptr %0 to i64
  %4 = icmp eq i64 %3, 0
  %_2 = select i1 %4, i64 0, i64 1
  %5 = icmp eq i64 %_2, 0
  br i1 %5, label %bb1, label %bb2

bb1:                                              ; preds = %bb2, %start
  ret void

bb2:                                              ; preds = %start
; call core::ptr::drop_in_place<alloc::sync::Arc<dyn core::ops::function::Fn<(aster_time::clocksource::Instant,u64)>+Output = ()+core::marker::Sync+core::marker::Send>>
  call void @"_ZN4core3ptr210drop_in_place$LT$alloc..sync..Arc$LT$dyn$u20$core..ops..function..Fn$LT$$LP$aster_time..clocksource..Instant$C$u64$RP$$GT$$u2b$Output$u20$$u3d$$u20$$LP$$RP$$u2b$core..marker..Sync$u2b$core..marker..Send$GT$$GT$17h1badb9c884dce31cE"(ptr align 8 %_1)
  br label %bb1
}

; core::ptr::drop_in_place<std::sync::poison::mutex::MutexGuard<alloc::vec::Vec<alloc::boxed::Box<dyn core::ops::function::Fn<()>+Output = ()+core::marker::Sync+core::marker::Send>>>>
; Function Attrs: nonlazybind uwtable
define void @"_ZN4core3ptr240drop_in_place$LT$std..sync..poison..mutex..MutexGuard$LT$alloc..vec..Vec$LT$alloc..boxed..Box$LT$dyn$u20$core..ops..function..Fn$LT$$LP$$RP$$GT$$u2b$Output$u20$$u3d$$u20$$LP$$RP$$u2b$core..marker..Sync$u2b$core..marker..Send$GT$$GT$$GT$$GT$17h3786e0ae408e850bE"(ptr align 8 %_1) unnamed_addr #1 {
start:
; call <std::sync::poison::mutex::MutexGuard<T> as core::ops::drop::Drop>::drop
  call void @"_ZN87_$LT$std..sync..poison..mutex..MutexGuard$LT$T$GT$$u20$as$u20$core..ops..drop..Drop$GT$4drop17h37e0be677f6ec4e7E"(ptr align 8 %_1)
  ret void
}

; core::ptr::drop_in_place<once_cell::imp::OnceCell<alloc::sync::Arc<dyn core::ops::function::Fn<(aster_time::clocksource::Instant,u64)>+Output = ()+core::marker::Sync+core::marker::Send>>>
; Function Attrs: nonlazybind uwtable
define void @"_ZN4core3ptr242drop_in_place$LT$once_cell..imp..OnceCell$LT$alloc..sync..Arc$LT$dyn$u20$core..ops..function..Fn$LT$$LP$aster_time..clocksource..Instant$C$u64$RP$$GT$$u2b$Output$u20$$u3d$$u20$$LP$$RP$$u2b$core..marker..Sync$u2b$core..marker..Send$GT$$GT$$GT$17h477d6e9474e7574eE"(ptr align 8 %_1) unnamed_addr #1 {
start:
; call core::ptr::drop_in_place<core::cell::UnsafeCell<core::option::Option<alloc::sync::Arc<dyn core::ops::function::Fn<(aster_time::clocksource::Instant,u64)>+Output = ()+core::marker::Sync+core::marker::Send>>>>
  call void @"_ZN4core3ptr268drop_in_place$LT$core..cell..UnsafeCell$LT$core..option..Option$LT$alloc..sync..Arc$LT$dyn$u20$core..ops..function..Fn$LT$$LP$aster_time..clocksource..Instant$C$u64$RP$$GT$$u2b$Output$u20$$u3d$$u20$$LP$$RP$$u2b$core..marker..Sync$u2b$core..marker..Send$GT$$GT$$GT$$GT$17h520f0225c7c9ab17E"(ptr align 8 %_1)
  ret void
}

; core::ptr::drop_in_place<once_cell::sync::OnceCell<alloc::sync::Arc<dyn core::ops::function::Fn<(aster_time::clocksource::Instant,u64)>+Output = ()+core::marker::Sync+core::marker::Send>>>
; Function Attrs: nonlazybind uwtable
define void @"_ZN4core3ptr243drop_in_place$LT$once_cell..sync..OnceCell$LT$alloc..sync..Arc$LT$dyn$u20$core..ops..function..Fn$LT$$LP$aster_time..clocksource..Instant$C$u64$RP$$GT$$u2b$Output$u20$$u3d$$u20$$LP$$RP$$u2b$core..marker..Sync$u2b$core..marker..Send$GT$$GT$$GT$17h0ca53a74147ca2d5E"(ptr align 8 %_1) unnamed_addr #1 {
start:
; call core::ptr::drop_in_place<once_cell::imp::OnceCell<alloc::sync::Arc<dyn core::ops::function::Fn<(aster_time::clocksource::Instant,u64)>+Output = ()+core::marker::Sync+core::marker::Send>>>
  call void @"_ZN4core3ptr242drop_in_place$LT$once_cell..imp..OnceCell$LT$alloc..sync..Arc$LT$dyn$u20$core..ops..function..Fn$LT$$LP$aster_time..clocksource..Instant$C$u64$RP$$GT$$u2b$Output$u20$$u3d$$u20$$LP$$RP$$u2b$core..marker..Sync$u2b$core..marker..Send$GT$$GT$$GT$17h477d6e9474e7574eE"(ptr align 8 %_1)
  ret void
}

; core::ptr::drop_in_place<core::option::Option<std::sync::poison::mutex::Mutex<alloc::vec::Vec<alloc::boxed::Box<dyn core::ops::function::Fn<()>+Output = ()+core::marker::Sync+core::marker::Send>>>>>
; Function Attrs: nonlazybind uwtable
define void @"_ZN4core3ptr263drop_in_place$LT$core..option..Option$LT$std..sync..poison..mutex..Mutex$LT$alloc..vec..Vec$LT$alloc..boxed..Box$LT$dyn$u20$core..ops..function..Fn$LT$$LP$$RP$$GT$$u2b$Output$u20$$u3d$$u20$$LP$$RP$$u2b$core..marker..Sync$u2b$core..marker..Send$GT$$GT$$GT$$GT$$GT$17had6ae7ba0928268dE"(ptr align 8 %_1) unnamed_addr #1 {
start:
  %_2 = load i64, ptr %_1, align 8
  %0 = icmp eq i64 %_2, 0
  br i1 %0, label %bb1, label %bb2

bb1:                                              ; preds = %bb2, %start
  ret void

bb2:                                              ; preds = %start
  %1 = getelementptr inbounds i8, ptr %_1, i64 8
; call core::ptr::drop_in_place<std::sync::poison::mutex::Mutex<alloc::vec::Vec<alloc::boxed::Box<dyn core::ops::function::Fn<()>+Output = ()+core::marker::Sync+core::marker::Send>>>>
  call void @"_ZN4core3ptr235drop_in_place$LT$std..sync..poison..mutex..Mutex$LT$alloc..vec..Vec$LT$alloc..boxed..Box$LT$dyn$u20$core..ops..function..Fn$LT$$LP$$RP$$GT$$u2b$Output$u20$$u3d$$u20$$LP$$RP$$u2b$core..marker..Sync$u2b$core..marker..Send$GT$$GT$$GT$$GT$17h896eb36f57e7d9d6E"(ptr align 8 %1)
  br label %bb1
}

; core::ptr::drop_in_place<core::cell::UnsafeCell<core::option::Option<alloc::sync::Arc<dyn core::ops::function::Fn<(aster_time::clocksource::Instant,u64)>+Output = ()+core::marker::Sync+core::marker::Send>>>>
; Function Attrs: nonlazybind uwtable
define void @"_ZN4core3ptr268drop_in_place$LT$core..cell..UnsafeCell$LT$core..option..Option$LT$alloc..sync..Arc$LT$dyn$u20$core..ops..function..Fn$LT$$LP$aster_time..clocksource..Instant$C$u64$RP$$GT$$u2b$Output$u20$$u3d$$u20$$LP$$RP$$u2b$core..marker..Sync$u2b$core..marker..Send$GT$$GT$$GT$$GT$17h520f0225c7c9ab17E"(ptr align 8 %_1) unnamed_addr #1 {
start:
; call core::ptr::drop_in_place<core::option::Option<alloc::sync::Arc<dyn core::ops::function::Fn<(aster_time::clocksource::Instant,u64)>+Output = ()+core::marker::Sync+core::marker::Send>>>
  call void @"_ZN4core3ptr238drop_in_place$LT$core..option..Option$LT$alloc..sync..Arc$LT$dyn$u20$core..ops..function..Fn$LT$$LP$aster_time..clocksource..Instant$C$u64$RP$$GT$$u2b$Output$u20$$u3d$$u20$$LP$$RP$$u2b$core..marker..Sync$u2b$core..marker..Send$GT$$GT$$GT$17h6ae5157314cbe500E"(ptr align 8 %_1)
  ret void
}

; core::ptr::drop_in_place<std::sync::poison::PoisonError<std::sync::poison::mutex::MutexGuard<alloc::vec::Vec<alloc::boxed::Box<dyn core::ops::function::Fn<()>+Output = ()+core::marker::Sync+core::marker::Send>>>>>
; Function Attrs: nonlazybind uwtable
define void @"_ZN4core3ptr278drop_in_place$LT$std..sync..poison..PoisonError$LT$std..sync..poison..mutex..MutexGuard$LT$alloc..vec..Vec$LT$alloc..boxed..Box$LT$dyn$u20$core..ops..function..Fn$LT$$LP$$RP$$GT$$u2b$Output$u20$$u3d$$u20$$LP$$RP$$u2b$core..marker..Sync$u2b$core..marker..Send$GT$$GT$$GT$$GT$$GT$17he94139f03af93455E"(ptr align 8 %_1) unnamed_addr #1 {
start:
; call core::ptr::drop_in_place<std::sync::poison::mutex::MutexGuard<alloc::vec::Vec<alloc::boxed::Box<dyn core::ops::function::Fn<()>+Output = ()+core::marker::Sync+core::marker::Send>>>>
  call void @"_ZN4core3ptr240drop_in_place$LT$std..sync..poison..mutex..MutexGuard$LT$alloc..vec..Vec$LT$alloc..boxed..Box$LT$dyn$u20$core..ops..function..Fn$LT$$LP$$RP$$GT$$u2b$Output$u20$$u3d$$u20$$LP$$RP$$u2b$core..marker..Sync$u2b$core..marker..Send$GT$$GT$$GT$$GT$17h3786e0ae408e850bE"(ptr align 8 %_1)
  ret void
}

; core::ptr::drop_in_place<aster_time::clocksource::ClockSource>
; Function Attrs: nonlazybind uwtable
define void @"_ZN4core3ptr57drop_in_place$LT$aster_time..clocksource..ClockSource$GT$17ha750b08edb8d3056E"(ptr align 8 %_1) unnamed_addr #1 {
start:
; call core::ptr::drop_in_place<alloc::sync::Arc<dyn core::ops::function::Fn<()>+Output = u64+core::marker::Sync+core::marker::Send>>
  call void @"_ZN4core3ptr167drop_in_place$LT$alloc..sync..Arc$LT$dyn$u20$core..ops..function..Fn$LT$$LP$$RP$$GT$$u2b$Output$u20$$u3d$$u20$u64$u2b$core..marker..Sync$u2b$core..marker..Send$GT$$GT$17h3c314fcaaf62bb70E"(ptr align 8 %_1)
  ret void
}

; core::ptr::drop_in_place<alloc::sync::Arc<aster_time::clocksource::ClockSource>>
; Function Attrs: nonlazybind uwtable
define void @"_ZN4core3ptr81drop_in_place$LT$alloc..sync..Arc$LT$aster_time..clocksource..ClockSource$GT$$GT$17he5d3a60ef7deee52E"(ptr align 8 %_1) unnamed_addr #1 {
start:
; call <alloc::sync::Arc<T,A> as core::ops::drop::Drop>::drop
  call void @"_ZN71_$LT$alloc..sync..Arc$LT$T$C$A$GT$$u20$as$u20$core..ops..drop..Drop$GT$4drop17h892cbd92b18d7cb8E"(ptr align 8 %_1)
  ret void
}

; core::ptr::drop_in_place<alloc::sync::ArcInner<aster_time::clocksource::ClockSource>>
; Function Attrs: nonlazybind uwtable
define void @"_ZN4core3ptr86drop_in_place$LT$alloc..sync..ArcInner$LT$aster_time..clocksource..ClockSource$GT$$GT$17hd7ecb5e811adedb6E"(ptr align 8 %_1) unnamed_addr #1 {
start:
  %0 = getelementptr inbounds i8, ptr %_1, i64 16
; call core::ptr::drop_in_place<aster_time::clocksource::ClockSource>
  call void @"_ZN4core3ptr57drop_in_place$LT$aster_time..clocksource..ClockSource$GT$17ha750b08edb8d3056E"(ptr align 8 %0)
  ret void
}

; core::ptr::drop_in_place<std::sync::poison::mutex::MutexGuard<aster_time::SystemTime>>
; Function Attrs: nonlazybind uwtable
define void @"_ZN4core3ptr87drop_in_place$LT$std..sync..poison..mutex..MutexGuard$LT$aster_time..SystemTime$GT$$GT$17h4c37ef9fda9c10edE"(ptr align 8 %_1) unnamed_addr #1 {
start:
; call <std::sync::poison::mutex::MutexGuard<T> as core::ops::drop::Drop>::drop
  call void @"_ZN87_$LT$std..sync..poison..mutex..MutexGuard$LT$T$GT$$u20$as$u20$core..ops..drop..Drop$GT$4drop17h353b3d3511ba1550E"(ptr align 8 %_1)
  ret void
}

; core::ptr::non_null::NonNull<T>::new_unchecked::precondition_check
; Function Attrs: inlinehint nounwind nonlazybind uwtable
define internal void @"_ZN4core3ptr8non_null16NonNull$LT$T$GT$13new_unchecked18precondition_check17h1908d8c30a2aab75E"(ptr %ptr, ptr align 8 %0) unnamed_addr #3 {
start:
  %_5 = alloca [16 x i8], align 8
  %_3 = alloca [48 x i8], align 8
  %_6 = ptrtoint ptr %ptr to i64
  %1 = icmp eq i64 %_6, 0
  br i1 %1, label %bb1, label %bb2

bb1:                                              ; preds = %start
  %2 = getelementptr inbounds nuw { ptr, i64 }, ptr %_5, i64 0
  store ptr @alloc_560a59ed819b9d9a5841f6e731c4c8e5, ptr %2, align 8
  %3 = getelementptr inbounds i8, ptr %2, i64 8
  store i64 210, ptr %3, align 8
  store ptr %_5, ptr %_3, align 8
  %4 = getelementptr inbounds i8, ptr %_3, i64 8
  store i64 1, ptr %4, align 8
  %5 = load ptr, ptr @anon.8907c793926939c1a3db336f022d0871.0, align 8
  %6 = load i64, ptr getelementptr inbounds (i8, ptr @anon.8907c793926939c1a3db336f022d0871.0, i64 8), align 8
  %7 = getelementptr inbounds i8, ptr %_3, i64 32
  store ptr %5, ptr %7, align 8
  %8 = getelementptr inbounds i8, ptr %7, i64 8
  store i64 %6, ptr %8, align 8
  %9 = getelementptr inbounds i8, ptr %_3, i64 16
  store ptr inttoptr (i64 8 to ptr), ptr %9, align 8
  %10 = getelementptr inbounds i8, ptr %9, i64 8
  store i64 0, ptr %10, align 8
; call core::panicking::panic_nounwind_fmt
  call void @_ZN4core9panicking18panic_nounwind_fmt17h6c46f1098922b4b6E(ptr align 8 %_3, i1 zeroext false, ptr align 8 %0) #21
  unreachable

bb2:                                              ; preds = %start
  ret void
}

; core::ptr::drop_in_place<dyn aster_time::rtc::Driver+core::marker::Sync+core::marker::Send>
; Function Attrs: nonlazybind uwtable
define void @"_ZN4core3ptr98drop_in_place$LT$dyn$u20$aster_time..rtc..Driver$u2b$core..marker..Sync$u2b$core..marker..Send$GT$17h1d9569381df1e557E"(ptr align 1 %_1.0, ptr align 8 %_1.1) unnamed_addr #1 {
start:
  %0 = getelementptr inbounds i8, ptr %_1.1, i64 0
  %1 = load ptr, ptr %0, align 8, !invariant.load !3
  %2 = icmp ne ptr %1, null
  br i1 %2, label %is_not_null, label %bb1

is_not_null:                                      ; preds = %start
  call void %1(ptr %_1.0)
  br label %bb1

bb1:                                              ; preds = %is_not_null, %start
  ret void
}

; core::sync::atomic::atomic_load
; Function Attrs: inlinehint nonlazybind uwtable
define i64 @_ZN4core4sync6atomic11atomic_load17h1308712063b9c2a8E(ptr %dst, i8 %order) unnamed_addr #0 {
start:
  %_7 = alloca [48 x i8], align 8
  %_5 = alloca [48 x i8], align 8
  %_0 = alloca [8 x i8], align 8
  %_3 = zext i8 %order to i64
  switch i64 %_3, label %bb1 [
    i64 0, label %bb6
    i64 1, label %bb3
    i64 2, label %bb5
    i64 3, label %bb2
    i64 4, label %bb4
  ]

bb1:                                              ; preds = %start
  unreachable

bb6:                                              ; preds = %start
  %0 = load atomic i64, ptr %dst monotonic, align 8
  store i64 %0, ptr %_0, align 8
  br label %bb7

bb3:                                              ; preds = %start
  store ptr @alloc_b55f69a00b865c3d8c5f6dad0122f5bd, ptr %_5, align 8
  %1 = getelementptr inbounds i8, ptr %_5, i64 8
  store i64 1, ptr %1, align 8
  %2 = load ptr, ptr @anon.8907c793926939c1a3db336f022d0871.0, align 8
  %3 = load i64, ptr getelementptr inbounds (i8, ptr @anon.8907c793926939c1a3db336f022d0871.0, i64 8), align 8
  %4 = getelementptr inbounds i8, ptr %_5, i64 32
  store ptr %2, ptr %4, align 8
  %5 = getelementptr inbounds i8, ptr %4, i64 8
  store i64 %3, ptr %5, align 8
  %6 = getelementptr inbounds i8, ptr %_5, i64 16
  store ptr inttoptr (i64 8 to ptr), ptr %6, align 8
  %7 = getelementptr inbounds i8, ptr %6, i64 8
  store i64 0, ptr %7, align 8
; call core::panicking::panic_fmt
  call void @_ZN4core9panicking9panic_fmt17h62f63d096dd276afE(ptr align 8 %_5, ptr align 8 @alloc_051df5c34fb432954f01ba2e7c186720) #22
  unreachable

bb5:                                              ; preds = %start
  %8 = load atomic i64, ptr %dst acquire, align 8
  store i64 %8, ptr %_0, align 8
  br label %bb7

bb2:                                              ; preds = %start
  store ptr @alloc_0175cc81e1f5c8f5b757d44420d81e68, ptr %_7, align 8
  %9 = getelementptr inbounds i8, ptr %_7, i64 8
  store i64 1, ptr %9, align 8
  %10 = load ptr, ptr @anon.8907c793926939c1a3db336f022d0871.0, align 8
  %11 = load i64, ptr getelementptr inbounds (i8, ptr @anon.8907c793926939c1a3db336f022d0871.0, i64 8), align 8
  %12 = getelementptr inbounds i8, ptr %_7, i64 32
  store ptr %10, ptr %12, align 8
  %13 = getelementptr inbounds i8, ptr %12, i64 8
  store i64 %11, ptr %13, align 8
  %14 = getelementptr inbounds i8, ptr %_7, i64 16
  store ptr inttoptr (i64 8 to ptr), ptr %14, align 8
  %15 = getelementptr inbounds i8, ptr %14, i64 8
  store i64 0, ptr %15, align 8
; call core::panicking::panic_fmt
  call void @_ZN4core9panicking9panic_fmt17h62f63d096dd276afE(ptr align 8 %_7, ptr align 8 @alloc_1ee8d1231eb862c691f94edb251ddd5e) #22
  unreachable

bb4:                                              ; preds = %start
  %16 = load atomic i64, ptr %dst seq_cst, align 8
  store i64 %16, ptr %_0, align 8
  br label %bb7

bb7:                                              ; preds = %bb4, %bb5, %bb6
  %17 = load i64, ptr %_0, align 8
  ret i64 %17
}

; core::sync::atomic::atomic_load
; Function Attrs: inlinehint nonlazybind uwtable
define ptr @_ZN4core4sync6atomic11atomic_load17h3216bb0246ff1b34E(ptr %dst, i8 %order) unnamed_addr #0 {
start:
  %_7 = alloca [48 x i8], align 8
  %_5 = alloca [48 x i8], align 8
  %_0 = alloca [8 x i8], align 8
  %_3 = zext i8 %order to i64
  switch i64 %_3, label %bb1 [
    i64 0, label %bb6
    i64 1, label %bb3
    i64 2, label %bb5
    i64 3, label %bb2
    i64 4, label %bb4
  ]

bb1:                                              ; preds = %start
  unreachable

bb6:                                              ; preds = %start
  %0 = load atomic ptr, ptr %dst monotonic, align 8
  store ptr %0, ptr %_0, align 8
  br label %bb7

bb3:                                              ; preds = %start
  store ptr @alloc_b55f69a00b865c3d8c5f6dad0122f5bd, ptr %_5, align 8
  %1 = getelementptr inbounds i8, ptr %_5, i64 8
  store i64 1, ptr %1, align 8
  %2 = load ptr, ptr @anon.8907c793926939c1a3db336f022d0871.0, align 8
  %3 = load i64, ptr getelementptr inbounds (i8, ptr @anon.8907c793926939c1a3db336f022d0871.0, i64 8), align 8
  %4 = getelementptr inbounds i8, ptr %_5, i64 32
  store ptr %2, ptr %4, align 8
  %5 = getelementptr inbounds i8, ptr %4, i64 8
  store i64 %3, ptr %5, align 8
  %6 = getelementptr inbounds i8, ptr %_5, i64 16
  store ptr inttoptr (i64 8 to ptr), ptr %6, align 8
  %7 = getelementptr inbounds i8, ptr %6, i64 8
  store i64 0, ptr %7, align 8
; call core::panicking::panic_fmt
  call void @_ZN4core9panicking9panic_fmt17h62f63d096dd276afE(ptr align 8 %_5, ptr align 8 @alloc_051df5c34fb432954f01ba2e7c186720) #22
  unreachable

bb5:                                              ; preds = %start
  %8 = load atomic ptr, ptr %dst acquire, align 8
  store ptr %8, ptr %_0, align 8
  br label %bb7

bb2:                                              ; preds = %start
  store ptr @alloc_0175cc81e1f5c8f5b757d44420d81e68, ptr %_7, align 8
  %9 = getelementptr inbounds i8, ptr %_7, i64 8
  store i64 1, ptr %9, align 8
  %10 = load ptr, ptr @anon.8907c793926939c1a3db336f022d0871.0, align 8
  %11 = load i64, ptr getelementptr inbounds (i8, ptr @anon.8907c793926939c1a3db336f022d0871.0, i64 8), align 8
  %12 = getelementptr inbounds i8, ptr %_7, i64 32
  store ptr %10, ptr %12, align 8
  %13 = getelementptr inbounds i8, ptr %12, i64 8
  store i64 %11, ptr %13, align 8
  %14 = getelementptr inbounds i8, ptr %_7, i64 16
  store ptr inttoptr (i64 8 to ptr), ptr %14, align 8
  %15 = getelementptr inbounds i8, ptr %14, i64 8
  store i64 0, ptr %15, align 8
; call core::panicking::panic_fmt
  call void @_ZN4core9panicking9panic_fmt17h62f63d096dd276afE(ptr align 8 %_7, ptr align 8 @alloc_1ee8d1231eb862c691f94edb251ddd5e) #22
  unreachable

bb4:                                              ; preds = %start
  %16 = load atomic ptr, ptr %dst seq_cst, align 8
  store ptr %16, ptr %_0, align 8
  br label %bb7

bb7:                                              ; preds = %bb4, %bb5, %bb6
  %17 = load ptr, ptr %_0, align 8
  ret ptr %17
}

; core::sync::atomic::atomic_load
; Function Attrs: inlinehint nonlazybind uwtable
define i32 @_ZN4core4sync6atomic11atomic_load17hbf52c7da49f67ed9E(ptr %dst, i8 %order) unnamed_addr #0 {
start:
  %_7 = alloca [48 x i8], align 8
  %_5 = alloca [48 x i8], align 8
  %_0 = alloca [4 x i8], align 4
  %_3 = zext i8 %order to i64
  switch i64 %_3, label %bb1 [
    i64 0, label %bb6
    i64 1, label %bb3
    i64 2, label %bb5
    i64 3, label %bb2
    i64 4, label %bb4
  ]

bb1:                                              ; preds = %start
  unreachable

bb6:                                              ; preds = %start
  %0 = load atomic i32, ptr %dst monotonic, align 4
  store i32 %0, ptr %_0, align 4
  br label %bb7

bb3:                                              ; preds = %start
  store ptr @alloc_b55f69a00b865c3d8c5f6dad0122f5bd, ptr %_5, align 8
  %1 = getelementptr inbounds i8, ptr %_5, i64 8
  store i64 1, ptr %1, align 8
  %2 = load ptr, ptr @anon.8907c793926939c1a3db336f022d0871.0, align 8
  %3 = load i64, ptr getelementptr inbounds (i8, ptr @anon.8907c793926939c1a3db336f022d0871.0, i64 8), align 8
  %4 = getelementptr inbounds i8, ptr %_5, i64 32
  store ptr %2, ptr %4, align 8
  %5 = getelementptr inbounds i8, ptr %4, i64 8
  store i64 %3, ptr %5, align 8
  %6 = getelementptr inbounds i8, ptr %_5, i64 16
  store ptr inttoptr (i64 8 to ptr), ptr %6, align 8
  %7 = getelementptr inbounds i8, ptr %6, i64 8
  store i64 0, ptr %7, align 8
; call core::panicking::panic_fmt
  call void @_ZN4core9panicking9panic_fmt17h62f63d096dd276afE(ptr align 8 %_5, ptr align 8 @alloc_051df5c34fb432954f01ba2e7c186720) #22
  unreachable

bb5:                                              ; preds = %start
  %8 = load atomic i32, ptr %dst acquire, align 4
  store i32 %8, ptr %_0, align 4
  br label %bb7

bb2:                                              ; preds = %start
  store ptr @alloc_0175cc81e1f5c8f5b757d44420d81e68, ptr %_7, align 8
  %9 = getelementptr inbounds i8, ptr %_7, i64 8
  store i64 1, ptr %9, align 8
  %10 = load ptr, ptr @anon.8907c793926939c1a3db336f022d0871.0, align 8
  %11 = load i64, ptr getelementptr inbounds (i8, ptr @anon.8907c793926939c1a3db336f022d0871.0, i64 8), align 8
  %12 = getelementptr inbounds i8, ptr %_7, i64 32
  store ptr %10, ptr %12, align 8
  %13 = getelementptr inbounds i8, ptr %12, i64 8
  store i64 %11, ptr %13, align 8
  %14 = getelementptr inbounds i8, ptr %_7, i64 16
  store ptr inttoptr (i64 8 to ptr), ptr %14, align 8
  %15 = getelementptr inbounds i8, ptr %14, i64 8
  store i64 0, ptr %15, align 8
; call core::panicking::panic_fmt
  call void @_ZN4core9panicking9panic_fmt17h62f63d096dd276afE(ptr align 8 %_7, ptr align 8 @alloc_1ee8d1231eb862c691f94edb251ddd5e) #22
  unreachable

bb4:                                              ; preds = %start
  %16 = load atomic i32, ptr %dst seq_cst, align 4
  store i32 %16, ptr %_0, align 4
  br label %bb7

bb7:                                              ; preds = %bb4, %bb5, %bb6
  %17 = load i32, ptr %_0, align 4
  ret i32 %17
}

; core::sync::atomic::atomic_load
; Function Attrs: inlinehint nonlazybind uwtable
define i8 @_ZN4core4sync6atomic11atomic_load17he8828ea078801ea3E(ptr %dst, i8 %order) unnamed_addr #0 {
start:
  %_7 = alloca [48 x i8], align 8
  %_5 = alloca [48 x i8], align 8
  %_0 = alloca [1 x i8], align 1
  %_3 = zext i8 %order to i64
  switch i64 %_3, label %bb1 [
    i64 0, label %bb6
    i64 1, label %bb3
    i64 2, label %bb5
    i64 3, label %bb2
    i64 4, label %bb4
  ]

bb1:                                              ; preds = %start
  unreachable

bb6:                                              ; preds = %start
  %0 = load atomic i8, ptr %dst monotonic, align 1
  store i8 %0, ptr %_0, align 1
  br label %bb7

bb3:                                              ; preds = %start
  store ptr @alloc_b55f69a00b865c3d8c5f6dad0122f5bd, ptr %_5, align 8
  %1 = getelementptr inbounds i8, ptr %_5, i64 8
  store i64 1, ptr %1, align 8
  %2 = load ptr, ptr @anon.8907c793926939c1a3db336f022d0871.0, align 8
  %3 = load i64, ptr getelementptr inbounds (i8, ptr @anon.8907c793926939c1a3db336f022d0871.0, i64 8), align 8
  %4 = getelementptr inbounds i8, ptr %_5, i64 32
  store ptr %2, ptr %4, align 8
  %5 = getelementptr inbounds i8, ptr %4, i64 8
  store i64 %3, ptr %5, align 8
  %6 = getelementptr inbounds i8, ptr %_5, i64 16
  store ptr inttoptr (i64 8 to ptr), ptr %6, align 8
  %7 = getelementptr inbounds i8, ptr %6, i64 8
  store i64 0, ptr %7, align 8
; call core::panicking::panic_fmt
  call void @_ZN4core9panicking9panic_fmt17h62f63d096dd276afE(ptr align 8 %_5, ptr align 8 @alloc_051df5c34fb432954f01ba2e7c186720) #22
  unreachable

bb5:                                              ; preds = %start
  %8 = load atomic i8, ptr %dst acquire, align 1
  store i8 %8, ptr %_0, align 1
  br label %bb7

bb2:                                              ; preds = %start
  store ptr @alloc_0175cc81e1f5c8f5b757d44420d81e68, ptr %_7, align 8
  %9 = getelementptr inbounds i8, ptr %_7, i64 8
  store i64 1, ptr %9, align 8
  %10 = load ptr, ptr @anon.8907c793926939c1a3db336f022d0871.0, align 8
  %11 = load i64, ptr getelementptr inbounds (i8, ptr @anon.8907c793926939c1a3db336f022d0871.0, i64 8), align 8
  %12 = getelementptr inbounds i8, ptr %_7, i64 32
  store ptr %10, ptr %12, align 8
  %13 = getelementptr inbounds i8, ptr %12, i64 8
  store i64 %11, ptr %13, align 8
  %14 = getelementptr inbounds i8, ptr %_7, i64 16
  store ptr inttoptr (i64 8 to ptr), ptr %14, align 8
  %15 = getelementptr inbounds i8, ptr %14, i64 8
  store i64 0, ptr %15, align 8
; call core::panicking::panic_fmt
  call void @_ZN4core9panicking9panic_fmt17h62f63d096dd276afE(ptr align 8 %_7, ptr align 8 @alloc_1ee8d1231eb862c691f94edb251ddd5e) #22
  unreachable

bb4:                                              ; preds = %start
  %16 = load atomic i8, ptr %dst seq_cst, align 1
  store i8 %16, ptr %_0, align 1
  br label %bb7

bb7:                                              ; preds = %bb4, %bb5, %bb6
  %17 = load i8, ptr %_0, align 1
  ret i8 %17
}

; core::sync::atomic::atomic_store
; Function Attrs: inlinehint nonlazybind uwtable
define void @_ZN4core4sync6atomic12atomic_store17h846185b9baa0691cE(ptr %dst, i8 %val, i8 %order) unnamed_addr #0 {
start:
  %_8 = alloca [48 x i8], align 8
  %_6 = alloca [48 x i8], align 8
  %_4 = zext i8 %order to i64
  switch i64 %_4, label %bb1 [
    i64 0, label %bb6
    i64 1, label %bb5
    i64 2, label %bb3
    i64 3, label %bb2
    i64 4, label %bb4
  ]

bb1:                                              ; preds = %start
  unreachable

bb6:                                              ; preds = %start
  store atomic i8 %val, ptr %dst monotonic, align 1
  br label %bb7

bb5:                                              ; preds = %start
  store atomic i8 %val, ptr %dst release, align 1
  br label %bb7

bb3:                                              ; preds = %start
  store ptr @alloc_d30e09dd75f4c40be0845475870856e6, ptr %_6, align 8
  %0 = getelementptr inbounds i8, ptr %_6, i64 8
  store i64 1, ptr %0, align 8
  %1 = load ptr, ptr @anon.8907c793926939c1a3db336f022d0871.0, align 8
  %2 = load i64, ptr getelementptr inbounds (i8, ptr @anon.8907c793926939c1a3db336f022d0871.0, i64 8), align 8
  %3 = getelementptr inbounds i8, ptr %_6, i64 32
  store ptr %1, ptr %3, align 8
  %4 = getelementptr inbounds i8, ptr %3, i64 8
  store i64 %2, ptr %4, align 8
  %5 = getelementptr inbounds i8, ptr %_6, i64 16
  store ptr inttoptr (i64 8 to ptr), ptr %5, align 8
  %6 = getelementptr inbounds i8, ptr %5, i64 8
  store i64 0, ptr %6, align 8
; call core::panicking::panic_fmt
  call void @_ZN4core9panicking9panic_fmt17h62f63d096dd276afE(ptr align 8 %_6, ptr align 8 @alloc_aa49003fd1a847a460eb9b581ac263f6) #22
  unreachable

bb2:                                              ; preds = %start
  store ptr @alloc_9b1e61e0572571d4b583b134cc9efd32, ptr %_8, align 8
  %7 = getelementptr inbounds i8, ptr %_8, i64 8
  store i64 1, ptr %7, align 8
  %8 = load ptr, ptr @anon.8907c793926939c1a3db336f022d0871.0, align 8
  %9 = load i64, ptr getelementptr inbounds (i8, ptr @anon.8907c793926939c1a3db336f022d0871.0, i64 8), align 8
  %10 = getelementptr inbounds i8, ptr %_8, i64 32
  store ptr %8, ptr %10, align 8
  %11 = getelementptr inbounds i8, ptr %10, i64 8
  store i64 %9, ptr %11, align 8
  %12 = getelementptr inbounds i8, ptr %_8, i64 16
  store ptr inttoptr (i64 8 to ptr), ptr %12, align 8
  %13 = getelementptr inbounds i8, ptr %12, i64 8
  store i64 0, ptr %13, align 8
; call core::panicking::panic_fmt
  call void @_ZN4core9panicking9panic_fmt17h62f63d096dd276afE(ptr align 8 %_8, ptr align 8 @alloc_a683a46c669a4520b8eaf0cb50f8a1e4) #22
  unreachable

bb4:                                              ; preds = %start
  store atomic i8 %val, ptr %dst seq_cst, align 1
  br label %bb7

bb7:                                              ; preds = %bb4, %bb5, %bb6
  ret void
}

; core::sync::atomic::atomic_compare_exchange
; Function Attrs: inlinehint nonlazybind uwtable
define { i32, i32 } @_ZN4core4sync6atomic23atomic_compare_exchange17h9fe39060f238dc35E(ptr %dst, i32 %old, i32 %new, i8 %success, i8 %failure) unnamed_addr #0 {
start:
  %_19 = alloca [48 x i8], align 8
  %_17 = alloca [48 x i8], align 8
  %_8 = alloca [8 x i8], align 4
  %_0 = alloca [8 x i8], align 4
  %_14 = zext i8 %success to i64
  switch i64 %_14, label %bb7 [
    i64 0, label %bb2
    i64 1, label %bb4
    i64 2, label %bb3
    i64 3, label %bb5
    i64 4, label %bb6
  ]

bb7:                                              ; preds = %start
  unreachable

bb2:                                              ; preds = %start
  %_9 = zext i8 %failure to i64
  switch i64 %_9, label %bb1 [
    i64 0, label %bb24
    i64 2, label %bb23
    i64 4, label %bb22
  ]

bb4:                                              ; preds = %start
  %_11 = zext i8 %failure to i64
  switch i64 %_11, label %bb1 [
    i64 0, label %bb18
    i64 2, label %bb17
    i64 4, label %bb16
  ]

bb3:                                              ; preds = %start
  %_10 = zext i8 %failure to i64
  switch i64 %_10, label %bb1 [
    i64 0, label %bb21
    i64 2, label %bb20
    i64 4, label %bb19
  ]

bb5:                                              ; preds = %start
  %_12 = zext i8 %failure to i64
  switch i64 %_12, label %bb1 [
    i64 0, label %bb15
    i64 2, label %bb14
    i64 4, label %bb13
  ]

bb6:                                              ; preds = %start
  %_13 = zext i8 %failure to i64
  switch i64 %_13, label %bb1 [
    i64 0, label %bb12
    i64 2, label %bb11
    i64 4, label %bb10
  ]

bb1:                                              ; preds = %bb6, %bb5, %bb3, %bb4, %bb2
  %_15 = zext i8 %failure to i64
  %0 = icmp eq i64 %_15, 1
  br i1 %0, label %bb8, label %bb9

bb24:                                             ; preds = %bb2
  %1 = cmpxchg ptr %dst, i32 %old, i32 %new monotonic monotonic, align 4
  %2 = extractvalue { i32, i1 } %1, 0
  %3 = extractvalue { i32, i1 } %1, 1
  %4 = zext i1 %3 to i8
  store i32 %2, ptr %_8, align 4
  %5 = getelementptr inbounds i8, ptr %_8, i64 4
  store i8 %4, ptr %5, align 4
  br label %bb25

bb23:                                             ; preds = %bb2
  %6 = cmpxchg ptr %dst, i32 %old, i32 %new monotonic acquire, align 4
  %7 = extractvalue { i32, i1 } %6, 0
  %8 = extractvalue { i32, i1 } %6, 1
  %9 = zext i1 %8 to i8
  store i32 %7, ptr %_8, align 4
  %10 = getelementptr inbounds i8, ptr %_8, i64 4
  store i8 %9, ptr %10, align 4
  br label %bb25

bb22:                                             ; preds = %bb2
  %11 = cmpxchg ptr %dst, i32 %old, i32 %new monotonic seq_cst, align 4
  %12 = extractvalue { i32, i1 } %11, 0
  %13 = extractvalue { i32, i1 } %11, 1
  %14 = zext i1 %13 to i8
  store i32 %12, ptr %_8, align 4
  %15 = getelementptr inbounds i8, ptr %_8, i64 4
  store i8 %14, ptr %15, align 4
  br label %bb25

bb25:                                             ; preds = %bb10, %bb11, %bb12, %bb13, %bb14, %bb15, %bb19, %bb20, %bb21, %bb16, %bb17, %bb18, %bb22, %bb23, %bb24
  %val = load i32, ptr %_8, align 4
  %16 = getelementptr inbounds i8, ptr %_8, i64 4
  %17 = load i8, ptr %16, align 4
  %ok = trunc nuw i8 %17 to i1
  br i1 %ok, label %bb26, label %bb27

bb18:                                             ; preds = %bb4
  %18 = cmpxchg ptr %dst, i32 %old, i32 %new release monotonic, align 4
  %19 = extractvalue { i32, i1 } %18, 0
  %20 = extractvalue { i32, i1 } %18, 1
  %21 = zext i1 %20 to i8
  store i32 %19, ptr %_8, align 4
  %22 = getelementptr inbounds i8, ptr %_8, i64 4
  store i8 %21, ptr %22, align 4
  br label %bb25

bb17:                                             ; preds = %bb4
  %23 = cmpxchg ptr %dst, i32 %old, i32 %new release acquire, align 4
  %24 = extractvalue { i32, i1 } %23, 0
  %25 = extractvalue { i32, i1 } %23, 1
  %26 = zext i1 %25 to i8
  store i32 %24, ptr %_8, align 4
  %27 = getelementptr inbounds i8, ptr %_8, i64 4
  store i8 %26, ptr %27, align 4
  br label %bb25

bb16:                                             ; preds = %bb4
  %28 = cmpxchg ptr %dst, i32 %old, i32 %new release seq_cst, align 4
  %29 = extractvalue { i32, i1 } %28, 0
  %30 = extractvalue { i32, i1 } %28, 1
  %31 = zext i1 %30 to i8
  store i32 %29, ptr %_8, align 4
  %32 = getelementptr inbounds i8, ptr %_8, i64 4
  store i8 %31, ptr %32, align 4
  br label %bb25

bb21:                                             ; preds = %bb3
  %33 = cmpxchg ptr %dst, i32 %old, i32 %new acquire monotonic, align 4
  %34 = extractvalue { i32, i1 } %33, 0
  %35 = extractvalue { i32, i1 } %33, 1
  %36 = zext i1 %35 to i8
  store i32 %34, ptr %_8, align 4
  %37 = getelementptr inbounds i8, ptr %_8, i64 4
  store i8 %36, ptr %37, align 4
  br label %bb25

bb20:                                             ; preds = %bb3
  %38 = cmpxchg ptr %dst, i32 %old, i32 %new acquire acquire, align 4
  %39 = extractvalue { i32, i1 } %38, 0
  %40 = extractvalue { i32, i1 } %38, 1
  %41 = zext i1 %40 to i8
  store i32 %39, ptr %_8, align 4
  %42 = getelementptr inbounds i8, ptr %_8, i64 4
  store i8 %41, ptr %42, align 4
  br label %bb25

bb19:                                             ; preds = %bb3
  %43 = cmpxchg ptr %dst, i32 %old, i32 %new acquire seq_cst, align 4
  %44 = extractvalue { i32, i1 } %43, 0
  %45 = extractvalue { i32, i1 } %43, 1
  %46 = zext i1 %45 to i8
  store i32 %44, ptr %_8, align 4
  %47 = getelementptr inbounds i8, ptr %_8, i64 4
  store i8 %46, ptr %47, align 4
  br label %bb25

bb15:                                             ; preds = %bb5
  %48 = cmpxchg ptr %dst, i32 %old, i32 %new acq_rel monotonic, align 4
  %49 = extractvalue { i32, i1 } %48, 0
  %50 = extractvalue { i32, i1 } %48, 1
  %51 = zext i1 %50 to i8
  store i32 %49, ptr %_8, align 4
  %52 = getelementptr inbounds i8, ptr %_8, i64 4
  store i8 %51, ptr %52, align 4
  br label %bb25

bb14:                                             ; preds = %bb5
  %53 = cmpxchg ptr %dst, i32 %old, i32 %new acq_rel acquire, align 4
  %54 = extractvalue { i32, i1 } %53, 0
  %55 = extractvalue { i32, i1 } %53, 1
  %56 = zext i1 %55 to i8
  store i32 %54, ptr %_8, align 4
  %57 = getelementptr inbounds i8, ptr %_8, i64 4
  store i8 %56, ptr %57, align 4
  br label %bb25

bb13:                                             ; preds = %bb5
  %58 = cmpxchg ptr %dst, i32 %old, i32 %new acq_rel seq_cst, align 4
  %59 = extractvalue { i32, i1 } %58, 0
  %60 = extractvalue { i32, i1 } %58, 1
  %61 = zext i1 %60 to i8
  store i32 %59, ptr %_8, align 4
  %62 = getelementptr inbounds i8, ptr %_8, i64 4
  store i8 %61, ptr %62, align 4
  br label %bb25

bb12:                                             ; preds = %bb6
  %63 = cmpxchg ptr %dst, i32 %old, i32 %new seq_cst monotonic, align 4
  %64 = extractvalue { i32, i1 } %63, 0
  %65 = extractvalue { i32, i1 } %63, 1
  %66 = zext i1 %65 to i8
  store i32 %64, ptr %_8, align 4
  %67 = getelementptr inbounds i8, ptr %_8, i64 4
  store i8 %66, ptr %67, align 4
  br label %bb25

bb11:                                             ; preds = %bb6
  %68 = cmpxchg ptr %dst, i32 %old, i32 %new seq_cst acquire, align 4
  %69 = extractvalue { i32, i1 } %68, 0
  %70 = extractvalue { i32, i1 } %68, 1
  %71 = zext i1 %70 to i8
  store i32 %69, ptr %_8, align 4
  %72 = getelementptr inbounds i8, ptr %_8, i64 4
  store i8 %71, ptr %72, align 4
  br label %bb25

bb10:                                             ; preds = %bb6
  %73 = cmpxchg ptr %dst, i32 %old, i32 %new seq_cst seq_cst, align 4
  %74 = extractvalue { i32, i1 } %73, 0
  %75 = extractvalue { i32, i1 } %73, 1
  %76 = zext i1 %75 to i8
  store i32 %74, ptr %_8, align 4
  %77 = getelementptr inbounds i8, ptr %_8, i64 4
  store i8 %76, ptr %77, align 4
  br label %bb25

bb27:                                             ; preds = %bb25
  %78 = getelementptr inbounds i8, ptr %_0, i64 4
  store i32 %val, ptr %78, align 4
  store i32 1, ptr %_0, align 4
  br label %bb28

bb26:                                             ; preds = %bb25
  %79 = getelementptr inbounds i8, ptr %_0, i64 4
  store i32 %val, ptr %79, align 4
  store i32 0, ptr %_0, align 4
  br label %bb28

bb28:                                             ; preds = %bb26, %bb27
  %80 = load i32, ptr %_0, align 4
  %81 = getelementptr inbounds i8, ptr %_0, i64 4
  %82 = load i32, ptr %81, align 4
  %83 = insertvalue { i32, i32 } poison, i32 %80, 0
  %84 = insertvalue { i32, i32 } %83, i32 %82, 1
  ret { i32, i32 } %84

bb8:                                              ; preds = %bb1
  store ptr @alloc_b47c3c138db72df57440b698ce0de72b, ptr %_19, align 8
  %85 = getelementptr inbounds i8, ptr %_19, i64 8
  store i64 1, ptr %85, align 8
  %86 = load ptr, ptr @anon.8907c793926939c1a3db336f022d0871.0, align 8
  %87 = load i64, ptr getelementptr inbounds (i8, ptr @anon.8907c793926939c1a3db336f022d0871.0, i64 8), align 8
  %88 = getelementptr inbounds i8, ptr %_19, i64 32
  store ptr %86, ptr %88, align 8
  %89 = getelementptr inbounds i8, ptr %88, i64 8
  store i64 %87, ptr %89, align 8
  %90 = getelementptr inbounds i8, ptr %_19, i64 16
  store ptr inttoptr (i64 8 to ptr), ptr %90, align 8
  %91 = getelementptr inbounds i8, ptr %90, i64 8
  store i64 0, ptr %91, align 8
; call core::panicking::panic_fmt
  call void @_ZN4core9panicking9panic_fmt17h62f63d096dd276afE(ptr align 8 %_19, ptr align 8 @alloc_0a5709e9425a08b17803d539bffb2f09) #22
  unreachable

bb9:                                              ; preds = %bb1
  store ptr @alloc_4b7098fb0dbb3761358123ff7e9428b1, ptr %_17, align 8
  %92 = getelementptr inbounds i8, ptr %_17, i64 8
  store i64 1, ptr %92, align 8
  %93 = load ptr, ptr @anon.8907c793926939c1a3db336f022d0871.0, align 8
  %94 = load i64, ptr getelementptr inbounds (i8, ptr @anon.8907c793926939c1a3db336f022d0871.0, i64 8), align 8
  %95 = getelementptr inbounds i8, ptr %_17, i64 32
  store ptr %93, ptr %95, align 8
  %96 = getelementptr inbounds i8, ptr %95, i64 8
  store i64 %94, ptr %96, align 8
  %97 = getelementptr inbounds i8, ptr %_17, i64 16
  store ptr inttoptr (i64 8 to ptr), ptr %97, align 8
  %98 = getelementptr inbounds i8, ptr %97, i64 8
  store i64 0, ptr %98, align 8
; call core::panicking::panic_fmt
  call void @_ZN4core9panicking9panic_fmt17h62f63d096dd276afE(ptr align 8 %_17, ptr align 8 @alloc_f17744615fd77d64d56ef23c881bf12c) #22
  unreachable
}

; core::sync::atomic::atomic_compare_exchange_weak
; Function Attrs: inlinehint nonlazybind uwtable
define { i32, i32 } @_ZN4core4sync6atomic28atomic_compare_exchange_weak17h4c07a82ba058abb3E(ptr %dst, i32 %old, i32 %new, i8 %success, i8 %failure) unnamed_addr #0 {
start:
  %_19 = alloca [48 x i8], align 8
  %_17 = alloca [48 x i8], align 8
  %_8 = alloca [8 x i8], align 4
  %_0 = alloca [8 x i8], align 4
  %_14 = zext i8 %success to i64
  switch i64 %_14, label %bb7 [
    i64 0, label %bb2
    i64 1, label %bb4
    i64 2, label %bb3
    i64 3, label %bb5
    i64 4, label %bb6
  ]

bb7:                                              ; preds = %start
  unreachable

bb2:                                              ; preds = %start
  %_9 = zext i8 %failure to i64
  switch i64 %_9, label %bb1 [
    i64 0, label %bb24
    i64 2, label %bb23
    i64 4, label %bb22
  ]

bb4:                                              ; preds = %start
  %_11 = zext i8 %failure to i64
  switch i64 %_11, label %bb1 [
    i64 0, label %bb18
    i64 2, label %bb17
    i64 4, label %bb16
  ]

bb3:                                              ; preds = %start
  %_10 = zext i8 %failure to i64
  switch i64 %_10, label %bb1 [
    i64 0, label %bb21
    i64 2, label %bb20
    i64 4, label %bb19
  ]

bb5:                                              ; preds = %start
  %_12 = zext i8 %failure to i64
  switch i64 %_12, label %bb1 [
    i64 0, label %bb15
    i64 2, label %bb14
    i64 4, label %bb13
  ]

bb6:                                              ; preds = %start
  %_13 = zext i8 %failure to i64
  switch i64 %_13, label %bb1 [
    i64 0, label %bb12
    i64 2, label %bb11
    i64 4, label %bb10
  ]

bb1:                                              ; preds = %bb6, %bb5, %bb3, %bb4, %bb2
  %_15 = zext i8 %failure to i64
  %0 = icmp eq i64 %_15, 1
  br i1 %0, label %bb8, label %bb9

bb24:                                             ; preds = %bb2
  %1 = cmpxchg weak ptr %dst, i32 %old, i32 %new monotonic monotonic, align 4
  %2 = extractvalue { i32, i1 } %1, 0
  %3 = extractvalue { i32, i1 } %1, 1
  %4 = zext i1 %3 to i8
  store i32 %2, ptr %_8, align 4
  %5 = getelementptr inbounds i8, ptr %_8, i64 4
  store i8 %4, ptr %5, align 4
  br label %bb25

bb23:                                             ; preds = %bb2
  %6 = cmpxchg weak ptr %dst, i32 %old, i32 %new monotonic acquire, align 4
  %7 = extractvalue { i32, i1 } %6, 0
  %8 = extractvalue { i32, i1 } %6, 1
  %9 = zext i1 %8 to i8
  store i32 %7, ptr %_8, align 4
  %10 = getelementptr inbounds i8, ptr %_8, i64 4
  store i8 %9, ptr %10, align 4
  br label %bb25

bb22:                                             ; preds = %bb2
  %11 = cmpxchg weak ptr %dst, i32 %old, i32 %new monotonic seq_cst, align 4
  %12 = extractvalue { i32, i1 } %11, 0
  %13 = extractvalue { i32, i1 } %11, 1
  %14 = zext i1 %13 to i8
  store i32 %12, ptr %_8, align 4
  %15 = getelementptr inbounds i8, ptr %_8, i64 4
  store i8 %14, ptr %15, align 4
  br label %bb25

bb25:                                             ; preds = %bb10, %bb11, %bb12, %bb13, %bb14, %bb15, %bb19, %bb20, %bb21, %bb16, %bb17, %bb18, %bb22, %bb23, %bb24
  %val = load i32, ptr %_8, align 4
  %16 = getelementptr inbounds i8, ptr %_8, i64 4
  %17 = load i8, ptr %16, align 4
  %ok = trunc nuw i8 %17 to i1
  br i1 %ok, label %bb26, label %bb27

bb18:                                             ; preds = %bb4
  %18 = cmpxchg weak ptr %dst, i32 %old, i32 %new release monotonic, align 4
  %19 = extractvalue { i32, i1 } %18, 0
  %20 = extractvalue { i32, i1 } %18, 1
  %21 = zext i1 %20 to i8
  store i32 %19, ptr %_8, align 4
  %22 = getelementptr inbounds i8, ptr %_8, i64 4
  store i8 %21, ptr %22, align 4
  br label %bb25

bb17:                                             ; preds = %bb4
  %23 = cmpxchg weak ptr %dst, i32 %old, i32 %new release acquire, align 4
  %24 = extractvalue { i32, i1 } %23, 0
  %25 = extractvalue { i32, i1 } %23, 1
  %26 = zext i1 %25 to i8
  store i32 %24, ptr %_8, align 4
  %27 = getelementptr inbounds i8, ptr %_8, i64 4
  store i8 %26, ptr %27, align 4
  br label %bb25

bb16:                                             ; preds = %bb4
  %28 = cmpxchg weak ptr %dst, i32 %old, i32 %new release seq_cst, align 4
  %29 = extractvalue { i32, i1 } %28, 0
  %30 = extractvalue { i32, i1 } %28, 1
  %31 = zext i1 %30 to i8
  store i32 %29, ptr %_8, align 4
  %32 = getelementptr inbounds i8, ptr %_8, i64 4
  store i8 %31, ptr %32, align 4
  br label %bb25

bb21:                                             ; preds = %bb3
  %33 = cmpxchg weak ptr %dst, i32 %old, i32 %new acquire monotonic, align 4
  %34 = extractvalue { i32, i1 } %33, 0
  %35 = extractvalue { i32, i1 } %33, 1
  %36 = zext i1 %35 to i8
  store i32 %34, ptr %_8, align 4
  %37 = getelementptr inbounds i8, ptr %_8, i64 4
  store i8 %36, ptr %37, align 4
  br label %bb25

bb20:                                             ; preds = %bb3
  %38 = cmpxchg weak ptr %dst, i32 %old, i32 %new acquire acquire, align 4
  %39 = extractvalue { i32, i1 } %38, 0
  %40 = extractvalue { i32, i1 } %38, 1
  %41 = zext i1 %40 to i8
  store i32 %39, ptr %_8, align 4
  %42 = getelementptr inbounds i8, ptr %_8, i64 4
  store i8 %41, ptr %42, align 4
  br label %bb25

bb19:                                             ; preds = %bb3
  %43 = cmpxchg weak ptr %dst, i32 %old, i32 %new acquire seq_cst, align 4
  %44 = extractvalue { i32, i1 } %43, 0
  %45 = extractvalue { i32, i1 } %43, 1
  %46 = zext i1 %45 to i8
  store i32 %44, ptr %_8, align 4
  %47 = getelementptr inbounds i8, ptr %_8, i64 4
  store i8 %46, ptr %47, align 4
  br label %bb25

bb15:                                             ; preds = %bb5
  %48 = cmpxchg weak ptr %dst, i32 %old, i32 %new acq_rel monotonic, align 4
  %49 = extractvalue { i32, i1 } %48, 0
  %50 = extractvalue { i32, i1 } %48, 1
  %51 = zext i1 %50 to i8
  store i32 %49, ptr %_8, align 4
  %52 = getelementptr inbounds i8, ptr %_8, i64 4
  store i8 %51, ptr %52, align 4
  br label %bb25

bb14:                                             ; preds = %bb5
  %53 = cmpxchg weak ptr %dst, i32 %old, i32 %new acq_rel acquire, align 4
  %54 = extractvalue { i32, i1 } %53, 0
  %55 = extractvalue { i32, i1 } %53, 1
  %56 = zext i1 %55 to i8
  store i32 %54, ptr %_8, align 4
  %57 = getelementptr inbounds i8, ptr %_8, i64 4
  store i8 %56, ptr %57, align 4
  br label %bb25

bb13:                                             ; preds = %bb5
  %58 = cmpxchg weak ptr %dst, i32 %old, i32 %new acq_rel seq_cst, align 4
  %59 = extractvalue { i32, i1 } %58, 0
  %60 = extractvalue { i32, i1 } %58, 1
  %61 = zext i1 %60 to i8
  store i32 %59, ptr %_8, align 4
  %62 = getelementptr inbounds i8, ptr %_8, i64 4
  store i8 %61, ptr %62, align 4
  br label %bb25

bb12:                                             ; preds = %bb6
  %63 = cmpxchg weak ptr %dst, i32 %old, i32 %new seq_cst monotonic, align 4
  %64 = extractvalue { i32, i1 } %63, 0
  %65 = extractvalue { i32, i1 } %63, 1
  %66 = zext i1 %65 to i8
  store i32 %64, ptr %_8, align 4
  %67 = getelementptr inbounds i8, ptr %_8, i64 4
  store i8 %66, ptr %67, align 4
  br label %bb25

bb11:                                             ; preds = %bb6
  %68 = cmpxchg weak ptr %dst, i32 %old, i32 %new seq_cst acquire, align 4
  %69 = extractvalue { i32, i1 } %68, 0
  %70 = extractvalue { i32, i1 } %68, 1
  %71 = zext i1 %70 to i8
  store i32 %69, ptr %_8, align 4
  %72 = getelementptr inbounds i8, ptr %_8, i64 4
  store i8 %71, ptr %72, align 4
  br label %bb25

bb10:                                             ; preds = %bb6
  %73 = cmpxchg weak ptr %dst, i32 %old, i32 %new seq_cst seq_cst, align 4
  %74 = extractvalue { i32, i1 } %73, 0
  %75 = extractvalue { i32, i1 } %73, 1
  %76 = zext i1 %75 to i8
  store i32 %74, ptr %_8, align 4
  %77 = getelementptr inbounds i8, ptr %_8, i64 4
  store i8 %76, ptr %77, align 4
  br label %bb25

bb27:                                             ; preds = %bb25
  %78 = getelementptr inbounds i8, ptr %_0, i64 4
  store i32 %val, ptr %78, align 4
  store i32 1, ptr %_0, align 4
  br label %bb28

bb26:                                             ; preds = %bb25
  %79 = getelementptr inbounds i8, ptr %_0, i64 4
  store i32 %val, ptr %79, align 4
  store i32 0, ptr %_0, align 4
  br label %bb28

bb28:                                             ; preds = %bb26, %bb27
  %80 = load i32, ptr %_0, align 4
  %81 = getelementptr inbounds i8, ptr %_0, i64 4
  %82 = load i32, ptr %81, align 4
  %83 = insertvalue { i32, i32 } poison, i32 %80, 0
  %84 = insertvalue { i32, i32 } %83, i32 %82, 1
  ret { i32, i32 } %84

bb8:                                              ; preds = %bb1
  store ptr @alloc_b47c3c138db72df57440b698ce0de72b, ptr %_19, align 8
  %85 = getelementptr inbounds i8, ptr %_19, i64 8
  store i64 1, ptr %85, align 8
  %86 = load ptr, ptr @anon.8907c793926939c1a3db336f022d0871.0, align 8
  %87 = load i64, ptr getelementptr inbounds (i8, ptr @anon.8907c793926939c1a3db336f022d0871.0, i64 8), align 8
  %88 = getelementptr inbounds i8, ptr %_19, i64 32
  store ptr %86, ptr %88, align 8
  %89 = getelementptr inbounds i8, ptr %88, i64 8
  store i64 %87, ptr %89, align 8
  %90 = getelementptr inbounds i8, ptr %_19, i64 16
  store ptr inttoptr (i64 8 to ptr), ptr %90, align 8
  %91 = getelementptr inbounds i8, ptr %90, i64 8
  store i64 0, ptr %91, align 8
; call core::panicking::panic_fmt
  call void @_ZN4core9panicking9panic_fmt17h62f63d096dd276afE(ptr align 8 %_19, ptr align 8 @alloc_4477689a373e3970b8033c6e73761af1) #22
  unreachable

bb9:                                              ; preds = %bb1
  store ptr @alloc_4b7098fb0dbb3761358123ff7e9428b1, ptr %_17, align 8
  %92 = getelementptr inbounds i8, ptr %_17, i64 8
  store i64 1, ptr %92, align 8
  %93 = load ptr, ptr @anon.8907c793926939c1a3db336f022d0871.0, align 8
  %94 = load i64, ptr getelementptr inbounds (i8, ptr @anon.8907c793926939c1a3db336f022d0871.0, i64 8), align 8
  %95 = getelementptr inbounds i8, ptr %_17, i64 32
  store ptr %93, ptr %95, align 8
  %96 = getelementptr inbounds i8, ptr %95, i64 8
  store i64 %94, ptr %96, align 8
  %97 = getelementptr inbounds i8, ptr %_17, i64 16
  store ptr inttoptr (i64 8 to ptr), ptr %97, align 8
  %98 = getelementptr inbounds i8, ptr %97, i64 8
  store i64 0, ptr %98, align 8
; call core::panicking::panic_fmt
  call void @_ZN4core9panicking9panic_fmt17h62f63d096dd276afE(ptr align 8 %_17, ptr align 8 @alloc_5db1bb9fdd4eec1ac2eb7129fc240d46) #22
  unreachable
}

; core::sync::atomic::AtomicU64::fetch_add
; Function Attrs: inlinehint nonlazybind uwtable
define internal i64 @_ZN4core4sync6atomic9AtomicU649fetch_add17h8ac1fc7a481d62e2E(ptr align 8 %self, i64 %val, i8 %order) unnamed_addr #0 {
start:
  %_0 = alloca [8 x i8], align 8
  %_7 = zext i8 %order to i64
  switch i64 %_7, label %bb2 [
    i64 0, label %bb7
    i64 1, label %bb5
    i64 2, label %bb6
    i64 3, label %bb4
    i64 4, label %bb3
  ]

bb2:                                              ; preds = %start
  unreachable

bb7:                                              ; preds = %start
  %0 = atomicrmw add ptr %self, i64 %val monotonic, align 8
  store i64 %0, ptr %_0, align 8
  br label %bb1

bb5:                                              ; preds = %start
  %1 = atomicrmw add ptr %self, i64 %val release, align 8
  store i64 %1, ptr %_0, align 8
  br label %bb1

bb6:                                              ; preds = %start
  %2 = atomicrmw add ptr %self, i64 %val acquire, align 8
  store i64 %2, ptr %_0, align 8
  br label %bb1

bb4:                                              ; preds = %start
  %3 = atomicrmw add ptr %self, i64 %val acq_rel, align 8
  store i64 %3, ptr %_0, align 8
  br label %bb1

bb3:                                              ; preds = %start
  %4 = atomicrmw add ptr %self, i64 %val seq_cst, align 8
  store i64 %4, ptr %_0, align 8
  br label %bb1

bb1:                                              ; preds = %bb3, %bb4, %bb6, %bb5, %bb7
  %5 = load i64, ptr %_0, align 8
  ret i64 %5
}

; core::time::Duration::from_nanos
; Function Attrs: inlinehint nonlazybind uwtable
define internal { i64, i32 } @_ZN4core4time8Duration10from_nanos17h85cf66175b72ee01E(i64 %nanos) unnamed_addr #0 {
start:
  %_2 = udiv i64 %nanos, 1000000000
  %_4 = urem i64 %nanos, 1000000000
  %_3 = trunc i64 %_4 to i32
  %0 = insertvalue { i64, i32 } poison, i64 %_2, 0
  %1 = insertvalue { i64, i32 } %0, i32 %_3, 1
  ret { i64, i32 } %1
}

; core::time::Duration::subsec_nanos
; Function Attrs: inlinehint nonlazybind uwtable
define internal i32 @_ZN4core4time8Duration12subsec_nanos17h80ae9f2104e9684dE(ptr align 8 %self) unnamed_addr #0 {
start:
  %0 = getelementptr inbounds i8, ptr %self, i64 8
  %_2 = load i32, ptr %0, align 8
  ret i32 %_2
}

; core::time::Duration::new
; Function Attrs: inlinehint nonlazybind uwtable
define internal { i64, i32 } @_ZN4core4time8Duration3new17h1088d0620b7e2801E(i64 %secs, i32 %nanos) unnamed_addr #0 {
start:
  %self = alloca [16 x i8], align 8
  %_0 = alloca [16 x i8], align 8
  %_3 = icmp ult i32 %nanos, 1000000000
  br i1 %_3, label %bb1, label %bb2

bb2:                                              ; preds = %start
  %_8 = udiv i32 %nanos, 1000000000
  %rhs = zext i32 %_8 to i64
  %0 = call { i64, i1 } @llvm.uadd.with.overflow.i64(i64 %secs, i64 %rhs)
  %_12.0 = extractvalue { i64, i1 } %0, 0
  %_12.1 = extractvalue { i64, i1 } %0, 1
  br i1 %_12.1, label %bb4, label %bb6

bb1:                                              ; preds = %start
  store i64 %secs, ptr %_0, align 8
  %1 = getelementptr inbounds i8, ptr %_0, i64 8
  store i32 %nanos, ptr %1, align 8
  br label %bb3

bb6:                                              ; preds = %bb2
  %_13 = add nuw i64 %secs, %rhs
  %2 = getelementptr inbounds i8, ptr %self, i64 8
  store i64 %_13, ptr %2, align 8
  store i64 1, ptr %self, align 8
  %3 = getelementptr inbounds i8, ptr %self, i64 8
  %secs1 = load i64, ptr %3, align 8
  %nanos2 = urem i32 %nanos, 1000000000
  store i64 %secs1, ptr %_0, align 8
  %4 = getelementptr inbounds i8, ptr %_0, i64 8
  store i32 %nanos2, ptr %4, align 8
  br label %bb3

bb4:                                              ; preds = %bb2
  %5 = load i64, ptr @anon.8907c793926939c1a3db336f022d0871.0, align 8
  %6 = load i64, ptr getelementptr inbounds (i8, ptr @anon.8907c793926939c1a3db336f022d0871.0, i64 8), align 8
  store i64 %5, ptr %self, align 8
  %7 = getelementptr inbounds i8, ptr %self, i64 8
  store i64 %6, ptr %7, align 8
; call core::option::expect_failed
  call void @_ZN4core6option13expect_failed17h091923fb77e757a1E(ptr align 1 @alloc_374c9df73b8540d3e9b0cfbfed1be08c, i64 25, ptr align 8 @alloc_ecc6c78d1b3e20e6cc12cd8f8d334271) #22
  unreachable

bb3:                                              ; preds = %bb1, %bb6
  %8 = load i64, ptr %_0, align 8
  %9 = getelementptr inbounds i8, ptr %_0, i64 8
  %10 = load i32, ptr %9, align 8
  %11 = insertvalue { i64, i32 } poison, i64 %8, 0
  %12 = insertvalue { i64, i32 } %11, i32 %10, 1
  ret { i64, i32 } %12
}

; core::time::Duration::as_secs
; Function Attrs: inlinehint nonlazybind uwtable
define internal i64 @_ZN4core4time8Duration7as_secs17heae564d0364a4ac5E(ptr align 8 %self) unnamed_addr #0 {
start:
  %_0 = load i64, ptr %self, align 8
  ret i64 %_0
}

; core::alloc::layout::Layout::from_size_align_unchecked::precondition_check
; Function Attrs: inlinehint nounwind nonlazybind uwtable
define internal void @_ZN4core5alloc6layout6Layout25from_size_align_unchecked18precondition_check17h7e03dcbef42f732eE(i64 %size, i64 %align, ptr align 8 %0) unnamed_addr #3 personality ptr @rust_eh_personality {
start:
  %_7 = alloca [16 x i8], align 8
  %_5 = alloca [48 x i8], align 8
; invoke core::alloc::layout::Layout::is_size_align_valid
  %_3 = invoke zeroext i1 @_ZN4core5alloc6layout6Layout19is_size_align_valid17h30b5efdcd11c8b50E(i64 %size, i64 %align)
          to label %bb1 unwind label %terminate

terminate:                                        ; preds = %start
  %1 = landingpad { ptr, i32 }
          filter [0 x ptr] zeroinitializer
; call core::panicking::panic_cannot_unwind
  call void @_ZN4core9panicking19panic_cannot_unwind17h864cccdfd8b0af98E() #20
  unreachable

bb1:                                              ; preds = %start
  br i1 %_3, label %bb2, label %bb3

bb3:                                              ; preds = %bb1
  %2 = getelementptr inbounds nuw { ptr, i64 }, ptr %_7, i64 0
  store ptr @alloc_1be5ea12ba708d9a11b6e93a7d387a75, ptr %2, align 8
  %3 = getelementptr inbounds i8, ptr %2, i64 8
  store i64 281, ptr %3, align 8
  store ptr %_7, ptr %_5, align 8
  %4 = getelementptr inbounds i8, ptr %_5, i64 8
  store i64 1, ptr %4, align 8
  %5 = load ptr, ptr @anon.8907c793926939c1a3db336f022d0871.0, align 8
  %6 = load i64, ptr getelementptr inbounds (i8, ptr @anon.8907c793926939c1a3db336f022d0871.0, i64 8), align 8
  %7 = getelementptr inbounds i8, ptr %_5, i64 32
  store ptr %5, ptr %7, align 8
  %8 = getelementptr inbounds i8, ptr %7, i64 8
  store i64 %6, ptr %8, align 8
  %9 = getelementptr inbounds i8, ptr %_5, i64 16
  store ptr inttoptr (i64 8 to ptr), ptr %9, align 8
  %10 = getelementptr inbounds i8, ptr %9, i64 8
  store i64 0, ptr %10, align 8
; call core::panicking::panic_nounwind_fmt
  call void @_ZN4core9panicking18panic_nounwind_fmt17h6c46f1098922b4b6E(ptr align 8 %_5, i1 zeroext false, ptr align 8 %0) #21
  unreachable

bb2:                                              ; preds = %bb1
  ret void
}

; core::option::Option<T>::ok_or
; Function Attrs: inlinehint nonlazybind uwtable
define { ptr, ptr } @"_ZN4core6option15Option$LT$T$GT$5ok_or17hb3eb49e29da2c65eE"(ptr %0, ptr %1) unnamed_addr #0 {
start:
  %_0 = alloca [16 x i8], align 8
  %self = alloca [16 x i8], align 8
  store ptr %0, ptr %self, align 8
  %2 = getelementptr inbounds i8, ptr %self, i64 8
  store ptr %1, ptr %2, align 8
  %3 = load ptr, ptr %self, align 8
  %4 = getelementptr inbounds i8, ptr %self, i64 8
  %5 = load ptr, ptr %4, align 8
  %6 = ptrtoint ptr %3 to i64
  %7 = icmp eq i64 %6, 0
  %_3 = select i1 %7, i64 0, i64 1
  %8 = trunc nuw i64 %_3 to i1
  br i1 %8, label %bb3, label %bb2

bb3:                                              ; preds = %start
  %v.0 = load ptr, ptr %self, align 8
  %9 = getelementptr inbounds i8, ptr %self, i64 8
  %v.1 = load ptr, ptr %9, align 8
  store ptr %v.0, ptr %_0, align 8
  %10 = getelementptr inbounds i8, ptr %_0, i64 8
  store ptr %v.1, ptr %10, align 8
  br label %bb4

bb2:                                              ; preds = %start
  store ptr null, ptr %_0, align 8
  br label %bb4

bb4:                                              ; preds = %bb3, %bb2
  %11 = load ptr, ptr %_0, align 8
  %12 = getelementptr inbounds i8, ptr %_0, i64 8
  %13 = load ptr, ptr %12, align 8
  %14 = insertvalue { ptr, ptr } poison, ptr %11, 0
  %15 = insertvalue { ptr, ptr } %14, ptr %13, 1
  ret { ptr, ptr } %15

bb1:                                              ; No predecessors!
  unreachable
}

; core::result::Result<T,E>::ok
; Function Attrs: inlinehint nonlazybind uwtable
define zeroext i1 @"_ZN4core6result19Result$LT$T$C$E$GT$2ok17h1e9f1f5bc0477936E"(ptr %0) unnamed_addr #0 {
start:
  %_0 = alloca [1 x i8], align 1
  %self = alloca [8 x i8], align 8
  store ptr %0, ptr %self, align 8
  %1 = load ptr, ptr %self, align 8
  %2 = ptrtoint ptr %1 to i64
  %3 = icmp eq i64 %2, 0
  %_2 = select i1 %3, i64 0, i64 1
  %4 = trunc nuw i64 %_2 to i1
  br i1 %4, label %bb2, label %bb3

bb2:                                              ; preds = %start
  store i8 0, ptr %_0, align 1
  br label %bb6

bb3:                                              ; preds = %start
  store i8 1, ptr %_0, align 1
  br label %bb6

bb6:                                              ; preds = %bb2, %bb3
  %5 = load ptr, ptr %self, align 8
  %6 = ptrtoint ptr %5 to i64
  %7 = icmp eq i64 %6, 0
  %_4 = select i1 %7, i64 0, i64 1
  %8 = trunc nuw i64 %_4 to i1
  br i1 %8, label %bb5, label %bb4

bb5:                                              ; preds = %bb6
; call core::ptr::drop_in_place<core::result::Result<(),alloc::sync::Arc<aster_time::clocksource::ClockSource>>>
  call void @"_ZN4core3ptr120drop_in_place$LT$core..result..Result$LT$$LP$$RP$$C$alloc..sync..Arc$LT$aster_time..clocksource..ClockSource$GT$$GT$$GT$17hd437d95d0d0d06f0E"(ptr align 8 %self)
  br label %bb4

bb4:                                              ; preds = %bb5, %bb6
  %9 = load i8, ptr %_0, align 1
  %10 = trunc nuw i8 %9 to i1
  ret i1 %10

bb1:                                              ; No predecessors!
  unreachable
}

; core::result::Result<T,E>::ok
; Function Attrs: inlinehint nonlazybind uwtable
define zeroext i1 @"_ZN4core6result19Result$LT$T$C$E$GT$2ok17hb084185ea8474257E"(ptr %0, ptr %1) unnamed_addr #0 {
start:
  %_0 = alloca [1 x i8], align 1
  %self = alloca [16 x i8], align 8
  store ptr %0, ptr %self, align 8
  %2 = getelementptr inbounds i8, ptr %self, i64 8
  store ptr %1, ptr %2, align 8
  %3 = load ptr, ptr %self, align 8
  %4 = getelementptr inbounds i8, ptr %self, i64 8
  %5 = load ptr, ptr %4, align 8
  %6 = ptrtoint ptr %3 to i64
  %7 = icmp eq i64 %6, 0
  %_2 = select i1 %7, i64 0, i64 1
  %8 = trunc nuw i64 %_2 to i1
  br i1 %8, label %bb2, label %bb3

bb2:                                              ; preds = %start
  store i8 0, ptr %_0, align 1
  br label %bb6

bb3:                                              ; preds = %start
  store i8 1, ptr %_0, align 1
  br label %bb6

bb6:                                              ; preds = %bb2, %bb3
  %9 = load ptr, ptr %self, align 8
  %10 = getelementptr inbounds i8, ptr %self, i64 8
  %11 = load ptr, ptr %10, align 8
  %12 = ptrtoint ptr %9 to i64
  %13 = icmp eq i64 %12, 0
  %_4 = select i1 %13, i64 0, i64 1
  %14 = trunc nuw i64 %_4 to i1
  br i1 %14, label %bb5, label %bb4

bb5:                                              ; preds = %bb6
; call core::ptr::drop_in_place<core::result::Result<(),alloc::sync::Arc<dyn aster_time::rtc::Driver+core::marker::Sync+core::marker::Send>>>
  call void @"_ZN4core3ptr161drop_in_place$LT$core..result..Result$LT$$LP$$RP$$C$alloc..sync..Arc$LT$dyn$u20$aster_time..rtc..Driver$u2b$core..marker..Sync$u2b$core..marker..Send$GT$$GT$$GT$17h1119a2272331ad89E"(ptr align 8 %self)
  br label %bb4

bb4:                                              ; preds = %bb5, %bb6
  %15 = load i8, ptr %_0, align 1
  %16 = trunc nuw i8 %15 to i1
  ret i1 %16

bb1:                                              ; No predecessors!
  unreachable
}

; ostd::arch::tsc_freq
; Function Attrs: nonlazybind uwtable
define internal i64 @_ZN4ostd4arch8tsc_freq17h3c5308d12d215eddE() unnamed_addr #1 {
start:
  ret i64 1000000000
}

; ostd::timer::register_callback
; Function Attrs: nonlazybind uwtable
define void @_ZN4ostd5timer17register_callback17h92dfe422c28b8327E(i64 %f) unnamed_addr #1 personality ptr @rust_eh_personality {
start:
  %0 = alloca [16 x i8], align 8
  %1 = alloca [16 x i8], align 8
  %e.i = alloca [16 x i8], align 8
  %2 = alloca [16 x i8], align 8
  %_10 = alloca [1 x i8], align 1
  %_4 = alloca [24 x i8], align 8
  %_3 = alloca [16 x i8], align 8
  store i8 1, ptr %_10, align 1
; invoke once_cell::sync::OnceCell<T>::get_or_try_init
  %_13 = invoke align 8 ptr @"_ZN9once_cell4sync17OnceCell$LT$T$GT$15get_or_try_init17h08b200641b6d0039E"(ptr align 8 @_ZN4ostd5timer9CALLBACKS17ha350094ff4381b6dE, ptr align 8 @_ZN4ostd5timer9CALLBACKS17ha350094ff4381b6dE)
          to label %bb9 unwind label %cleanup

bb8:                                              ; preds = %bb5, %cleanup.body
  %3 = load i8, ptr %_10, align 1
  %4 = trunc nuw i8 %3 to i1
  br i1 %4, label %bb7, label %bb6

cleanup:                                          ; preds = %bb10, %bb9, %start
  %5 = landingpad { ptr, i32 }
          cleanup
  br label %cleanup.body

cleanup.body:                                     ; preds = %bb5.i, %cleanup
  %eh.lpad-body = phi { ptr, i32 } [ %5, %cleanup ], [ %26, %bb5.i ]
  %6 = extractvalue { ptr, i32 } %eh.lpad-body, 0
  %7 = extractvalue { ptr, i32 } %eh.lpad-body, 1
  store ptr %6, ptr %2, align 8
  %8 = getelementptr inbounds i8, ptr %2, i64 8
  store i32 %7, ptr %8, align 8
  br label %bb8

bb9:                                              ; preds = %start
; invoke std::sync::poison::mutex::Mutex<T>::lock
  invoke void @"_ZN3std4sync6poison5mutex14Mutex$LT$T$GT$4lock17h3f3b2a3201cadbc5E"(ptr sret([24 x i8]) align 8 %_4, ptr align 8 %_13)
          to label %bb1 unwind label %cleanup

bb1:                                              ; preds = %bb9
  %_2.i = load i64, ptr %_4, align 8
  %9 = trunc nuw i64 %_2.i to i1
  br i1 %9, label %bb2.i, label %"_ZN4core6result19Result$LT$T$C$E$GT$6unwrap17ha2b088c040523115E.exit"

bb2.i:                                            ; preds = %bb1
  %10 = getelementptr inbounds i8, ptr %_4, i64 8
  %11 = load ptr, ptr %10, align 8
  %12 = getelementptr inbounds i8, ptr %10, i64 8
  %13 = load i8, ptr %12, align 8
  %14 = trunc nuw i8 %13 to i1
  store ptr %11, ptr %e.i, align 8
  %15 = getelementptr inbounds i8, ptr %e.i, i64 8
  %16 = zext i1 %14 to i8
  store i8 %16, ptr %15, align 8
; invoke core::result::unwrap_failed
  invoke void @_ZN4core6result13unwrap_failed17h95bc3f5a607b2c95E(ptr align 1 @alloc_00ae4b301f7fab8ac9617c03fcbd7274, i64 43, ptr align 1 %e.i, ptr align 8 @vtable.3, ptr align 8 @alloc_11a0713770a2d29c3322723f9918c1f0) #22
          to label %unreachable.i unwind label %cleanup.i

cleanup.i:                                        ; preds = %bb2.i
  %17 = landingpad { ptr, i32 }
          cleanup
  %18 = extractvalue { ptr, i32 } %17, 0
  %19 = extractvalue { ptr, i32 } %17, 1
  store ptr %18, ptr %1, align 8
  %20 = getelementptr inbounds i8, ptr %1, i64 8
  store i32 %19, ptr %20, align 8
; invoke core::ptr::drop_in_place<std::sync::poison::PoisonError<std::sync::poison::mutex::MutexGuard<alloc::vec::Vec<alloc::boxed::Box<dyn core::ops::function::Fn<()>+Output = ()+core::marker::Sync+core::marker::Send>>>>>
  invoke void @"_ZN4core3ptr278drop_in_place$LT$std..sync..poison..PoisonError$LT$std..sync..poison..mutex..MutexGuard$LT$alloc..vec..Vec$LT$alloc..boxed..Box$LT$dyn$u20$core..ops..function..Fn$LT$$LP$$RP$$GT$$u2b$Output$u20$$u3d$$u20$$LP$$RP$$u2b$core..marker..Sync$u2b$core..marker..Send$GT$$GT$$GT$$GT$$GT$17he94139f03af93455E"(ptr align 8 %e.i) #19
          to label %bb5.i unwind label %terminate.i

unreachable.i:                                    ; preds = %bb2.i
  unreachable

terminate.i:                                      ; preds = %cleanup.i
  %21 = landingpad { ptr, i32 }
          cleanup
          filter [0 x ptr] zeroinitializer
; call core::panicking::panic_in_cleanup
  call void @_ZN4core9panicking16panic_in_cleanup17hb509fce69c32fbdaE() #20
  unreachable

bb5.i:                                            ; preds = %cleanup.i
  %22 = load ptr, ptr %1, align 8
  %23 = getelementptr inbounds i8, ptr %1, i64 8
  %24 = load i32, ptr %23, align 8
  %25 = insertvalue { ptr, i32 } poison, ptr %22, 0
  %26 = insertvalue { ptr, i32 } %25, i32 %24, 1
  br label %cleanup.body

"_ZN4core6result19Result$LT$T$C$E$GT$6unwrap17ha2b088c040523115E.exit": ; preds = %bb1
  %27 = getelementptr inbounds i8, ptr %_4, i64 8
  %t.0.i = load ptr, ptr %27, align 8
  %28 = getelementptr inbounds i8, ptr %27, i64 8
  %29 = load i8, ptr %28, align 8
  %t.1.i = trunc nuw i8 %29 to i1
  %30 = insertvalue { ptr, i1 } poison, ptr %t.0.i, 0
  %31 = insertvalue { ptr, i1 } %30, i1 %t.1.i, 1
  br label %bb2

bb2:                                              ; preds = %"_ZN4core6result19Result$LT$T$C$E$GT$6unwrap17ha2b088c040523115E.exit"
  %32 = extractvalue { ptr, i1 } %31, 0
  %33 = extractvalue { ptr, i1 } %31, 1
  store ptr %32, ptr %_3, align 8
  %34 = getelementptr inbounds i8, ptr %_3, i64 8
  %35 = zext i1 %33 to i8
  store i8 %35, ptr %34, align 8
  %_16 = load ptr, ptr %_3, align 8
  %_17 = getelementptr inbounds i8, ptr %_16, i64 8
  store i8 0, ptr %_10, align 1
; invoke alloc::alloc::exchange_malloc
  %_4.i = invoke ptr @_ZN5alloc5alloc15exchange_malloc17ha0abca8c0b4245f7E(i64 8, i64 8)
          to label %"_ZN5alloc5boxed12Box$LT$T$GT$3new17h78688fbe3d2f05deE.exit" unwind label %cleanup.i2

cleanup.i2:                                       ; preds = %bb2
  %36 = landingpad { ptr, i32 }
          cleanup
  %37 = extractvalue { ptr, i32 } %36, 0
  %38 = extractvalue { ptr, i32 } %36, 1
  store ptr %37, ptr %0, align 8
  %39 = getelementptr inbounds i8, ptr %0, i64 8
  store i32 %38, ptr %39, align 8
  %40 = load ptr, ptr %0, align 8
  %41 = getelementptr inbounds i8, ptr %0, i64 8
  %42 = load i32, ptr %41, align 8
  %43 = insertvalue { ptr, i32 } poison, ptr %40, 0
  %44 = insertvalue { ptr, i32 } %43, i32 %42, 1
  br label %cleanup1.body

"_ZN5alloc5boxed12Box$LT$T$GT$3new17h78688fbe3d2f05deE.exit": ; preds = %bb2
  store i64 %f, ptr %_4.i, align 8
  br label %bb3

bb5:                                              ; preds = %cleanup1.body
; invoke core::ptr::drop_in_place<std::sync::poison::mutex::MutexGuard<alloc::vec::Vec<alloc::boxed::Box<dyn core::ops::function::Fn<()>+Output = ()+core::marker::Sync+core::marker::Send>>>>
  invoke void @"_ZN4core3ptr240drop_in_place$LT$std..sync..poison..mutex..MutexGuard$LT$alloc..vec..Vec$LT$alloc..boxed..Box$LT$dyn$u20$core..ops..function..Fn$LT$$LP$$RP$$GT$$u2b$Output$u20$$u3d$$u20$$LP$$RP$$u2b$core..marker..Sync$u2b$core..marker..Send$GT$$GT$$GT$$GT$17h3786e0ae408e850bE"(ptr align 8 %_3) #19
          to label %bb8 unwind label %terminate

cleanup1:                                         ; preds = %bb3
  %45 = landingpad { ptr, i32 }
          cleanup
  br label %cleanup1.body

cleanup1.body:                                    ; preds = %cleanup.i2, %cleanup1
  %eh.lpad-body4 = phi { ptr, i32 } [ %45, %cleanup1 ], [ %44, %cleanup.i2 ]
  %46 = extractvalue { ptr, i32 } %eh.lpad-body4, 0
  %47 = extractvalue { ptr, i32 } %eh.lpad-body4, 1
  store ptr %46, ptr %2, align 8
  %48 = getelementptr inbounds i8, ptr %2, i64 8
  store i32 %47, ptr %48, align 8
  br label %bb5

bb3:                                              ; preds = %"_ZN5alloc5boxed12Box$LT$T$GT$3new17h78688fbe3d2f05deE.exit"
; invoke alloc::vec::Vec<T,A>::push_mut
  %_18 = invoke align 8 ptr @"_ZN5alloc3vec16Vec$LT$T$C$A$GT$8push_mut17h5aa3a83bfea666f2E"(ptr align 8 %_17, ptr align 1 %_4.i, ptr align 8 @vtable.4, ptr align 8 @alloc_4a1cadd654e634b215da028f41e23f34)
          to label %bb10 unwind label %cleanup1

bb10:                                             ; preds = %bb3
; invoke core::ptr::drop_in_place<std::sync::poison::mutex::MutexGuard<alloc::vec::Vec<alloc::boxed::Box<dyn core::ops::function::Fn<()>+Output = ()+core::marker::Sync+core::marker::Send>>>>
  invoke void @"_ZN4core3ptr240drop_in_place$LT$std..sync..poison..mutex..MutexGuard$LT$alloc..vec..Vec$LT$alloc..boxed..Box$LT$dyn$u20$core..ops..function..Fn$LT$$LP$$RP$$GT$$u2b$Output$u20$$u3d$$u20$$LP$$RP$$u2b$core..marker..Sync$u2b$core..marker..Send$GT$$GT$$GT$$GT$17h3786e0ae408e850bE"(ptr align 8 %_3)
          to label %bb4 unwind label %cleanup

bb4:                                              ; preds = %bb10
  ret void

terminate:                                        ; preds = %bb5
  %49 = landingpad { ptr, i32 }
          filter [0 x ptr] zeroinitializer
; call core::panicking::panic_in_cleanup
  call void @_ZN4core9panicking16panic_in_cleanup17hb509fce69c32fbdaE() #20
  unreachable

bb6:                                              ; preds = %bb7, %bb8
  %50 = load ptr, ptr %2, align 8
  %51 = getelementptr inbounds i8, ptr %2, i64 8
  %52 = load i32, ptr %51, align 8
  %53 = insertvalue { ptr, i32 } poison, ptr %50, 0
  %54 = insertvalue { ptr, i32 } %53, i32 %52, 1
  resume { ptr, i32 } %54

bb7:                                              ; preds = %bb8
  br label %bb6
}

; <T as core::convert::Into<U>>::into
; Function Attrs: inlinehint nonlazybind uwtable
define i32 @"_ZN50_$LT$T$u20$as$u20$core..convert..Into$LT$U$GT$$GT$4into17hda548150511a3ad6E"(i32 %self, ptr align 8 %0) unnamed_addr #0 {
start:
  ret i32 %self
}

; <alloc::alloc::Global as core::clone::Clone>::clone
; Function Attrs: inlinehint nonlazybind uwtable
define internal void @"_ZN59_$LT$alloc..alloc..Global$u20$as$u20$core..clone..Clone$GT$5clone17h25da221c5d2606bfE"(ptr align 1 %self) unnamed_addr #0 {
start:
  ret void
}

; alloc::vec::Vec<T,A>::push_mut
; Function Attrs: inlinehint nonlazybind uwtable
define align 8 ptr @"_ZN5alloc3vec16Vec$LT$T$C$A$GT$8push_mut17h5aa3a83bfea666f2E"(ptr align 8 %self, ptr align 1 %0, ptr align 8 %1, ptr align 8 %2) unnamed_addr #0 personality ptr @rust_eh_personality {
start:
  %3 = alloca [16 x i8], align 8
  %_5 = alloca [8 x i8], align 8
  %value = alloca [16 x i8], align 8
  store ptr %0, ptr %value, align 8
  %4 = getelementptr inbounds i8, ptr %value, i64 8
  store ptr %1, ptr %4, align 8
  %5 = getelementptr inbounds i8, ptr %self, i64 16
  %len = load i64, ptr %5, align 8
  br label %bb9

bb9:                                              ; preds = %start
  %self1 = load i64, ptr %self, align 8
  store i64 %self1, ptr %_5, align 8
  br label %bb7

bb8:                                              ; No predecessors!
  store i64 -1, ptr %_5, align 8
  br label %bb7

bb7:                                              ; preds = %bb9, %bb8
  %6 = load i64, ptr %_5, align 8
  %_4 = icmp eq i64 %len, %6
  br i1 %_4, label %bb1, label %bb3

bb3:                                              ; preds = %bb7
  br label %bb4

bb1:                                              ; preds = %bb7
; invoke alloc::raw_vec::RawVec<T,A>::grow_one
  invoke void @"_ZN5alloc7raw_vec19RawVec$LT$T$C$A$GT$8grow_one17h3c106c615f36fb6eE"(ptr align 8 %self, ptr align 8 %2)
          to label %bb2 unwind label %cleanup

bb4:                                              ; preds = %bb2, %bb3
  %7 = getelementptr inbounds i8, ptr %self, i64 8
  %_15 = load ptr, ptr %7, align 8
  %end = getelementptr inbounds nuw %"alloc::boxed::Box<dyn core::ops::function::Fn() + core::marker::Send + core::marker::Sync>", ptr %_15, i64 %len
  %src.0 = load ptr, ptr %value, align 8
  %8 = getelementptr inbounds i8, ptr %value, i64 8
  %src.1 = load ptr, ptr %8, align 8
  store ptr %src.0, ptr %end, align 8
  %9 = getelementptr inbounds i8, ptr %end, i64 8
  store ptr %src.1, ptr %9, align 8
  %10 = getelementptr inbounds i8, ptr %self, i64 16
  %11 = add i64 %len, 1
  store i64 %11, ptr %10, align 8
  ret ptr %end

bb6:                                              ; preds = %cleanup
; invoke core::ptr::drop_in_place<alloc::boxed::Box<dyn core::ops::function::Fn<()>+Output = ()+core::marker::Sync+core::marker::Send>>
  invoke void @"_ZN4core3ptr173drop_in_place$LT$alloc..boxed..Box$LT$dyn$u20$core..ops..function..Fn$LT$$LP$$RP$$GT$$u2b$Output$u20$$u3d$$u20$$LP$$RP$$u2b$core..marker..Sync$u2b$core..marker..Send$GT$$GT$17h6925c0b5ec1f58bcE"(ptr align 8 %value) #19
          to label %bb5 unwind label %terminate

cleanup:                                          ; preds = %bb1
  %12 = landingpad { ptr, i32 }
          cleanup
  %13 = extractvalue { ptr, i32 } %12, 0
  %14 = extractvalue { ptr, i32 } %12, 1
  store ptr %13, ptr %3, align 8
  %15 = getelementptr inbounds i8, ptr %3, i64 8
  store i32 %14, ptr %15, align 8
  br label %bb6

bb2:                                              ; preds = %bb1
  br label %bb4

terminate:                                        ; preds = %bb6
  %16 = landingpad { ptr, i32 }
          filter [0 x ptr] zeroinitializer
; call core::panicking::panic_in_cleanup
  call void @_ZN4core9panicking16panic_in_cleanup17hb509fce69c32fbdaE() #20
  unreachable

bb5:                                              ; preds = %bb6
  %17 = load ptr, ptr %3, align 8
  %18 = getelementptr inbounds i8, ptr %3, i64 8
  %19 = load i32, ptr %18, align 8
  %20 = insertvalue { ptr, i32 } poison, ptr %17, 0
  %21 = insertvalue { ptr, i32 } %20, i32 %19, 1
  resume { ptr, i32 } %21
}

; alloc::sync::Arc<T>::new
; Function Attrs: inlinehint nonlazybind uwtable
define ptr @"_ZN5alloc4sync12Arc$LT$T$GT$3new17h007b91c2c4ba41e7E"() unnamed_addr #0 personality ptr @rust_eh_personality {
start:
  %0 = alloca [16 x i8], align 8
  %_4 = alloca [8 x i8], align 8
  %_3 = alloca [16 x i8], align 8
  store i64 1, ptr %_4, align 8
  call void @llvm.memcpy.p0.p0.i64(ptr align 8 %_3, ptr align 8 %_4, i64 8, i1 false)
  %1 = getelementptr inbounds i8, ptr %_3, i64 8
  call void @llvm.memcpy.p0.p0.i64(ptr align 8 %1, ptr align 8 %_4, i64 8, i1 false)
; invoke alloc::alloc::exchange_malloc
  %_4.i = invoke ptr @_ZN5alloc5alloc15exchange_malloc17ha0abca8c0b4245f7E(i64 16, i64 8)
          to label %"_ZN5alloc5boxed12Box$LT$T$GT$3new17h1db7e88a617b5d85E.exit" unwind label %cleanup.i

cleanup.i:                                        ; preds = %start
  %2 = landingpad { ptr, i32 }
          cleanup
  %3 = extractvalue { ptr, i32 } %2, 0
  %4 = extractvalue { ptr, i32 } %2, 1
  store ptr %3, ptr %0, align 8
  %5 = getelementptr inbounds i8, ptr %0, i64 8
  store i32 %4, ptr %5, align 8
  %6 = load ptr, ptr %0, align 8
  %7 = getelementptr inbounds i8, ptr %0, i64 8
  %8 = load i32, ptr %7, align 8
  %9 = insertvalue { ptr, i32 } poison, ptr %6, 0
  %10 = insertvalue { ptr, i32 } %9, i32 %8, 1
  resume { ptr, i32 } %10

"_ZN5alloc5boxed12Box$LT$T$GT$3new17h1db7e88a617b5d85E.exit": ; preds = %start
  call void @llvm.memcpy.p0.p0.i64(ptr align 8 %_4.i, ptr align 8 %_3, i64 16, i1 false)
  ret ptr %_4.i
}

; alloc::sync::Arc<T>::new
; Function Attrs: inlinehint nonlazybind uwtable
define ptr @"_ZN5alloc4sync12Arc$LT$T$GT$3new17h523a2bdb50e52766E"(ptr align 8 %data) unnamed_addr #0 personality ptr @rust_eh_personality {
start:
  %0 = alloca [16 x i8], align 8
  %_4 = alloca [8 x i8], align 8
  %_3 = alloca [104 x i8], align 8
  store i64 1, ptr %_4, align 8
  call void @llvm.memcpy.p0.p0.i64(ptr align 8 %_3, ptr align 8 %_4, i64 8, i1 false)
  %1 = getelementptr inbounds i8, ptr %_3, i64 8
  call void @llvm.memcpy.p0.p0.i64(ptr align 8 %1, ptr align 8 %_4, i64 8, i1 false)
  %2 = getelementptr inbounds i8, ptr %_3, i64 16
  call void @llvm.memcpy.p0.p0.i64(ptr align 8 %2, ptr align 8 %data, i64 88, i1 false)
; invoke alloc::alloc::exchange_malloc
  %_4.i = invoke ptr @_ZN5alloc5alloc15exchange_malloc17ha0abca8c0b4245f7E(i64 104, i64 8)
          to label %"_ZN5alloc5boxed12Box$LT$T$GT$3new17h64b7ffeb53efbad3E.exit" unwind label %cleanup.i

cleanup.i:                                        ; preds = %start
  %3 = landingpad { ptr, i32 }
          cleanup
  %4 = extractvalue { ptr, i32 } %3, 0
  %5 = extractvalue { ptr, i32 } %3, 1
  store ptr %4, ptr %0, align 8
  %6 = getelementptr inbounds i8, ptr %0, i64 8
  store i32 %5, ptr %6, align 8
; invoke core::ptr::drop_in_place<alloc::sync::ArcInner<aster_time::clocksource::ClockSource>>
  invoke void @"_ZN4core3ptr86drop_in_place$LT$alloc..sync..ArcInner$LT$aster_time..clocksource..ClockSource$GT$$GT$17hd7ecb5e811adedb6E"(ptr align 8 %_3) #19
          to label %bb3.i unwind label %terminate.i

terminate.i:                                      ; preds = %cleanup.i
  %7 = landingpad { ptr, i32 }
          filter [0 x ptr] zeroinitializer
; call core::panicking::panic_in_cleanup
  call void @_ZN4core9panicking16panic_in_cleanup17hb509fce69c32fbdaE() #20
  unreachable

bb3.i:                                            ; preds = %cleanup.i
  %8 = load ptr, ptr %0, align 8
  %9 = getelementptr inbounds i8, ptr %0, i64 8
  %10 = load i32, ptr %9, align 8
  %11 = insertvalue { ptr, i32 } poison, ptr %8, 0
  %12 = insertvalue { ptr, i32 } %11, i32 %10, 1
  resume { ptr, i32 } %12

"_ZN5alloc5boxed12Box$LT$T$GT$3new17h64b7ffeb53efbad3E.exit": ; preds = %start
  call void @llvm.memcpy.p0.p0.i64(ptr align 8 %_4.i, ptr align 8 %_3, i64 104, i1 false)
  ret ptr %_4.i
}

; alloc::sync::Arc<T>::new
; Function Attrs: inlinehint nonlazybind uwtable
define ptr @"_ZN5alloc4sync12Arc$LT$T$GT$3new17h5857b4d8eec8a7bbE"() unnamed_addr #0 personality ptr @rust_eh_personality {
start:
  %0 = alloca [16 x i8], align 8
  %_4 = alloca [8 x i8], align 8
  %_3 = alloca [16 x i8], align 8
  store i64 1, ptr %_4, align 8
  call void @llvm.memcpy.p0.p0.i64(ptr align 8 %_3, ptr align 8 %_4, i64 8, i1 false)
  %1 = getelementptr inbounds i8, ptr %_3, i64 8
  call void @llvm.memcpy.p0.p0.i64(ptr align 8 %1, ptr align 8 %_4, i64 8, i1 false)
; invoke alloc::alloc::exchange_malloc
  %_4.i = invoke ptr @_ZN5alloc5alloc15exchange_malloc17ha0abca8c0b4245f7E(i64 16, i64 8)
          to label %"_ZN5alloc5boxed12Box$LT$T$GT$3new17h2ed7a8e989413223E.exit" unwind label %cleanup.i

cleanup.i:                                        ; preds = %start
  %2 = landingpad { ptr, i32 }
          cleanup
  %3 = extractvalue { ptr, i32 } %2, 0
  %4 = extractvalue { ptr, i32 } %2, 1
  store ptr %3, ptr %0, align 8
  %5 = getelementptr inbounds i8, ptr %0, i64 8
  store i32 %4, ptr %5, align 8
  %6 = load ptr, ptr %0, align 8
  %7 = getelementptr inbounds i8, ptr %0, i64 8
  %8 = load i32, ptr %7, align 8
  %9 = insertvalue { ptr, i32 } poison, ptr %6, 0
  %10 = insertvalue { ptr, i32 } %9, i32 %8, 1
  resume { ptr, i32 } %10

"_ZN5alloc5boxed12Box$LT$T$GT$3new17h2ed7a8e989413223E.exit": ; preds = %start
  call void @llvm.memcpy.p0.p0.i64(ptr align 8 %_4.i, ptr align 8 %_3, i64 16, i1 false)
  ret ptr %_4.i
}

; alloc::sync::Arc<T,A>::drop_slow
; Function Attrs: noinline nonlazybind uwtable
define void @"_ZN5alloc4sync16Arc$LT$T$C$A$GT$9drop_slow17h4486d9b3b802710aE"(ptr align 8 %self) unnamed_addr #4 personality ptr @rust_eh_personality {
start:
  %0 = alloca [16 x i8], align 8
  %_weak = alloca [16 x i8], align 8
  %_3 = load ptr, ptr %self, align 8
  %_4 = getelementptr inbounds i8, ptr %self, i64 8
  store ptr %_3, ptr %_weak, align 8
  %1 = getelementptr inbounds i8, ptr %_weak, i64 8
  store ptr %_4, ptr %1, align 8
  %self1 = load ptr, ptr %self, align 8
  %_6 = getelementptr inbounds i8, ptr %self1, i64 16
; invoke core::ptr::drop_in_place<aster_time::clocksource::ClockSource>
  invoke void @"_ZN4core3ptr57drop_in_place$LT$aster_time..clocksource..ClockSource$GT$17ha750b08edb8d3056E"(ptr align 8 %_6)
          to label %bb1 unwind label %cleanup

bb3:                                              ; preds = %cleanup
; invoke core::ptr::drop_in_place<alloc::sync::Weak<aster_time::clocksource::ClockSource,&alloc::alloc::Global>>
  invoke void @"_ZN4core3ptr109drop_in_place$LT$alloc..sync..Weak$LT$aster_time..clocksource..ClockSource$C$$RF$alloc..alloc..Global$GT$$GT$17hb42e9c4174166ad0E"(ptr align 8 %_weak) #19
          to label %bb4 unwind label %terminate

cleanup:                                          ; preds = %start
  %2 = landingpad { ptr, i32 }
          cleanup
  %3 = extractvalue { ptr, i32 } %2, 0
  %4 = extractvalue { ptr, i32 } %2, 1
  store ptr %3, ptr %0, align 8
  %5 = getelementptr inbounds i8, ptr %0, i64 8
  store i32 %4, ptr %5, align 8
  br label %bb3

bb1:                                              ; preds = %start
; call core::ptr::drop_in_place<alloc::sync::Weak<aster_time::clocksource::ClockSource,&alloc::alloc::Global>>
  call void @"_ZN4core3ptr109drop_in_place$LT$alloc..sync..Weak$LT$aster_time..clocksource..ClockSource$C$$RF$alloc..alloc..Global$GT$$GT$17hb42e9c4174166ad0E"(ptr align 8 %_weak)
  ret void

terminate:                                        ; preds = %bb3
  %6 = landingpad { ptr, i32 }
          filter [0 x ptr] zeroinitializer
; call core::panicking::panic_in_cleanup
  call void @_ZN4core9panicking16panic_in_cleanup17hb509fce69c32fbdaE() #20
  unreachable

bb4:                                              ; preds = %bb3
  %7 = load ptr, ptr %0, align 8
  %8 = getelementptr inbounds i8, ptr %0, i64 8
  %9 = load i32, ptr %8, align 8
  %10 = insertvalue { ptr, i32 } poison, ptr %7, 0
  %11 = insertvalue { ptr, i32 } %10, i32 %9, 1
  resume { ptr, i32 } %11
}

; alloc::sync::Arc<T,A>::drop_slow
; Function Attrs: noinline nonlazybind uwtable
define void @"_ZN5alloc4sync16Arc$LT$T$C$A$GT$9drop_slow17h6c98c74ce709d7a5E"(ptr align 8 %self) unnamed_addr #4 personality ptr @rust_eh_personality {
start:
  %0 = alloca [16 x i8], align 8
  %_weak = alloca [24 x i8], align 8
  %_3.0 = load ptr, ptr %self, align 8
  %1 = getelementptr inbounds i8, ptr %self, i64 8
  %_3.1 = load ptr, ptr %1, align 8
  %_4 = getelementptr inbounds i8, ptr %self, i64 16
  store ptr %_3.0, ptr %_weak, align 8
  %2 = getelementptr inbounds i8, ptr %_weak, i64 8
  store ptr %_3.1, ptr %2, align 8
  %3 = getelementptr inbounds i8, ptr %_weak, i64 16
  store ptr %_4, ptr %3, align 8
  %self.0 = load ptr, ptr %self, align 8
  %4 = getelementptr inbounds i8, ptr %self, i64 8
  %self.1 = load ptr, ptr %4, align 8
  %5 = getelementptr inbounds i8, ptr %self.1, i64 8
  %6 = load i64, ptr %5, align 8, !invariant.load !3
  %7 = getelementptr inbounds i8, ptr %self.1, i64 16
  %8 = load i64, ptr %7, align 8, !invariant.load !3
  %9 = sub i64 %8, 1
  %10 = and i64 -16, %9
  %11 = add i64 16, %10
  %_6.0 = getelementptr inbounds i8, ptr %self.0, i64 %11
; invoke core::ptr::drop_in_place<dyn core::ops::function::Fn<()>+Output = u64+core::marker::Sync+core::marker::Send>
  invoke void @"_ZN4core3ptr143drop_in_place$LT$dyn$u20$core..ops..function..Fn$LT$$LP$$RP$$GT$$u2b$Output$u20$$u3d$$u20$u64$u2b$core..marker..Sync$u2b$core..marker..Send$GT$17haca21a73954520b2E"(ptr align 1 %_6.0, ptr align 8 %self.1)
          to label %bb1 unwind label %cleanup

bb3:                                              ; preds = %cleanup
; invoke core::ptr::drop_in_place<alloc::sync::Weak<dyn core::ops::function::Fn<()>+Output = u64+core::marker::Sync+core::marker::Send,&alloc::alloc::Global>>
  invoke void @"_ZN4core3ptr195drop_in_place$LT$alloc..sync..Weak$LT$dyn$u20$core..ops..function..Fn$LT$$LP$$RP$$GT$$u2b$Output$u20$$u3d$$u20$u64$u2b$core..marker..Sync$u2b$core..marker..Send$C$$RF$alloc..alloc..Global$GT$$GT$17hc1f8354caaecd952E"(ptr align 8 %_weak) #19
          to label %bb4 unwind label %terminate

cleanup:                                          ; preds = %start
  %12 = landingpad { ptr, i32 }
          cleanup
  %13 = extractvalue { ptr, i32 } %12, 0
  %14 = extractvalue { ptr, i32 } %12, 1
  store ptr %13, ptr %0, align 8
  %15 = getelementptr inbounds i8, ptr %0, i64 8
  store i32 %14, ptr %15, align 8
  br label %bb3

bb1:                                              ; preds = %start
; call core::ptr::drop_in_place<alloc::sync::Weak<dyn core::ops::function::Fn<()>+Output = u64+core::marker::Sync+core::marker::Send,&alloc::alloc::Global>>
  call void @"_ZN4core3ptr195drop_in_place$LT$alloc..sync..Weak$LT$dyn$u20$core..ops..function..Fn$LT$$LP$$RP$$GT$$u2b$Output$u20$$u3d$$u20$u64$u2b$core..marker..Sync$u2b$core..marker..Send$C$$RF$alloc..alloc..Global$GT$$GT$17hc1f8354caaecd952E"(ptr align 8 %_weak)
  ret void

terminate:                                        ; preds = %bb3
  %16 = landingpad { ptr, i32 }
          filter [0 x ptr] zeroinitializer
; call core::panicking::panic_in_cleanup
  call void @_ZN4core9panicking16panic_in_cleanup17hb509fce69c32fbdaE() #20
  unreachable

bb4:                                              ; preds = %bb3
  %17 = load ptr, ptr %0, align 8
  %18 = getelementptr inbounds i8, ptr %0, i64 8
  %19 = load i32, ptr %18, align 8
  %20 = insertvalue { ptr, i32 } poison, ptr %17, 0
  %21 = insertvalue { ptr, i32 } %20, i32 %19, 1
  resume { ptr, i32 } %21
}

; alloc::sync::Arc<T,A>::drop_slow
; Function Attrs: noinline nonlazybind uwtable
define void @"_ZN5alloc4sync16Arc$LT$T$C$A$GT$9drop_slow17h7d4d0fd8f138debaE"(ptr align 8 %self) unnamed_addr #4 personality ptr @rust_eh_personality {
start:
  %0 = alloca [16 x i8], align 8
  %_weak = alloca [24 x i8], align 8
  %_3.0 = load ptr, ptr %self, align 8
  %1 = getelementptr inbounds i8, ptr %self, i64 8
  %_3.1 = load ptr, ptr %1, align 8
  %_4 = getelementptr inbounds i8, ptr %self, i64 16
  store ptr %_3.0, ptr %_weak, align 8
  %2 = getelementptr inbounds i8, ptr %_weak, i64 8
  store ptr %_3.1, ptr %2, align 8
  %3 = getelementptr inbounds i8, ptr %_weak, i64 16
  store ptr %_4, ptr %3, align 8
  %self.0 = load ptr, ptr %self, align 8
  %4 = getelementptr inbounds i8, ptr %self, i64 8
  %self.1 = load ptr, ptr %4, align 8
  %5 = getelementptr inbounds i8, ptr %self.1, i64 8
  %6 = load i64, ptr %5, align 8, !invariant.load !3
  %7 = getelementptr inbounds i8, ptr %self.1, i64 16
  %8 = load i64, ptr %7, align 8, !invariant.load !3
  %9 = sub i64 %8, 1
  %10 = and i64 -16, %9
  %11 = add i64 16, %10
  %_6.0 = getelementptr inbounds i8, ptr %self.0, i64 %11
; invoke core::ptr::drop_in_place<dyn aster_time::rtc::Driver+core::marker::Sync+core::marker::Send>
  invoke void @"_ZN4core3ptr98drop_in_place$LT$dyn$u20$aster_time..rtc..Driver$u2b$core..marker..Sync$u2b$core..marker..Send$GT$17h1d9569381df1e557E"(ptr align 1 %_6.0, ptr align 8 %self.1)
          to label %bb1 unwind label %cleanup

bb3:                                              ; preds = %cleanup
; invoke core::ptr::drop_in_place<alloc::sync::Weak<dyn aster_time::rtc::Driver+core::marker::Sync+core::marker::Send,&alloc::alloc::Global>>
  invoke void @"_ZN4core3ptr150drop_in_place$LT$alloc..sync..Weak$LT$dyn$u20$aster_time..rtc..Driver$u2b$core..marker..Sync$u2b$core..marker..Send$C$$RF$alloc..alloc..Global$GT$$GT$17h45a71b9519543c65E"(ptr align 8 %_weak) #19
          to label %bb4 unwind label %terminate

cleanup:                                          ; preds = %start
  %12 = landingpad { ptr, i32 }
          cleanup
  %13 = extractvalue { ptr, i32 } %12, 0
  %14 = extractvalue { ptr, i32 } %12, 1
  store ptr %13, ptr %0, align 8
  %15 = getelementptr inbounds i8, ptr %0, i64 8
  store i32 %14, ptr %15, align 8
  br label %bb3

bb1:                                              ; preds = %start
; call core::ptr::drop_in_place<alloc::sync::Weak<dyn aster_time::rtc::Driver+core::marker::Sync+core::marker::Send,&alloc::alloc::Global>>
  call void @"_ZN4core3ptr150drop_in_place$LT$alloc..sync..Weak$LT$dyn$u20$aster_time..rtc..Driver$u2b$core..marker..Sync$u2b$core..marker..Send$C$$RF$alloc..alloc..Global$GT$$GT$17h45a71b9519543c65E"(ptr align 8 %_weak)
  ret void

terminate:                                        ; preds = %bb3
  %16 = landingpad { ptr, i32 }
          filter [0 x ptr] zeroinitializer
; call core::panicking::panic_in_cleanup
  call void @_ZN4core9panicking16panic_in_cleanup17hb509fce69c32fbdaE() #20
  unreachable

bb4:                                              ; preds = %bb3
  %17 = load ptr, ptr %0, align 8
  %18 = getelementptr inbounds i8, ptr %0, i64 8
  %19 = load i32, ptr %18, align 8
  %20 = insertvalue { ptr, i32 } poison, ptr %17, 0
  %21 = insertvalue { ptr, i32 } %20, i32 %19, 1
  resume { ptr, i32 } %21
}

; alloc::sync::Arc<T,A>::drop_slow
; Function Attrs: noinline nonlazybind uwtable
define void @"_ZN5alloc4sync16Arc$LT$T$C$A$GT$9drop_slow17h832cfec15c56ca72E"(ptr align 8 %self) unnamed_addr #4 personality ptr @rust_eh_personality {
start:
  %0 = alloca [16 x i8], align 8
  %_weak = alloca [24 x i8], align 8
  %_3.0 = load ptr, ptr %self, align 8
  %1 = getelementptr inbounds i8, ptr %self, i64 8
  %_3.1 = load ptr, ptr %1, align 8
  %_4 = getelementptr inbounds i8, ptr %self, i64 16
  store ptr %_3.0, ptr %_weak, align 8
  %2 = getelementptr inbounds i8, ptr %_weak, i64 8
  store ptr %_3.1, ptr %2, align 8
  %3 = getelementptr inbounds i8, ptr %_weak, i64 16
  store ptr %_4, ptr %3, align 8
  %self.0 = load ptr, ptr %self, align 8
  %4 = getelementptr inbounds i8, ptr %self, i64 8
  %self.1 = load ptr, ptr %4, align 8
  %5 = getelementptr inbounds i8, ptr %self.1, i64 8
  %6 = load i64, ptr %5, align 8, !invariant.load !3
  %7 = getelementptr inbounds i8, ptr %self.1, i64 16
  %8 = load i64, ptr %7, align 8, !invariant.load !3
  %9 = sub i64 %8, 1
  %10 = and i64 -16, %9
  %11 = add i64 16, %10
  %_6.0 = getelementptr inbounds i8, ptr %self.0, i64 %11
; invoke core::ptr::drop_in_place<dyn core::ops::function::Fn<(aster_time::clocksource::Instant,u64)>+Output = ()+core::marker::Sync+core::marker::Send>
  invoke void @"_ZN4core3ptr186drop_in_place$LT$dyn$u20$core..ops..function..Fn$LT$$LP$aster_time..clocksource..Instant$C$u64$RP$$GT$$u2b$Output$u20$$u3d$$u20$$LP$$RP$$u2b$core..marker..Sync$u2b$core..marker..Send$GT$17h49a83eadd7f67f81E"(ptr align 1 %_6.0, ptr align 8 %self.1)
          to label %bb1 unwind label %cleanup

bb3:                                              ; preds = %cleanup
; invoke core::ptr::drop_in_place<alloc::sync::Weak<dyn core::ops::function::Fn<(aster_time::clocksource::Instant,u64)>+Output = ()+core::marker::Sync+core::marker::Send,&alloc::alloc::Global>>
  invoke void @"_ZN4core3ptr238drop_in_place$LT$alloc..sync..Weak$LT$dyn$u20$core..ops..function..Fn$LT$$LP$aster_time..clocksource..Instant$C$u64$RP$$GT$$u2b$Output$u20$$u3d$$u20$$LP$$RP$$u2b$core..marker..Sync$u2b$core..marker..Send$C$$RF$alloc..alloc..Global$GT$$GT$17h7672900556b493ceE"(ptr align 8 %_weak) #19
          to label %bb4 unwind label %terminate

cleanup:                                          ; preds = %start
  %12 = landingpad { ptr, i32 }
          cleanup
  %13 = extractvalue { ptr, i32 } %12, 0
  %14 = extractvalue { ptr, i32 } %12, 1
  store ptr %13, ptr %0, align 8
  %15 = getelementptr inbounds i8, ptr %0, i64 8
  store i32 %14, ptr %15, align 8
  br label %bb3

bb1:                                              ; preds = %start
; call core::ptr::drop_in_place<alloc::sync::Weak<dyn core::ops::function::Fn<(aster_time::clocksource::Instant,u64)>+Output = ()+core::marker::Sync+core::marker::Send,&alloc::alloc::Global>>
  call void @"_ZN4core3ptr238drop_in_place$LT$alloc..sync..Weak$LT$dyn$u20$core..ops..function..Fn$LT$$LP$aster_time..clocksource..Instant$C$u64$RP$$GT$$u2b$Output$u20$$u3d$$u20$$LP$$RP$$u2b$core..marker..Sync$u2b$core..marker..Send$C$$RF$alloc..alloc..Global$GT$$GT$17h7672900556b493ceE"(ptr align 8 %_weak)
  ret void

terminate:                                        ; preds = %bb3
  %16 = landingpad { ptr, i32 }
          filter [0 x ptr] zeroinitializer
; call core::panicking::panic_in_cleanup
  call void @_ZN4core9panicking16panic_in_cleanup17hb509fce69c32fbdaE() #20
  unreachable

bb4:                                              ; preds = %bb3
  %17 = load ptr, ptr %0, align 8
  %18 = getelementptr inbounds i8, ptr %0, i64 8
  %19 = load i32, ptr %18, align 8
  %20 = insertvalue { ptr, i32 } poison, ptr %17, 0
  %21 = insertvalue { ptr, i32 } %20, i32 %19, 1
  resume { ptr, i32 } %21
}

; alloc::alloc::exchange_malloc
; Function Attrs: inlinehint nonlazybind uwtable
define internal ptr @_ZN5alloc5alloc15exchange_malloc17ha0abca8c0b4245f7E(i64 %size, i64 %align) unnamed_addr #0 {
start:
  %_4 = alloca [16 x i8], align 8
  br label %bb4

bb4:                                              ; preds = %start
; call core::alloc::layout::Layout::from_size_align_unchecked::precondition_check
  call void @_ZN4core5alloc6layout6Layout25from_size_align_unchecked18precondition_check17h7e03dcbef42f732eE(i64 %size, i64 %align, ptr align 8 @alloc_e24d28343bb3254d030f2bfc7cb25d1f) #18
  br label %bb5

bb5:                                              ; preds = %bb4
; call alloc::alloc::Global::alloc_impl
  %0 = call { ptr, i64 } @_ZN5alloc5alloc6Global10alloc_impl17hceade766dacaded6E(ptr align 1 inttoptr (i64 1 to ptr), i64 %align, i64 %size, i1 zeroext false)
  %1 = extractvalue { ptr, i64 } %0, 0
  %2 = extractvalue { ptr, i64 } %0, 1
  store ptr %1, ptr %_4, align 8
  %3 = getelementptr inbounds i8, ptr %_4, i64 8
  store i64 %2, ptr %3, align 8
  %4 = load ptr, ptr %_4, align 8
  %5 = getelementptr inbounds i8, ptr %_4, i64 8
  %6 = load i64, ptr %5, align 8
  %7 = ptrtoint ptr %4 to i64
  %8 = icmp eq i64 %7, 0
  %_5 = select i1 %8, i64 1, i64 0
  %9 = trunc nuw i64 %_5 to i1
  br i1 %9, label %bb2, label %bb3

bb2:                                              ; preds = %bb5
; call alloc::alloc::handle_alloc_error
  call void @_ZN5alloc5alloc18handle_alloc_error17h2b7b46d2f6d71448E(i64 %align, i64 %size) #22
  unreachable

bb3:                                              ; preds = %bb5
  %ptr.0 = load ptr, ptr %_4, align 8
  %10 = getelementptr inbounds i8, ptr %_4, i64 8
  %ptr.1 = load i64, ptr %10, align 8
  ret ptr %ptr.0

bb1:                                              ; No predecessors!
  unreachable
}

; alloc::alloc::Global::alloc_impl
; Function Attrs: inlinehint nonlazybind uwtable
define internal { ptr, i64 } @_ZN5alloc5alloc6Global10alloc_impl17hceade766dacaded6E(ptr align 1 %self, i64 %0, i64 %1, i1 zeroext %zeroed) unnamed_addr #0 {
start:
  %self4 = alloca [8 x i8], align 8
  %self3 = alloca [8 x i8], align 8
  %_12 = alloca [8 x i8], align 8
  %layout2 = alloca [16 x i8], align 8
  %layout1 = alloca [16 x i8], align 8
  %raw_ptr = alloca [8 x i8], align 8
  %_0 = alloca [16 x i8], align 8
  %layout = alloca [16 x i8], align 8
  store i64 %0, ptr %layout, align 8
  %2 = getelementptr inbounds i8, ptr %layout, i64 8
  store i64 %1, ptr %2, align 8
  %3 = getelementptr inbounds i8, ptr %layout, i64 8
  %size = load i64, ptr %3, align 8
  %4 = icmp eq i64 %size, 0
  br i1 %4, label %bb2, label %bb1

bb2:                                              ; preds = %start
  %_19 = load i64, ptr %layout, align 8
  %_20 = getelementptr i8, ptr null, i64 %_19
  %data = getelementptr i8, ptr null, i64 %_19
  br label %bb7

bb1:                                              ; preds = %start
  br i1 %zeroed, label %bb3, label %bb4

bb7:                                              ; preds = %bb2
  %_24 = getelementptr i8, ptr null, i64 %_19
; call core::ptr::non_null::NonNull<T>::new_unchecked::precondition_check
  call void @"_ZN4core3ptr8non_null16NonNull$LT$T$GT$13new_unchecked18precondition_check17h1908d8c30a2aab75E"(ptr %_24, ptr align 8 @alloc_e1dd287cb89f19bd04ff4af4eb11ef94) #18
  br label %bb9

bb9:                                              ; preds = %bb7
  store ptr %data, ptr %_0, align 8
  %5 = getelementptr inbounds i8, ptr %_0, i64 8
  store i64 0, ptr %5, align 8
  br label %bb6

bb6:                                              ; preds = %bb21, %bb14, %bb9
  %6 = load ptr, ptr %_0, align 8
  %7 = getelementptr inbounds i8, ptr %_0, i64 8
  %8 = load i64, ptr %7, align 8
  %9 = insertvalue { ptr, i64 } poison, ptr %6, 0
  %10 = insertvalue { ptr, i64 } %9, i64 %8, 1
  ret { ptr, i64 } %10

bb4:                                              ; preds = %bb1
  %11 = load i64, ptr %layout, align 8
  %12 = getelementptr inbounds i8, ptr %layout, i64 8
  %13 = load i64, ptr %12, align 8
  store i64 %11, ptr %layout2, align 8
  %14 = getelementptr inbounds i8, ptr %layout2, i64 8
  store i64 %13, ptr %14, align 8
; call __rustc::__rust_no_alloc_shim_is_unstable_v2
  call void @_RNvCsj4CZ6flxxfE_7___rustc35___rust_no_alloc_shim_is_unstable_v2() #18
  %_38 = load i64, ptr %layout, align 8
; call __rustc::__rust_alloc
  %15 = call ptr @_RNvCsj4CZ6flxxfE_7___rustc12___rust_alloc(i64 %size, i64 %_38) #18
  store ptr %15, ptr %raw_ptr, align 8
  br label %bb5

bb3:                                              ; preds = %bb1
  %16 = load i64, ptr %layout, align 8
  %17 = getelementptr inbounds i8, ptr %layout, i64 8
  %18 = load i64, ptr %17, align 8
  store i64 %16, ptr %layout1, align 8
  %19 = getelementptr inbounds i8, ptr %layout1, i64 8
  store i64 %18, ptr %19, align 8
; call __rustc::__rust_no_alloc_shim_is_unstable_v2
  call void @_RNvCsj4CZ6flxxfE_7___rustc35___rust_no_alloc_shim_is_unstable_v2() #18
  %_32 = load i64, ptr %layout, align 8
; call __rustc::__rust_alloc_zeroed
  %20 = call ptr @_RNvCsj4CZ6flxxfE_7___rustc19___rust_alloc_zeroed(i64 %size, i64 %_32) #18
  store ptr %20, ptr %raw_ptr, align 8
  br label %bb5

bb5:                                              ; preds = %bb3, %bb4
  %ptr = load ptr, ptr %raw_ptr, align 8
  %_41 = ptrtoint ptr %ptr to i64
  %21 = icmp eq i64 %_41, 0
  br i1 %21, label %bb14, label %bb15

bb14:                                             ; preds = %bb5
  store ptr null, ptr %self4, align 8
  store ptr null, ptr %self3, align 8
  %22 = load ptr, ptr @anon.8907c793926939c1a3db336f022d0871.0, align 8
  %23 = load i64, ptr getelementptr inbounds (i8, ptr @anon.8907c793926939c1a3db336f022d0871.0, i64 8), align 8
  store ptr %22, ptr %_0, align 8
  %24 = getelementptr inbounds i8, ptr %_0, i64 8
  store i64 %23, ptr %24, align 8
  br label %bb6

bb15:                                             ; preds = %bb5
  br label %bb16

bb16:                                             ; preds = %bb15
; call core::ptr::non_null::NonNull<T>::new_unchecked::precondition_check
  call void @"_ZN4core3ptr8non_null16NonNull$LT$T$GT$13new_unchecked18precondition_check17h1908d8c30a2aab75E"(ptr %ptr, ptr align 8 @alloc_72400afa39575c6f246fe5e2246c04f8) #18
  br label %bb18

bb18:                                             ; preds = %bb16
  store ptr %ptr, ptr %self4, align 8
  %v = load ptr, ptr %self4, align 8
  store ptr %v, ptr %self3, align 8
  %v5 = load ptr, ptr %self3, align 8
  store ptr %v5, ptr %_12, align 8
  %ptr6 = load ptr, ptr %_12, align 8
  br label %bb19

bb19:                                             ; preds = %bb18
; call core::ptr::non_null::NonNull<T>::new_unchecked::precondition_check
  call void @"_ZN4core3ptr8non_null16NonNull$LT$T$GT$13new_unchecked18precondition_check17h1908d8c30a2aab75E"(ptr %ptr6, ptr align 8 @alloc_e1dd287cb89f19bd04ff4af4eb11ef94) #18
  br label %bb21

bb21:                                             ; preds = %bb19
  store ptr %ptr6, ptr %_0, align 8
  %25 = getelementptr inbounds i8, ptr %_0, i64 8
  store i64 %size, ptr %25, align 8
  br label %bb6
}

; alloc::raw_vec::RawVec<T,A>::grow_one
; Function Attrs: noinline nonlazybind uwtable
define void @"_ZN5alloc7raw_vec19RawVec$LT$T$C$A$GT$8grow_one17h3c106c615f36fb6eE"(ptr align 8 %self, ptr align 8 %0) unnamed_addr #4 {
start:
  %_3 = alloca [16 x i8], align 8
  %self1 = load i64, ptr %self, align 8
; call alloc::raw_vec::RawVecInner<A>::grow_amortized
  %1 = call { i64, i64 } @"_ZN5alloc7raw_vec20RawVecInner$LT$A$GT$14grow_amortized17h2f8186ba17605551E"(ptr align 8 %self, i64 %self1, i64 1, i64 8, i64 16)
  %2 = extractvalue { i64, i64 } %1, 0
  %3 = extractvalue { i64, i64 } %1, 1
  store i64 %2, ptr %_3, align 8
  %4 = getelementptr inbounds i8, ptr %_3, i64 8
  store i64 %3, ptr %4, align 8
  %5 = load i64, ptr %_3, align 8
  %6 = getelementptr inbounds i8, ptr %_3, i64 8
  %7 = load i64, ptr %6, align 8
  %8 = icmp eq i64 %5, -9223372036854775807
  %_6 = select i1 %8, i64 0, i64 1
  %9 = trunc nuw i64 %_6 to i1
  br i1 %9, label %bb2, label %bb3

bb2:                                              ; preds = %start
  %err.0 = load i64, ptr %_3, align 8
  %10 = getelementptr inbounds i8, ptr %_3, i64 8
  %err.1 = load i64, ptr %10, align 8
; call alloc::raw_vec::handle_error
  call void @_ZN5alloc7raw_vec12handle_error17h18ec2e4e8895cf6eE(i64 %err.0, i64 %err.1, ptr align 8 %0) #22
  unreachable

bb3:                                              ; preds = %start
  ret void

bb4:                                              ; No predecessors!
  unreachable
}

; <alloc::alloc::Global as core::alloc::Allocator>::deallocate
; Function Attrs: inlinehint nonlazybind uwtable
define internal void @"_ZN63_$LT$alloc..alloc..Global$u20$as$u20$core..alloc..Allocator$GT$10deallocate17h060cb63953f482c4E"(ptr align 1 %self, ptr %ptr, i64 %0, i64 %1) unnamed_addr #0 {
start:
  %layout1 = alloca [16 x i8], align 8
  %layout = alloca [16 x i8], align 8
  store i64 %0, ptr %layout, align 8
  %2 = getelementptr inbounds i8, ptr %layout, i64 8
  store i64 %1, ptr %2, align 8
  %3 = getelementptr inbounds i8, ptr %layout, i64 8
  %_4 = load i64, ptr %3, align 8
  %4 = icmp eq i64 %_4, 0
  br i1 %4, label %bb2, label %bb1

bb2:                                              ; preds = %bb1, %start
  ret void

bb1:                                              ; preds = %start
  %5 = load i64, ptr %layout, align 8
  %6 = getelementptr inbounds i8, ptr %layout, i64 8
  %7 = load i64, ptr %6, align 8
  store i64 %5, ptr %layout1, align 8
  %8 = getelementptr inbounds i8, ptr %layout1, i64 8
  store i64 %7, ptr %8, align 8
  %_12 = load i64, ptr %layout, align 8
; call __rustc::__rust_dealloc
  call void @_RNvCsj4CZ6flxxfE_7___rustc14___rust_dealloc(ptr %ptr, i64 %_4, i64 %_12) #18
  br label %bb2
}

; <component::ComponentRegistry as inventory::Collect>::registry
; Function Attrs: inlinehint nonlazybind uwtable
define internal align 8 ptr @"_ZN67_$LT$component..ComponentRegistry$u20$as$u20$inventory..Collect$GT$8registry17h2f8b3429c1d8b15fE"() unnamed_addr #0 {
start:
  ret ptr @"_ZN67_$LT$component..ComponentRegistry$u20$as$u20$inventory..Collect$GT$8registry8REGISTRY17h6a2cfcc2902fdc29E"
}

; <alloc::sync::Arc<T,A> as core::clone::Clone>::clone
; Function Attrs: inlinehint nonlazybind uwtable
define ptr @"_ZN68_$LT$alloc..sync..Arc$LT$T$C$A$GT$$u20$as$u20$core..clone..Clone$GT$5clone17h852003e77677c08eE"(ptr align 8 %self) unnamed_addr #0 {
start:
  %0 = alloca [8 x i8], align 8
  %_10 = load ptr, ptr %self, align 8
  %1 = atomicrmw add ptr %_10, i64 1 monotonic, align 8
  store i64 %1, ptr %0, align 8
  %old_size = load i64, ptr %0, align 8
  %_4 = icmp ugt i64 %old_size, 9223372036854775807
  br i1 %_4, label %bb1, label %bb2

bb2:                                              ; preds = %start
  %ptr = load ptr, ptr %self, align 8
  %_8 = getelementptr inbounds i8, ptr %self, i64 8
; call <alloc::alloc::Global as core::clone::Clone>::clone
  call void @"_ZN59_$LT$alloc..alloc..Global$u20$as$u20$core..clone..Clone$GT$5clone17h25da221c5d2606bfE"(ptr align 1 %_8)
  ret ptr %ptr

bb1:                                              ; preds = %start
  call void @llvm.trap()
  unreachable
}

; <alloc::vec::Vec<T,A> as core::ops::drop::Drop>::drop
; Function Attrs: nonlazybind uwtable
define void @"_ZN70_$LT$alloc..vec..Vec$LT$T$C$A$GT$$u20$as$u20$core..ops..drop..Drop$GT$4drop17he01c9728bd3e8c40E"(ptr align 8 %self) unnamed_addr #1 {
start:
  %0 = getelementptr inbounds i8, ptr %self, i64 8
  %_5 = load ptr, ptr %0, align 8
  %1 = getelementptr inbounds i8, ptr %self, i64 16
  %len = load i64, ptr %1, align 8
; call core::ptr::drop_in_place<[alloc::boxed::Box<dyn core::ops::function::Fn<()>+Output = ()+core::marker::Sync+core::marker::Send>]>
  call void @"_ZN4core3ptr183drop_in_place$LT$$u5b$alloc..boxed..Box$LT$dyn$u20$core..ops..function..Fn$LT$$LP$$RP$$GT$$u2b$Output$u20$$u3d$$u20$$LP$$RP$$u2b$core..marker..Sync$u2b$core..marker..Send$GT$$u5d$$GT$17h6dc6feb13d6fc875E"(ptr align 8 %_5, i64 %len)
  ret void
}

; <alloc::sync::Arc<T,A> as core::ops::drop::Drop>::drop
; Function Attrs: inlinehint nonlazybind uwtable
define void @"_ZN71_$LT$alloc..sync..Arc$LT$T$C$A$GT$$u20$as$u20$core..ops..drop..Drop$GT$4drop17h1393a4d03876e953E"(ptr align 8 %self) unnamed_addr #0 {
start:
  %0 = alloca [8 x i8], align 8
  %_10.0 = load ptr, ptr %self, align 8
  %1 = getelementptr inbounds i8, ptr %self, i64 8
  %_10.1 = load ptr, ptr %1, align 8
  %2 = atomicrmw sub ptr %_10.0, i64 1 release, align 8
  store i64 %2, ptr %0, align 8
  %_2 = load i64, ptr %0, align 8
  %3 = icmp eq i64 %_2, 1
  br i1 %3, label %bb2, label %bb1

bb2:                                              ; preds = %start
  fence acquire
; call alloc::sync::Arc<T,A>::drop_slow
  call void @"_ZN5alloc4sync16Arc$LT$T$C$A$GT$9drop_slow17h832cfec15c56ca72E"(ptr align 8 %self)
  br label %bb3

bb1:                                              ; preds = %start
  br label %bb3

bb3:                                              ; preds = %bb1, %bb2
  ret void
}

; <alloc::sync::Arc<T,A> as core::ops::drop::Drop>::drop
; Function Attrs: inlinehint nonlazybind uwtable
define void @"_ZN71_$LT$alloc..sync..Arc$LT$T$C$A$GT$$u20$as$u20$core..ops..drop..Drop$GT$4drop17h695f3e7a076ec1f6E"(ptr align 8 %self) unnamed_addr #0 {
start:
  %0 = alloca [8 x i8], align 8
  %_10.0 = load ptr, ptr %self, align 8
  %1 = getelementptr inbounds i8, ptr %self, i64 8
  %_10.1 = load ptr, ptr %1, align 8
  %2 = atomicrmw sub ptr %_10.0, i64 1 release, align 8
  store i64 %2, ptr %0, align 8
  %_2 = load i64, ptr %0, align 8
  %3 = icmp eq i64 %_2, 1
  br i1 %3, label %bb2, label %bb1

bb2:                                              ; preds = %start
  fence acquire
; call alloc::sync::Arc<T,A>::drop_slow
  call void @"_ZN5alloc4sync16Arc$LT$T$C$A$GT$9drop_slow17h6c98c74ce709d7a5E"(ptr align 8 %self)
  br label %bb3

bb1:                                              ; preds = %start
  br label %bb3

bb3:                                              ; preds = %bb1, %bb2
  ret void
}

; <alloc::sync::Arc<T,A> as core::ops::drop::Drop>::drop
; Function Attrs: inlinehint nonlazybind uwtable
define void @"_ZN71_$LT$alloc..sync..Arc$LT$T$C$A$GT$$u20$as$u20$core..ops..drop..Drop$GT$4drop17h892cbd92b18d7cb8E"(ptr align 8 %self) unnamed_addr #0 {
start:
  %0 = alloca [8 x i8], align 8
  %_10 = load ptr, ptr %self, align 8
  %1 = atomicrmw sub ptr %_10, i64 1 release, align 8
  store i64 %1, ptr %0, align 8
  %_2 = load i64, ptr %0, align 8
  %2 = icmp eq i64 %_2, 1
  br i1 %2, label %bb2, label %bb1

bb2:                                              ; preds = %start
  fence acquire
; call alloc::sync::Arc<T,A>::drop_slow
  call void @"_ZN5alloc4sync16Arc$LT$T$C$A$GT$9drop_slow17h4486d9b3b802710aE"(ptr align 8 %self)
  br label %bb3

bb1:                                              ; preds = %start
  br label %bb3

bb3:                                              ; preds = %bb1, %bb2
  ret void
}

; <alloc::sync::Arc<T,A> as core::ops::drop::Drop>::drop
; Function Attrs: inlinehint nonlazybind uwtable
define void @"_ZN71_$LT$alloc..sync..Arc$LT$T$C$A$GT$$u20$as$u20$core..ops..drop..Drop$GT$4drop17hf3de727eb26419f1E"(ptr align 8 %self) unnamed_addr #0 {
start:
  %0 = alloca [8 x i8], align 8
  %_10.0 = load ptr, ptr %self, align 8
  %1 = getelementptr inbounds i8, ptr %self, i64 8
  %_10.1 = load ptr, ptr %1, align 8
  %2 = atomicrmw sub ptr %_10.0, i64 1 release, align 8
  store i64 %2, ptr %0, align 8
  %_2 = load i64, ptr %0, align 8
  %3 = icmp eq i64 %_2, 1
  br i1 %3, label %bb2, label %bb1

bb2:                                              ; preds = %start
  fence acquire
; call alloc::sync::Arc<T,A>::drop_slow
  call void @"_ZN5alloc4sync16Arc$LT$T$C$A$GT$9drop_slow17h7d4d0fd8f138debaE"(ptr align 8 %self)
  br label %bb3

bb1:                                              ; preds = %start
  br label %bb3

bb3:                                              ; preds = %bb1, %bb2
  ret void
}

; <alloc::boxed::Box<T,A> as core::ops::drop::Drop>::drop
; Function Attrs: inlinehint nonlazybind uwtable
define void @"_ZN72_$LT$alloc..boxed..Box$LT$T$C$A$GT$$u20$as$u20$core..ops..drop..Drop$GT$4drop17h9b27be5a452bb17eE"(ptr align 8 %self) unnamed_addr #0 {
start:
  %0 = alloca [8 x i8], align 8
  %1 = alloca [8 x i8], align 8
  %layout = alloca [16 x i8], align 8
  %ptr.0 = load ptr, ptr %self, align 8
  %2 = getelementptr inbounds i8, ptr %self, i64 8
  %ptr.1 = load ptr, ptr %2, align 8
  %3 = getelementptr inbounds i8, ptr %ptr.1, i64 8
  %4 = load i64, ptr %3, align 8, !invariant.load !3
  %5 = getelementptr inbounds i8, ptr %ptr.1, i64 16
  %6 = load i64, ptr %5, align 8, !invariant.load !3
  store i64 %4, ptr %1, align 8
  %size = load i64, ptr %1, align 8
  %7 = getelementptr inbounds i8, ptr %ptr.1, i64 8
  %8 = load i64, ptr %7, align 8, !invariant.load !3
  %9 = getelementptr inbounds i8, ptr %ptr.1, i64 16
  %10 = load i64, ptr %9, align 8, !invariant.load !3
  store i64 %10, ptr %0, align 8
  %align = load i64, ptr %0, align 8
  br label %bb6

bb6:                                              ; preds = %start
; call core::alloc::layout::Layout::from_size_align_unchecked::precondition_check
  call void @_ZN4core5alloc6layout6Layout25from_size_align_unchecked18precondition_check17h7e03dcbef42f732eE(i64 %size, i64 %align, ptr align 8 @alloc_67966d1a505ae7d165e6d4531e7e8206) #18
  br label %bb7

bb7:                                              ; preds = %bb6
  %11 = getelementptr inbounds i8, ptr %layout, i64 8
  store i64 %size, ptr %11, align 8
  store i64 %align, ptr %layout, align 8
  %12 = icmp eq i64 %size, 0
  br i1 %12, label %bb3, label %bb1

bb3:                                              ; preds = %bb1, %bb7
  ret void

bb1:                                              ; preds = %bb7
  %_7 = getelementptr inbounds i8, ptr %self, i64 16
  %13 = load i64, ptr %layout, align 8
  %14 = getelementptr inbounds i8, ptr %layout, i64 8
  %15 = load i64, ptr %14, align 8
; call <alloc::alloc::Global as core::alloc::Allocator>::deallocate
  call void @"_ZN63_$LT$alloc..alloc..Global$u20$as$u20$core..alloc..Allocator$GT$10deallocate17h060cb63953f482c4E"(ptr align 1 %_7, ptr %ptr.0, i64 %13, i64 %15)
  br label %bb3
}

; <alloc::sync::Weak<T,A> as core::ops::drop::Drop>::drop
; Function Attrs: nonlazybind uwtable
define void @"_ZN72_$LT$alloc..sync..Weak$LT$T$C$A$GT$$u20$as$u20$core..ops..drop..Drop$GT$4drop17h149935c2f3862f65E"(ptr align 8 %self) unnamed_addr #1 {
start:
  %0 = alloca [8 x i8], align 8
  %1 = alloca [8 x i8], align 8
  %2 = alloca [8 x i8], align 8
  %_2 = alloca [16 x i8], align 8
  %self.0 = load ptr, ptr %self, align 8
  %3 = getelementptr inbounds i8, ptr %self, i64 8
  %self.1 = load ptr, ptr %3, align 8
  %_21 = ptrtoint ptr %self.0 to i64
  %_16 = icmp eq i64 %_21, -1
  br i1 %_16, label %bb6, label %bb7

bb7:                                              ; preds = %start
  %_20 = getelementptr inbounds i8, ptr %self.0, i64 8
  store ptr %_20, ptr %_2, align 8
  %4 = getelementptr inbounds i8, ptr %_2, i64 8
  store ptr %self.0, ptr %4, align 8
  %inner = load ptr, ptr %_2, align 8
  %5 = getelementptr inbounds i8, ptr %_2, i64 8
  %inner1 = load ptr, ptr %5, align 8
  %6 = atomicrmw sub ptr %inner, i64 1 release, align 8
  store i64 %6, ptr %2, align 8
  %_3 = load i64, ptr %2, align 8
  %7 = icmp eq i64 %_3, 1
  br i1 %7, label %bb1, label %bb3

bb6:                                              ; preds = %start
  br label %bb5

bb1:                                              ; preds = %bb7
  fence acquire
  %_8 = getelementptr inbounds i8, ptr %self, i64 16
  %self.02 = load ptr, ptr %self, align 8
  %8 = getelementptr inbounds i8, ptr %self, i64 8
  %self.13 = load ptr, ptr %8, align 8
  %self.04 = load ptr, ptr %self, align 8
  %9 = getelementptr inbounds i8, ptr %self, i64 8
  %self.15 = load ptr, ptr %9, align 8
  %10 = getelementptr inbounds i8, ptr %self.15, i64 8
  %11 = load i64, ptr %10, align 8, !invariant.load !3
  %12 = getelementptr inbounds i8, ptr %self.15, i64 16
  %13 = load i64, ptr %12, align 8, !invariant.load !3
  %14 = icmp ugt i64 8, %13
  %15 = select i1 %14, i64 8, i64 %13
  %16 = add i64 16, %11
  %17 = sub i64 %15, 1
  %18 = add i64 %16, %17
  %19 = sub i64 0, %15
  %20 = and i64 %18, %19
  store i64 %20, ptr %1, align 8
  %size = load i64, ptr %1, align 8
  %21 = getelementptr inbounds i8, ptr %self.15, i64 8
  %22 = load i64, ptr %21, align 8, !invariant.load !3
  %23 = getelementptr inbounds i8, ptr %self.15, i64 16
  %24 = load i64, ptr %23, align 8, !invariant.load !3
  %25 = icmp ugt i64 8, %24
  %26 = select i1 %25, i64 8, i64 %24
  %27 = add i64 16, %22
  %28 = sub i64 %26, 1
  %29 = add i64 %27, %28
  %30 = sub i64 0, %26
  %31 = and i64 %29, %30
  store i64 %26, ptr %0, align 8
  %align = load i64, ptr %0, align 8
  br label %bb12

bb3:                                              ; preds = %bb7
  br label %bb4

bb12:                                             ; preds = %bb1
; call core::alloc::layout::Layout::from_size_align_unchecked::precondition_check
  call void @_ZN4core5alloc6layout6Layout25from_size_align_unchecked18precondition_check17h7e03dcbef42f732eE(i64 %size, i64 %align, ptr align 8 @alloc_67966d1a505ae7d165e6d4531e7e8206) #18
  br label %bb13

bb13:                                             ; preds = %bb12
; call <&A as core::alloc::Allocator>::deallocate
  call void @"_ZN48_$LT$$RF$A$u20$as$u20$core..alloc..Allocator$GT$10deallocate17h42060844d6956627E"(ptr align 8 %_8, ptr %self.02, i64 %align, i64 %size)
  br label %bb4

bb4:                                              ; preds = %bb3, %bb13
  br label %bb5

bb5:                                              ; preds = %bb6, %bb4
  ret void
}

; <alloc::sync::Weak<T,A> as core::ops::drop::Drop>::drop
; Function Attrs: nonlazybind uwtable
define void @"_ZN72_$LT$alloc..sync..Weak$LT$T$C$A$GT$$u20$as$u20$core..ops..drop..Drop$GT$4drop17h6089d27cd0f33867E"(ptr align 8 %self) unnamed_addr #1 {
start:
  %0 = alloca [8 x i8], align 8
  %1 = alloca [8 x i8], align 8
  %2 = alloca [8 x i8], align 8
  %_2 = alloca [16 x i8], align 8
  %self.0 = load ptr, ptr %self, align 8
  %3 = getelementptr inbounds i8, ptr %self, i64 8
  %self.1 = load ptr, ptr %3, align 8
  %_21 = ptrtoint ptr %self.0 to i64
  %_16 = icmp eq i64 %_21, -1
  br i1 %_16, label %bb6, label %bb7

bb7:                                              ; preds = %start
  %_20 = getelementptr inbounds i8, ptr %self.0, i64 8
  store ptr %_20, ptr %_2, align 8
  %4 = getelementptr inbounds i8, ptr %_2, i64 8
  store ptr %self.0, ptr %4, align 8
  %inner = load ptr, ptr %_2, align 8
  %5 = getelementptr inbounds i8, ptr %_2, i64 8
  %inner1 = load ptr, ptr %5, align 8
  %6 = atomicrmw sub ptr %inner, i64 1 release, align 8
  store i64 %6, ptr %2, align 8
  %_3 = load i64, ptr %2, align 8
  %7 = icmp eq i64 %_3, 1
  br i1 %7, label %bb1, label %bb3

bb6:                                              ; preds = %start
  br label %bb5

bb1:                                              ; preds = %bb7
  fence acquire
  %_8 = getelementptr inbounds i8, ptr %self, i64 16
  %self.02 = load ptr, ptr %self, align 8
  %8 = getelementptr inbounds i8, ptr %self, i64 8
  %self.13 = load ptr, ptr %8, align 8
  %self.04 = load ptr, ptr %self, align 8
  %9 = getelementptr inbounds i8, ptr %self, i64 8
  %self.15 = load ptr, ptr %9, align 8
  %10 = getelementptr inbounds i8, ptr %self.15, i64 8
  %11 = load i64, ptr %10, align 8, !invariant.load !3
  %12 = getelementptr inbounds i8, ptr %self.15, i64 16
  %13 = load i64, ptr %12, align 8, !invariant.load !3
  %14 = icmp ugt i64 8, %13
  %15 = select i1 %14, i64 8, i64 %13
  %16 = add i64 16, %11
  %17 = sub i64 %15, 1
  %18 = add i64 %16, %17
  %19 = sub i64 0, %15
  %20 = and i64 %18, %19
  store i64 %20, ptr %1, align 8
  %size = load i64, ptr %1, align 8
  %21 = getelementptr inbounds i8, ptr %self.15, i64 8
  %22 = load i64, ptr %21, align 8, !invariant.load !3
  %23 = getelementptr inbounds i8, ptr %self.15, i64 16
  %24 = load i64, ptr %23, align 8, !invariant.load !3
  %25 = icmp ugt i64 8, %24
  %26 = select i1 %25, i64 8, i64 %24
  %27 = add i64 16, %22
  %28 = sub i64 %26, 1
  %29 = add i64 %27, %28
  %30 = sub i64 0, %26
  %31 = and i64 %29, %30
  store i64 %26, ptr %0, align 8
  %align = load i64, ptr %0, align 8
  br label %bb12

bb3:                                              ; preds = %bb7
  br label %bb4

bb12:                                             ; preds = %bb1
; call core::alloc::layout::Layout::from_size_align_unchecked::precondition_check
  call void @_ZN4core5alloc6layout6Layout25from_size_align_unchecked18precondition_check17h7e03dcbef42f732eE(i64 %size, i64 %align, ptr align 8 @alloc_67966d1a505ae7d165e6d4531e7e8206) #18
  br label %bb13

bb13:                                             ; preds = %bb12
; call <&A as core::alloc::Allocator>::deallocate
  call void @"_ZN48_$LT$$RF$A$u20$as$u20$core..alloc..Allocator$GT$10deallocate17h42060844d6956627E"(ptr align 8 %_8, ptr %self.02, i64 %align, i64 %size)
  br label %bb4

bb4:                                              ; preds = %bb3, %bb13
  br label %bb5

bb5:                                              ; preds = %bb6, %bb4
  ret void
}

; <alloc::sync::Weak<T,A> as core::ops::drop::Drop>::drop
; Function Attrs: nonlazybind uwtable
define void @"_ZN72_$LT$alloc..sync..Weak$LT$T$C$A$GT$$u20$as$u20$core..ops..drop..Drop$GT$4drop17hc92285d11a5aa218E"(ptr align 8 %self) unnamed_addr #1 {
start:
  %0 = alloca [8 x i8], align 8
  %1 = alloca [8 x i8], align 8
  %2 = alloca [8 x i8], align 8
  %_2 = alloca [16 x i8], align 8
  %self1 = load ptr, ptr %self, align 8
  %_21 = ptrtoint ptr %self1 to i64
  %_16 = icmp eq i64 %_21, -1
  br i1 %_16, label %bb6, label %bb7

bb7:                                              ; preds = %start
  %_20 = getelementptr inbounds i8, ptr %self1, i64 8
  store ptr %_20, ptr %_2, align 8
  %3 = getelementptr inbounds i8, ptr %_2, i64 8
  store ptr %self1, ptr %3, align 8
  %inner = load ptr, ptr %_2, align 8
  %4 = getelementptr inbounds i8, ptr %_2, i64 8
  %inner2 = load ptr, ptr %4, align 8
  %5 = atomicrmw sub ptr %inner, i64 1 release, align 8
  store i64 %5, ptr %2, align 8
  %_3 = load i64, ptr %2, align 8
  %6 = icmp eq i64 %_3, 1
  br i1 %6, label %bb1, label %bb3

bb6:                                              ; preds = %start
  br label %bb5

bb1:                                              ; preds = %bb7
  fence acquire
  %_8 = getelementptr inbounds i8, ptr %self, i64 8
  %self3 = load ptr, ptr %self, align 8
  %self4 = load ptr, ptr %self, align 8
  store i64 104, ptr %1, align 8
  %size = load i64, ptr %1, align 8
  store i64 8, ptr %0, align 8
  %align = load i64, ptr %0, align 8
  br label %bb12

bb3:                                              ; preds = %bb7
  br label %bb4

bb12:                                             ; preds = %bb1
; call core::alloc::layout::Layout::from_size_align_unchecked::precondition_check
  call void @_ZN4core5alloc6layout6Layout25from_size_align_unchecked18precondition_check17h7e03dcbef42f732eE(i64 %size, i64 %align, ptr align 8 @alloc_67966d1a505ae7d165e6d4531e7e8206) #18
  br label %bb13

bb13:                                             ; preds = %bb12
; call <&A as core::alloc::Allocator>::deallocate
  call void @"_ZN48_$LT$$RF$A$u20$as$u20$core..alloc..Allocator$GT$10deallocate17h42060844d6956627E"(ptr align 8 %_8, ptr %self3, i64 %align, i64 %size)
  br label %bb4

bb4:                                              ; preds = %bb3, %bb13
  br label %bb5

bb5:                                              ; preds = %bb6, %bb4
  ret void
}

; <alloc::sync::Weak<T,A> as core::ops::drop::Drop>::drop
; Function Attrs: nonlazybind uwtable
define void @"_ZN72_$LT$alloc..sync..Weak$LT$T$C$A$GT$$u20$as$u20$core..ops..drop..Drop$GT$4drop17hf68775bb6003a36dE"(ptr align 8 %self) unnamed_addr #1 {
start:
  %0 = alloca [8 x i8], align 8
  %1 = alloca [8 x i8], align 8
  %2 = alloca [8 x i8], align 8
  %_2 = alloca [16 x i8], align 8
  %self.0 = load ptr, ptr %self, align 8
  %3 = getelementptr inbounds i8, ptr %self, i64 8
  %self.1 = load ptr, ptr %3, align 8
  %_21 = ptrtoint ptr %self.0 to i64
  %_16 = icmp eq i64 %_21, -1
  br i1 %_16, label %bb6, label %bb7

bb7:                                              ; preds = %start
  %_20 = getelementptr inbounds i8, ptr %self.0, i64 8
  store ptr %_20, ptr %_2, align 8
  %4 = getelementptr inbounds i8, ptr %_2, i64 8
  store ptr %self.0, ptr %4, align 8
  %inner = load ptr, ptr %_2, align 8
  %5 = getelementptr inbounds i8, ptr %_2, i64 8
  %inner1 = load ptr, ptr %5, align 8
  %6 = atomicrmw sub ptr %inner, i64 1 release, align 8
  store i64 %6, ptr %2, align 8
  %_3 = load i64, ptr %2, align 8
  %7 = icmp eq i64 %_3, 1
  br i1 %7, label %bb1, label %bb3

bb6:                                              ; preds = %start
  br label %bb5

bb1:                                              ; preds = %bb7
  fence acquire
  %_8 = getelementptr inbounds i8, ptr %self, i64 16
  %self.02 = load ptr, ptr %self, align 8
  %8 = getelementptr inbounds i8, ptr %self, i64 8
  %self.13 = load ptr, ptr %8, align 8
  %self.04 = load ptr, ptr %self, align 8
  %9 = getelementptr inbounds i8, ptr %self, i64 8
  %self.15 = load ptr, ptr %9, align 8
  %10 = getelementptr inbounds i8, ptr %self.15, i64 8
  %11 = load i64, ptr %10, align 8, !invariant.load !3
  %12 = getelementptr inbounds i8, ptr %self.15, i64 16
  %13 = load i64, ptr %12, align 8, !invariant.load !3
  %14 = icmp ugt i64 8, %13
  %15 = select i1 %14, i64 8, i64 %13
  %16 = add i64 16, %11
  %17 = sub i64 %15, 1
  %18 = add i64 %16, %17
  %19 = sub i64 0, %15
  %20 = and i64 %18, %19
  store i64 %20, ptr %1, align 8
  %size = load i64, ptr %1, align 8
  %21 = getelementptr inbounds i8, ptr %self.15, i64 8
  %22 = load i64, ptr %21, align 8, !invariant.load !3
  %23 = getelementptr inbounds i8, ptr %self.15, i64 16
  %24 = load i64, ptr %23, align 8, !invariant.load !3
  %25 = icmp ugt i64 8, %24
  %26 = select i1 %25, i64 8, i64 %24
  %27 = add i64 16, %22
  %28 = sub i64 %26, 1
  %29 = add i64 %27, %28
  %30 = sub i64 0, %26
  %31 = and i64 %29, %30
  store i64 %26, ptr %0, align 8
  %align = load i64, ptr %0, align 8
  br label %bb12

bb3:                                              ; preds = %bb7
  br label %bb4

bb12:                                             ; preds = %bb1
; call core::alloc::layout::Layout::from_size_align_unchecked::precondition_check
  call void @_ZN4core5alloc6layout6Layout25from_size_align_unchecked18precondition_check17h7e03dcbef42f732eE(i64 %size, i64 %align, ptr align 8 @alloc_67966d1a505ae7d165e6d4531e7e8206) #18
  br label %bb13

bb13:                                             ; preds = %bb12
; call <&A as core::alloc::Allocator>::deallocate
  call void @"_ZN48_$LT$$RF$A$u20$as$u20$core..alloc..Allocator$GT$10deallocate17h42060844d6956627E"(ptr align 8 %_8, ptr %self.02, i64 %align, i64 %size)
  br label %bb4

bb4:                                              ; preds = %bb3, %bb13
  br label %bb5

bb5:                                              ; preds = %bb6, %bb4
  ret void
}

; <alloc::sync::Arc<T,A> as core::ops::deref::Deref>::deref
; Function Attrs: inlinehint nonlazybind uwtable
define { ptr, ptr } @"_ZN73_$LT$alloc..sync..Arc$LT$T$C$A$GT$$u20$as$u20$core..ops..deref..Deref$GT$5deref17h09c4fe1c411c344dE"(ptr align 8 %self) unnamed_addr #0 {
start:
  %_3.0 = load ptr, ptr %self, align 8
  %0 = getelementptr inbounds i8, ptr %self, i64 8
  %_3.1 = load ptr, ptr %0, align 8
  %1 = getelementptr inbounds i8, ptr %_3.1, i64 8
  %2 = load i64, ptr %1, align 8, !invariant.load !3
  %3 = getelementptr inbounds i8, ptr %_3.1, i64 16
  %4 = load i64, ptr %3, align 8, !invariant.load !3
  %5 = sub i64 %4, 1
  %6 = and i64 -16, %5
  %7 = add i64 16, %6
  %_0.0 = getelementptr inbounds i8, ptr %_3.0, i64 %7
  %8 = insertvalue { ptr, ptr } poison, ptr %_0.0, 0
  %9 = insertvalue { ptr, ptr } %8, ptr %_3.1, 1
  ret { ptr, ptr } %9
}

; <alloc::sync::Arc<T,A> as core::ops::deref::Deref>::deref
; Function Attrs: inlinehint nonlazybind uwtable
define { ptr, ptr } @"_ZN73_$LT$alloc..sync..Arc$LT$T$C$A$GT$$u20$as$u20$core..ops..deref..Deref$GT$5deref17h548b388c8b776f52E"(ptr align 8 %self) unnamed_addr #0 {
start:
  %_3.0 = load ptr, ptr %self, align 8
  %0 = getelementptr inbounds i8, ptr %self, i64 8
  %_3.1 = load ptr, ptr %0, align 8
  %1 = getelementptr inbounds i8, ptr %_3.1, i64 8
  %2 = load i64, ptr %1, align 8, !invariant.load !3
  %3 = getelementptr inbounds i8, ptr %_3.1, i64 16
  %4 = load i64, ptr %3, align 8, !invariant.load !3
  %5 = sub i64 %4, 1
  %6 = and i64 -16, %5
  %7 = add i64 16, %6
  %_0.0 = getelementptr inbounds i8, ptr %_3.0, i64 %7
  %8 = insertvalue { ptr, ptr } poison, ptr %_0.0, 0
  %9 = insertvalue { ptr, ptr } %8, ptr %_3.1, 1
  ret { ptr, ptr } %9
}

; <alloc::sync::Arc<T,A> as core::ops::deref::Deref>::deref
; Function Attrs: inlinehint nonlazybind uwtable
define { ptr, ptr } @"_ZN73_$LT$alloc..sync..Arc$LT$T$C$A$GT$$u20$as$u20$core..ops..deref..Deref$GT$5deref17hd9be75a8ad4126aeE"(ptr align 8 %self) unnamed_addr #0 {
start:
  %_3.0 = load ptr, ptr %self, align 8
  %0 = getelementptr inbounds i8, ptr %self, i64 8
  %_3.1 = load ptr, ptr %0, align 8
  %1 = getelementptr inbounds i8, ptr %_3.1, i64 8
  %2 = load i64, ptr %1, align 8, !invariant.load !3
  %3 = getelementptr inbounds i8, ptr %_3.1, i64 16
  %4 = load i64, ptr %3, align 8, !invariant.load !3
  %5 = sub i64 %4, 1
  %6 = and i64 -16, %5
  %7 = add i64 16, %6
  %_0.0 = getelementptr inbounds i8, ptr %_3.0, i64 %7
  %8 = insertvalue { ptr, ptr } poison, ptr %_0.0, 0
  %9 = insertvalue { ptr, ptr } %8, ptr %_3.1, 1
  ret { ptr, ptr } %9
}

; <alloc::sync::Arc<T,A> as core::ops::deref::Deref>::deref
; Function Attrs: inlinehint nonlazybind uwtable
define align 8 ptr @"_ZN73_$LT$alloc..sync..Arc$LT$T$C$A$GT$$u20$as$u20$core..ops..deref..Deref$GT$5deref17hf07f92eaf6b69acaE"(ptr align 8 %self) unnamed_addr #0 {
start:
  %_3 = load ptr, ptr %self, align 8
  %_0 = getelementptr inbounds i8, ptr %_3, i64 16
  ret ptr %_0
}

; <std::sync::poison::PoisonError<T> as core::fmt::Debug>::fmt
; Function Attrs: nonlazybind uwtable
define zeroext i1 @"_ZN76_$LT$std..sync..poison..PoisonError$LT$T$GT$$u20$as$u20$core..fmt..Debug$GT$3fmt17h2727af8197261fbfE"(ptr align 8 %self, ptr align 8 %f) unnamed_addr #1 {
start:
  %_4 = alloca [16 x i8], align 8
; call core::fmt::Formatter::debug_struct
  call void @_ZN4core3fmt9Formatter12debug_struct17h79fa1024e7d7f6beE(ptr sret([16 x i8]) align 8 %_4, ptr align 8 %f, ptr align 1 @alloc_8e2410b80645266732854088d21653bc, i64 11)
; call core::fmt::builders::DebugStruct::finish_non_exhaustive
  %_0 = call zeroext i1 @_ZN4core3fmt8builders11DebugStruct21finish_non_exhaustive17hc0ee1a2407c901f5E(ptr align 8 %_4)
  ret i1 %_0
}

; <std::sync::poison::PoisonError<T> as core::fmt::Debug>::fmt
; Function Attrs: nonlazybind uwtable
define zeroext i1 @"_ZN76_$LT$std..sync..poison..PoisonError$LT$T$GT$$u20$as$u20$core..fmt..Debug$GT$3fmt17h74d504338d05d43cE"(ptr align 8 %self, ptr align 8 %f) unnamed_addr #1 {
start:
  %_4 = alloca [16 x i8], align 8
; call core::fmt::Formatter::debug_struct
  call void @_ZN4core3fmt9Formatter12debug_struct17h79fa1024e7d7f6beE(ptr sret([16 x i8]) align 8 %_4, ptr align 8 %f, ptr align 1 @alloc_8e2410b80645266732854088d21653bc, i64 11)
; call core::fmt::builders::DebugStruct::finish_non_exhaustive
  %_0 = call zeroext i1 @_ZN4core3fmt8builders11DebugStruct21finish_non_exhaustive17hc0ee1a2407c901f5E(ptr align 8 %_4)
  ret i1 %_0
}

; <std::sync::poison::PoisonError<T> as core::fmt::Debug>::fmt
; Function Attrs: nonlazybind uwtable
define zeroext i1 @"_ZN76_$LT$std..sync..poison..PoisonError$LT$T$GT$$u20$as$u20$core..fmt..Debug$GT$3fmt17h7ba3b7b4d1949d56E"(ptr align 8 %self, ptr align 8 %f) unnamed_addr #1 {
start:
  %_4 = alloca [16 x i8], align 8
; call core::fmt::Formatter::debug_struct
  call void @_ZN4core3fmt9Formatter12debug_struct17h79fa1024e7d7f6beE(ptr sret([16 x i8]) align 8 %_4, ptr align 8 %f, ptr align 1 @alloc_8e2410b80645266732854088d21653bc, i64 11)
; call core::fmt::builders::DebugStruct::finish_non_exhaustive
  %_0 = call zeroext i1 @_ZN4core3fmt8builders11DebugStruct21finish_non_exhaustive17hc0ee1a2407c901f5E(ptr align 8 %_4)
  ret i1 %_0
}

; <std::sync::poison::PoisonError<T> as core::fmt::Debug>::fmt
; Function Attrs: nonlazybind uwtable
define zeroext i1 @"_ZN76_$LT$std..sync..poison..PoisonError$LT$T$GT$$u20$as$u20$core..fmt..Debug$GT$3fmt17hf4872c818bbab9a3E"(ptr align 8 %self, ptr align 8 %f) unnamed_addr #1 {
start:
  %_4 = alloca [16 x i8], align 8
; call core::fmt::Formatter::debug_struct
  call void @_ZN4core3fmt9Formatter12debug_struct17h79fa1024e7d7f6beE(ptr sret([16 x i8]) align 8 %_4, ptr align 8 %f, ptr align 1 @alloc_8e2410b80645266732854088d21653bc, i64 11)
; call core::fmt::builders::DebugStruct::finish_non_exhaustive
  %_0 = call zeroext i1 @_ZN4core3fmt8builders11DebugStruct21finish_non_exhaustive17hc0ee1a2407c901f5E(ptr align 8 %_4)
  ret i1 %_0
}

; <alloc::raw_vec::RawVec<T,A> as core::ops::drop::Drop>::drop
; Function Attrs: nonlazybind uwtable
define void @"_ZN77_$LT$alloc..raw_vec..RawVec$LT$T$C$A$GT$$u20$as$u20$core..ops..drop..Drop$GT$4drop17h3b94d4ea417df33eE"(ptr align 8 %self) unnamed_addr #1 {
start:
; call alloc::raw_vec::RawVecInner<A>::deallocate
  call void @"_ZN5alloc7raw_vec20RawVecInner$LT$A$GT$10deallocate17h3cff58fea7595ef0E"(ptr align 8 %self, i64 8, i64 16)
  ret void
}

; <aster_util::coeff::Coeff as core::ops::arith::Mul<u64>>::mul
; Function Attrs: nonlazybind uwtable
define internal i64 @"_ZN77_$LT$aster_util..coeff..Coeff$u20$as$u20$core..ops..arith..Mul$LT$u64$GT$$GT$3mul17hc4bd4ab1d67210b9E"(ptr align 8 %self, i64 %rhs) unnamed_addr #1 {
start:
  %0 = getelementptr inbounds i8, ptr %self, i64 8
  %_5 = load i32, ptr %0, align 8
  %_4 = zext i32 %_5 to i64
  %_3 = mul i64 %rhs, %_4
  %1 = getelementptr inbounds i8, ptr %self, i64 12
  %_6 = load i32, ptr %1, align 4
  %2 = and i32 %_6, 63
  %3 = zext i32 %2 to i64
  %_0 = lshr i64 %_3, %3
  ret i64 %_0
}

; <once_cell::sync::Lazy<T,F> as core::ops::deref::Deref>::deref
; Function Attrs: nonlazybind uwtable
define align 8 ptr @"_ZN78_$LT$once_cell..sync..Lazy$LT$T$C$F$GT$$u20$as$u20$core..ops..deref..Deref$GT$5deref17h14ddee1610f7a59bE"(ptr align 8 %self) unnamed_addr #1 {
start:
; call once_cell::sync::OnceCell<T>::get_or_try_init
  %_4 = call align 8 ptr @"_ZN9once_cell4sync17OnceCell$LT$T$GT$15get_or_try_init17hc963bc9949962e96E"(ptr align 8 %self, ptr align 8 %self)
  ret ptr %_4
}

; <core::result::Result<T,E> as core::ops::try_trait::Try>::branch
; Function Attrs: inlinehint nonlazybind uwtable
define { ptr, ptr } @"_ZN79_$LT$core..result..Result$LT$T$C$E$GT$$u20$as$u20$core..ops..try_trait..Try$GT$6branch17hbfc5f221af5fa606E"(ptr %0, ptr %1) unnamed_addr #0 {
start:
  %_0 = alloca [16 x i8], align 8
  %self = alloca [16 x i8], align 8
  store ptr %0, ptr %self, align 8
  %2 = getelementptr inbounds i8, ptr %self, i64 8
  store ptr %1, ptr %2, align 8
  %3 = load ptr, ptr %self, align 8
  %4 = getelementptr inbounds i8, ptr %self, i64 8
  %5 = load ptr, ptr %4, align 8
  %6 = ptrtoint ptr %3 to i64
  %7 = icmp eq i64 %6, 0
  %_2 = select i1 %7, i64 1, i64 0
  %8 = trunc nuw i64 %_2 to i1
  br i1 %8, label %bb2, label %bb3

bb2:                                              ; preds = %start
  store ptr null, ptr %_0, align 8
  br label %bb4

bb3:                                              ; preds = %start
  %v.0 = load ptr, ptr %self, align 8
  %9 = getelementptr inbounds i8, ptr %self, i64 8
  %v.1 = load ptr, ptr %9, align 8
  store ptr %v.0, ptr %_0, align 8
  %10 = getelementptr inbounds i8, ptr %_0, i64 8
  store ptr %v.1, ptr %10, align 8
  br label %bb4

bb4:                                              ; preds = %bb2, %bb3
  %11 = load ptr, ptr %_0, align 8
  %12 = getelementptr inbounds i8, ptr %_0, i64 8
  %13 = load ptr, ptr %12, align 8
  %14 = insertvalue { ptr, ptr } poison, ptr %11, 0
  %15 = insertvalue { ptr, ptr } %14, ptr %13, 1
  ret { ptr, ptr } %15

bb1:                                              ; No predecessors!
  unreachable
}

; <std::sync::poison::mutex::MutexGuard<T> as core::ops::drop::Drop>::drop
; Function Attrs: inlinehint nonlazybind uwtable
define void @"_ZN87_$LT$std..sync..poison..mutex..MutexGuard$LT$T$GT$$u20$as$u20$core..ops..drop..Drop$GT$4drop17h353b3d3511ba1550E"(ptr align 8 %self) unnamed_addr #0 {
start:
  %0 = alloca [4 x i8], align 4
  %_6 = load ptr, ptr %self, align 8
  %_3 = getelementptr inbounds i8, ptr %_6, i64 4
  %_4 = getelementptr inbounds i8, ptr %self, i64 8
; call std::sync::poison::Flag::done
  call void @_ZN3std4sync6poison4Flag4done17hfee0218769e7ea2bE(ptr align 1 %_3, ptr align 1 %_4)
  %_7 = load ptr, ptr %self, align 8
  %1 = atomicrmw xchg ptr %_7, i32 0 release, align 4
  store i32 %1, ptr %0, align 4
  %_9 = load i32, ptr %0, align 4
  %_8 = icmp eq i32 %_9, 2
  br i1 %_8, label %bb2, label %bb3

bb3:                                              ; preds = %start
  br label %bb4

bb2:                                              ; preds = %start
; call std::sys::sync::mutex::futex::Mutex::wake
  call void @_ZN3std3sys4sync5mutex5futex5Mutex4wake17h9c3ac3691ca5637bE(ptr align 4 %_7)
  br label %bb4

bb4:                                              ; preds = %bb2, %bb3
  ret void
}

; <std::sync::poison::mutex::MutexGuard<T> as core::ops::drop::Drop>::drop
; Function Attrs: inlinehint nonlazybind uwtable
define void @"_ZN87_$LT$std..sync..poison..mutex..MutexGuard$LT$T$GT$$u20$as$u20$core..ops..drop..Drop$GT$4drop17h37e0be677f6ec4e7E"(ptr align 8 %self) unnamed_addr #0 {
start:
  %0 = alloca [4 x i8], align 4
  %_6 = load ptr, ptr %self, align 8
  %_3 = getelementptr inbounds i8, ptr %_6, i64 4
  %_4 = getelementptr inbounds i8, ptr %self, i64 8
; call std::sync::poison::Flag::done
  call void @_ZN3std4sync6poison4Flag4done17hfee0218769e7ea2bE(ptr align 1 %_3, ptr align 1 %_4)
  %_7 = load ptr, ptr %self, align 8
  %1 = atomicrmw xchg ptr %_7, i32 0 release, align 4
  store i32 %1, ptr %0, align 4
  %_9 = load i32, ptr %0, align 4
  %_8 = icmp eq i32 %_9, 2
  br i1 %_8, label %bb2, label %bb3

bb3:                                              ; preds = %start
  br label %bb4

bb2:                                              ; preds = %start
; call std::sys::sync::mutex::futex::Mutex::wake
  call void @_ZN3std3sys4sync5mutex5futex5Mutex4wake17h9c3ac3691ca5637bE(ptr align 4 %_7)
  br label %bb4

bb4:                                              ; preds = %bb2, %bb3
  ret void
}

; <std::sync::poison::mutex::MutexGuard<T> as core::ops::deref::Deref>::deref
; Function Attrs: nonlazybind uwtable
define align 8 ptr @"_ZN89_$LT$std..sync..poison..mutex..MutexGuard$LT$T$GT$$u20$as$u20$core..ops..deref..Deref$GT$5deref17h5210b2830b21a360E"(ptr align 8 %self) unnamed_addr #1 {
start:
  %_3 = load ptr, ptr %self, align 8
  %_4 = getelementptr inbounds i8, ptr %_3, i64 8
  ret ptr %_4
}

; <std::sync::poison::mutex::MutexGuard<T> as core::ops::deref::DerefMut>::deref_mut
; Function Attrs: nonlazybind uwtable
define align 8 ptr @"_ZN92_$LT$std..sync..poison..mutex..MutexGuard$LT$T$GT$$u20$as$u20$core..ops..deref..DerefMut$GT$9deref_mut17hbe2fdf5be3a87bd6E"(ptr align 8 %self) unnamed_addr #1 {
start:
  %_3 = load ptr, ptr %self, align 8
  %_4 = getelementptr inbounds i8, ptr %_3, i64 8
  ret ptr %_4
}

; <std::sync::poison::rwlock::RwLockReadGuard<T> as core::ops::drop::Drop>::drop
; Function Attrs: nonlazybind uwtable
define void @"_ZN93_$LT$std..sync..poison..rwlock..RwLockReadGuard$LT$T$GT$$u20$as$u20$core..ops..drop..Drop$GT$4drop17hfb1b2826c2108a56E"(ptr align 8 %self) unnamed_addr #1 {
start:
  %0 = alloca [4 x i8], align 4
  %1 = getelementptr inbounds i8, ptr %self, i64 8
  %self1 = load ptr, ptr %1, align 8
  %2 = atomicrmw sub ptr %self1, i32 1 release, align 4
  store i32 %2, ptr %0, align 4
  %_4 = load i32, ptr %0, align 4
  %state = sub i32 %_4, 1
  %_12 = and i32 %state, 1073741823
  %3 = icmp eq i32 %_12, 0
  br i1 %3, label %bb2, label %bb5

bb2:                                              ; preds = %start
  %_13 = and i32 %state, -2147483648
  %4 = icmp eq i32 %_13, 0
  br i1 %4, label %bb4, label %bb3

bb5:                                              ; preds = %start
  br label %bb1

bb4:                                              ; preds = %bb2
  br label %bb1

bb3:                                              ; preds = %bb2
; call std::sys::sync::rwlock::futex::RwLock::wake_writer_or_readers
  call void @_ZN3std3sys4sync6rwlock5futex6RwLock22wake_writer_or_readers17hbf0800e219067eb1E(ptr align 4 %self1, i32 %state)
  br label %bb1

bb1:                                              ; preds = %bb5, %bb3, %bb4
  ret void
}

; <std::sync::poison::rwlock::RwLockWriteGuard<T> as core::ops::drop::Drop>::drop
; Function Attrs: nonlazybind uwtable
define void @"_ZN94_$LT$std..sync..poison..rwlock..RwLockWriteGuard$LT$T$GT$$u20$as$u20$core..ops..drop..Drop$GT$4drop17he2bc804f352b4fb2E"(ptr align 8 %self) unnamed_addr #1 {
start:
  %0 = alloca [4 x i8], align 4
  %_6 = load ptr, ptr %self, align 8
  %_3 = getelementptr inbounds i8, ptr %_6, i64 8
  %_4 = getelementptr inbounds i8, ptr %self, i64 8
; call std::sync::poison::Flag::done
  call void @_ZN3std4sync6poison4Flag4done17hfee0218769e7ea2bE(ptr align 1 %_3, ptr align 1 %_4)
  %_7 = load ptr, ptr %self, align 8
  %1 = atomicrmw sub ptr %_7, i32 1073741823 release, align 4
  store i32 %1, ptr %0, align 4
  %_9 = load i32, ptr %0, align 4
  %state = sub i32 %_9, 1073741823
  %_16 = and i32 %state, -2147483648
  %2 = icmp eq i32 %_16, 0
  br i1 %2, label %bb4, label %bb3

bb4:                                              ; preds = %start
  %_17 = and i32 %state, 1073741824
  %3 = icmp eq i32 %_17, 0
  br i1 %3, label %bb7, label %bb5

bb3:                                              ; preds = %start
  br label %bb6

bb7:                                              ; preds = %bb4
  br label %bb2

bb5:                                              ; preds = %bb4
  br label %bb6

bb2:                                              ; preds = %bb6, %bb7
  ret void

bb6:                                              ; preds = %bb3, %bb5
; call std::sys::sync::rwlock::futex::RwLock::wake_writer_or_readers
  call void @_ZN3std3sys4sync6rwlock5futex6RwLock22wake_writer_or_readers17hbf0800e219067eb1E(ptr align 4 %_7, i32 %state)
  br label %bb2
}

; <std::sync::poison::rwlock::RwLockReadGuard<T> as core::ops::deref::Deref>::deref
; Function Attrs: nonlazybind uwtable
define align 8 ptr @"_ZN95_$LT$std..sync..poison..rwlock..RwLockReadGuard$LT$T$GT$$u20$as$u20$core..ops..deref..Deref$GT$5deref17ha0d72a1fc7b008efE"(ptr align 8 %self) unnamed_addr #1 {
start:
  %_3 = load ptr, ptr %self, align 8
  ret ptr %_3
}

; <std::sync::poison::rwlock::RwLockWriteGuard<T> as core::ops::deref::DerefMut>::deref_mut
; Function Attrs: nonlazybind uwtable
define align 8 ptr @"_ZN99_$LT$std..sync..poison..rwlock..RwLockWriteGuard$LT$T$GT$$u20$as$u20$core..ops..deref..DerefMut$GT$9deref_mut17hdad8f6db10fd3409E"(ptr align 8 %self) unnamed_addr #1 {
start:
  %_3 = load ptr, ptr %self, align 8
  %_4 = getelementptr inbounds i8, ptr %_3, i64 16
  ret ptr %_4
}

; once_cell::imp::OnceCell<T>::initialize
; Function Attrs: cold nonlazybind uwtable
define void @"_ZN9once_cell3imp17OnceCell$LT$T$GT$10initialize17h2e8667e8f8639986E"(ptr align 8 %self, ptr align 8 %f) unnamed_addr #5 personality ptr @rust_eh_personality {
start:
  %0 = alloca [16 x i8], align 8
  %_11 = alloca [24 x i8], align 8
  %slot = alloca [8 x i8], align 8
  %res = alloca [0 x i8], align 1
  %f1 = alloca [8 x i8], align 8
  store ptr %f, ptr %f1, align 8
  %_15 = getelementptr inbounds i8, ptr %self, i64 8
  store ptr %_15, ptr %slot, align 8
  store ptr %f1, ptr %_11, align 8
  %1 = getelementptr inbounds i8, ptr %_11, i64 8
  store ptr %slot, ptr %1, align 8
  %2 = getelementptr inbounds i8, ptr %_11, i64 16
  store ptr %res, ptr %2, align 8
; invoke once_cell::imp::initialize_or_wait
  invoke void @_ZN9once_cell3imp18initialize_or_wait17h442df18500f3703eE(ptr align 8 %self, ptr align 1 %_11, ptr @vtable.5)
          to label %bb1 unwind label %cleanup

bb3:                                              ; preds = %cleanup
  %3 = load ptr, ptr %0, align 8
  %4 = getelementptr inbounds i8, ptr %0, i64 8
  %5 = load i32, ptr %4, align 8
  %6 = insertvalue { ptr, i32 } poison, ptr %3, 0
  %7 = insertvalue { ptr, i32 } %6, i32 %5, 1
  resume { ptr, i32 } %7

cleanup:                                          ; preds = %start
  %8 = landingpad { ptr, i32 }
          cleanup
  %9 = extractvalue { ptr, i32 } %8, 0
  %10 = extractvalue { ptr, i32 } %8, 1
  store ptr %9, ptr %0, align 8
  %11 = getelementptr inbounds i8, ptr %0, i64 8
  store i32 %10, ptr %11, align 8
  br label %bb3

bb1:                                              ; preds = %start
  ret void
}

; once_cell::imp::OnceCell<T>::initialize
; Function Attrs: cold nonlazybind uwtable
define void @"_ZN9once_cell3imp17OnceCell$LT$T$GT$10initialize17h46fd1cd48fcd6434E"(ptr align 8 %self, ptr align 8 %f) unnamed_addr #5 personality ptr @rust_eh_personality {
start:
  %0 = alloca [16 x i8], align 8
  %_11 = alloca [24 x i8], align 8
  %slot = alloca [8 x i8], align 8
  %res = alloca [0 x i8], align 1
  %f1 = alloca [8 x i8], align 8
  store ptr %f, ptr %f1, align 8
  store ptr %self, ptr %slot, align 8
  %_7 = getelementptr inbounds i8, ptr %self, i64 32
  store ptr %f1, ptr %_11, align 8
  %1 = getelementptr inbounds i8, ptr %_11, i64 8
  store ptr %slot, ptr %1, align 8
  %2 = getelementptr inbounds i8, ptr %_11, i64 16
  store ptr %res, ptr %2, align 8
; invoke once_cell::imp::initialize_or_wait
  invoke void @_ZN9once_cell3imp18initialize_or_wait17h442df18500f3703eE(ptr align 8 %_7, ptr align 1 %_11, ptr @vtable.6)
          to label %bb1 unwind label %cleanup

bb3:                                              ; preds = %cleanup
  %3 = load ptr, ptr %0, align 8
  %4 = getelementptr inbounds i8, ptr %0, i64 8
  %5 = load i32, ptr %4, align 8
  %6 = insertvalue { ptr, i32 } poison, ptr %3, 0
  %7 = insertvalue { ptr, i32 } %6, i32 %5, 1
  resume { ptr, i32 } %7

cleanup:                                          ; preds = %start
  %8 = landingpad { ptr, i32 }
          cleanup
  %9 = extractvalue { ptr, i32 } %8, 0
  %10 = extractvalue { ptr, i32 } %8, 1
  store ptr %9, ptr %0, align 8
  %11 = getelementptr inbounds i8, ptr %0, i64 8
  store i32 %10, ptr %11, align 8
  br label %bb3

bb1:                                              ; preds = %start
  ret void
}

; once_cell::imp::OnceCell<T>::initialize
; Function Attrs: cold nonlazybind uwtable
define void @"_ZN9once_cell3imp17OnceCell$LT$T$GT$10initialize17h96adf4c14aaea671E"(ptr align 8 %self, ptr align 8 %f) unnamed_addr #5 personality ptr @rust_eh_personality {
start:
  %0 = alloca [16 x i8], align 8
  %_11 = alloca [24 x i8], align 8
  %slot = alloca [8 x i8], align 8
  %res = alloca [0 x i8], align 1
  %f1 = alloca [8 x i8], align 8
  store ptr %f, ptr %f1, align 8
  %_15 = getelementptr inbounds i8, ptr %self, i64 8
  store ptr %_15, ptr %slot, align 8
  store ptr %f1, ptr %_11, align 8
  %1 = getelementptr inbounds i8, ptr %_11, i64 8
  store ptr %slot, ptr %1, align 8
  %2 = getelementptr inbounds i8, ptr %_11, i64 16
  store ptr %res, ptr %2, align 8
; invoke once_cell::imp::initialize_or_wait
  invoke void @_ZN9once_cell3imp18initialize_or_wait17h442df18500f3703eE(ptr align 8 %self, ptr align 1 %_11, ptr @vtable.7)
          to label %bb1 unwind label %cleanup

bb3:                                              ; preds = %cleanup
  %3 = load ptr, ptr %0, align 8
  %4 = getelementptr inbounds i8, ptr %0, i64 8
  %5 = load i32, ptr %4, align 8
  %6 = insertvalue { ptr, i32 } poison, ptr %3, 0
  %7 = insertvalue { ptr, i32 } %6, i32 %5, 1
  resume { ptr, i32 } %7

